
SinESC_Wing_1.0A.elf:     file format elf32-littlearm

Sections:
Idx Name          Size      VMA       LMA       File off  Algn
  0 .isr_vector   00000188  08000000  08000000  00010000  2**0
                  CONTENTS, ALLOC, LOAD, READONLY, DATA
  1 .text         000087cc  08000188  08000188  00010188  2**2
                  CONTENTS, ALLOC, LOAD, READONLY, CODE
  2 .rodata       00000314  08008954  08008954  00018954  2**2
                  CONTENTS, ALLOC, LOAD, READONLY, DATA
  3 .ARM.extab    00000000  08008c68  08008c68  000206dc  2**0
                  CONTENTS
  4 .ARM          00000000  08008c68  08008c68  000206dc  2**0
                  CONTENTS
  5 .preinit_array 00000000  08008c68  08008c68  000206dc  2**0
                  CONTENTS, ALLOC, LOAD, DATA
  6 .init_array   00000004  08008c68  08008c68  00018c68  2**2
                  CONTENTS, ALLOC, LOAD, DATA
  7 .fini_array   00000004  08008c6c  08008c6c  00018c6c  2**2
                  CONTENTS, ALLOC, LOAD, DATA
  8 .data         000006dc  20000000  08008c70  00020000  2**2
                  CONTENTS, ALLOC, LOAD, DATA
  9 .bss          000004fc  200006dc  0800934c  000206dc  2**2
                  ALLOC
 10 ._user_heap_stack 00000600  20000bd8  0800934c  00020bd8  2**0
                  ALLOC
 11 .ARM.attributes 00000030  00000000  00000000  000206dc  2**0
                  CONTENTS, READONLY
 12 .comment      000000fa  00000000  00000000  0002070c  2**0
                  CONTENTS, READONLY
 13 .debug_frame  0000004c  00000000  00000000  00020808  2**2
                  CONTENTS, READONLY, DEBUGGING

Disassembly of section .text:

08000188 <__do_global_dtors_aux>:
 8000188:	b510      	push	{r4, lr}
 800018a:	4c05      	ldr	r4, [pc, #20]	; (80001a0 <__do_global_dtors_aux+0x18>)
 800018c:	7823      	ldrb	r3, [r4, #0]
 800018e:	b933      	cbnz	r3, 800019e <__do_global_dtors_aux+0x16>
 8000190:	4b04      	ldr	r3, [pc, #16]	; (80001a4 <__do_global_dtors_aux+0x1c>)
 8000192:	b113      	cbz	r3, 800019a <__do_global_dtors_aux+0x12>
 8000194:	4804      	ldr	r0, [pc, #16]	; (80001a8 <__do_global_dtors_aux+0x20>)
 8000196:	f3af 8000 	nop.w
 800019a:	2301      	movs	r3, #1
 800019c:	7023      	strb	r3, [r4, #0]
 800019e:	bd10      	pop	{r4, pc}
 80001a0:	200006dc 	.word	0x200006dc
 80001a4:	00000000 	.word	0x00000000
 80001a8:	0800893c 	.word	0x0800893c

080001ac <frame_dummy>:
 80001ac:	b508      	push	{r3, lr}
 80001ae:	4b03      	ldr	r3, [pc, #12]	; (80001bc <frame_dummy+0x10>)
 80001b0:	b11b      	cbz	r3, 80001ba <frame_dummy+0xe>
 80001b2:	4903      	ldr	r1, [pc, #12]	; (80001c0 <frame_dummy+0x14>)
 80001b4:	4803      	ldr	r0, [pc, #12]	; (80001c4 <frame_dummy+0x18>)
 80001b6:	f3af 8000 	nop.w
 80001ba:	bd08      	pop	{r3, pc}
 80001bc:	00000000 	.word	0x00000000
 80001c0:	200006e0 	.word	0x200006e0
 80001c4:	0800893c 	.word	0x0800893c

080001c8 <Reset_Handler>:
 80001c8:	f8df d034 	ldr.w	sp, [pc, #52]	; 8000200 <LoopForever+0x2>
 80001cc:	2100      	movs	r1, #0
 80001ce:	e003      	b.n	80001d8 <LoopCopyDataInit>

080001d0 <CopyDataInit>:
 80001d0:	4b0c      	ldr	r3, [pc, #48]	; (8000204 <LoopForever+0x6>)
 80001d2:	585b      	ldr	r3, [r3, r1]
 80001d4:	5043      	str	r3, [r0, r1]
 80001d6:	3104      	adds	r1, #4

080001d8 <LoopCopyDataInit>:
 80001d8:	480b      	ldr	r0, [pc, #44]	; (8000208 <LoopForever+0xa>)
 80001da:	4b0c      	ldr	r3, [pc, #48]	; (800020c <LoopForever+0xe>)
 80001dc:	1842      	adds	r2, r0, r1
 80001de:	429a      	cmp	r2, r3
 80001e0:	d3f6      	bcc.n	80001d0 <CopyDataInit>
 80001e2:	4a0b      	ldr	r2, [pc, #44]	; (8000210 <LoopForever+0x12>)
 80001e4:	e002      	b.n	80001ec <LoopFillZerobss>

080001e6 <FillZerobss>:
 80001e6:	2300      	movs	r3, #0
 80001e8:	f842 3b04 	str.w	r3, [r2], #4

080001ec <LoopFillZerobss>:
 80001ec:	4b09      	ldr	r3, [pc, #36]	; (8000214 <LoopForever+0x16>)
 80001ee:	429a      	cmp	r2, r3
 80001f0:	d3f9      	bcc.n	80001e6 <FillZerobss>
 80001f2:	f003 f95d 	bl	80034b0 <SystemInit>
 80001f6:	f008 fb75 	bl	80088e4 <__libc_init_array>
 80001fa:	f000 fa43 	bl	8000684 <main>

080001fe <LoopForever>:
 80001fe:	e7fe      	b.n	80001fe <LoopForever>
 8000200:	20008000 	.word	0x20008000
 8000204:	08008c70 	.word	0x08008c70
 8000208:	20000000 	.word	0x20000000
 800020c:	200006dc 	.word	0x200006dc
 8000210:	200006dc 	.word	0x200006dc
 8000214:	20000bd8 	.word	0x20000bd8

08000218 <ADC3_IRQHandler>:
 8000218:	e7fe      	b.n	8000218 <ADC3_IRQHandler>
	...

0800021c <esc_boot>:
 800021c:	6803      	ldr	r3, [r0, #0]
 800021e:	681b      	ldr	r3, [r3, #0]
 8000220:	6a1a      	ldr	r2, [r3, #32]
 8000222:	f042 0210 	orr.w	r2, r2, #16
 8000226:	621a      	str	r2, [r3, #32]
 8000228:	68da      	ldr	r2, [r3, #12]
 800022a:	f042 0202 	orr.w	r2, r2, #2
 800022e:	60da      	str	r2, [r3, #12]
 8000230:	6a1a      	ldr	r2, [r3, #32]
 8000232:	f042 0201 	orr.w	r2, r2, #1
 8000236:	621a      	str	r2, [r3, #32]
 8000238:	681a      	ldr	r2, [r3, #0]
 800023a:	f042 0201 	orr.w	r2, r2, #1
 800023e:	601a      	str	r2, [r3, #0]
 8000240:	4770      	bx	lr
 8000242:	bf00      	nop

08000244 <esc_pwm_control>:
 8000244:	b570      	push	{r4, r5, r6, lr}
 8000246:	4604      	mov	r4, r0
 8000248:	f002 fbfc 	bl	8002a44 <UI_IdleTimeHasElapsed>
 800024c:	b900      	cbnz	r0, 8000250 <esc_pwm_control+0xc>
 800024e:	bd70      	pop	{r4, r5, r6, pc}
 8000250:	2004      	movs	r0, #4
 8000252:	f002 fc01 	bl	8002a58 <UI_SetIdleTime>
 8000256:	f000 fd49 	bl	8000cec <MC_GetSTMStateMotor1>
 800025a:	280b      	cmp	r0, #11
 800025c:	d07d      	beq.n	800035a <esc_pwm_control+0x116>
 800025e:	f894 102e 	ldrb.w	r1, [r4, #46]	; 0x2e
 8000262:	f894 202f 	ldrb.w	r2, [r4, #47]	; 0x2f
 8000266:	f894 3030 	ldrb.w	r3, [r4, #48]	; 0x30
 800026a:	6825      	ldr	r5, [r4, #0]
 800026c:	4293      	cmp	r3, r2
 800026e:	d070      	beq.n	8000352 <esc_pwm_control+0x10e>
 8000270:	68e8      	ldr	r0, [r5, #12]
 8000272:	4b5d      	ldr	r3, [pc, #372]	; (80003e8 <esc_pwm_control+0x1a4>)
 8000274:	6220      	str	r0, [r4, #32]
 8000276:	f884 2030 	strb.w	r2, [r4, #48]	; 0x30
 800027a:	6a1a      	ldr	r2, [r3, #32]
 800027c:	f422 62aa 	bic.w	r2, r2, #1360	; 0x550
 8000280:	f022 0205 	bic.w	r2, r2, #5
 8000284:	f44f 7016 	mov.w	r0, #600	; 0x258
 8000288:	621a      	str	r2, [r3, #32]
 800028a:	62d8      	str	r0, [r3, #44]	; 0x2c
 800028c:	6a1a      	ldr	r2, [r3, #32]
 800028e:	f442 62aa 	orr.w	r2, r2, #1360	; 0x550
 8000292:	f042 0205 	orr.w	r2, r2, #5
 8000296:	621a      	str	r2, [r3, #32]
 8000298:	2903      	cmp	r1, #3
 800029a:	d8d8      	bhi.n	800024e <esc_pwm_control+0xa>
 800029c:	e8df f001 	tbb	[pc, r1]
 80002a0:	0209323f 	.word	0x0209323f
 80002a4:	f9b4 302c 	ldrsh.w	r3, [r4, #44]	; 0x2c
 80002a8:	2b00      	cmp	r3, #0
 80002aa:	d074      	beq.n	8000396 <esc_pwm_control+0x152>
 80002ac:	3b01      	subs	r3, #1
 80002ae:	85a3      	strh	r3, [r4, #44]	; 0x2c
 80002b0:	bd70      	pop	{r4, r5, r6, pc}
 80002b2:	6aa3      	ldr	r3, [r4, #40]	; 0x28
 80002b4:	69aa      	ldr	r2, [r5, #24]
 80002b6:	4293      	cmp	r3, r2
 80002b8:	d359      	bcc.n	800036e <esc_pwm_control+0x12a>
 80002ba:	e9d5 3104 	ldrd	r3, r1, [r5, #16]
 80002be:	6aa0      	ldr	r0, [r4, #40]	; 0x28
 80002c0:	6263      	str	r3, [r4, #36]	; 0x24
 80002c2:	4288      	cmp	r0, r1
 80002c4:	8cab      	ldrh	r3, [r5, #36]	; 0x24
 80002c6:	f200 808c 	bhi.w	80003e2 <esc_pwm_control+0x19e>
 80002ca:	6aa1      	ldr	r1, [r4, #40]	; 0x28
 80002cc:	8ce8      	ldrh	r0, [r5, #38]	; 0x26
 80002ce:	6a2c      	ldr	r4, [r5, #32]
 80002d0:	1a8a      	subs	r2, r1, r2
 80002d2:	1a1b      	subs	r3, r3, r0
 80002d4:	fb03 f302 	mul.w	r3, r3, r2
 80002d8:	fbb3 f3f4 	udiv	r3, r3, r4
 80002dc:	181c      	adds	r4, r3, r0
 80002de:	f000 fd05 	bl	8000cec <MC_GetSTMStateMotor1>
 80002e2:	2806      	cmp	r0, #6
 80002e4:	d1b3      	bne.n	800024e <esc_pwm_control+0xa>
 80002e6:	4b41      	ldr	r3, [pc, #260]	; (80003ec <esc_pwm_control+0x1a8>)
 80002e8:	f895 1028 	ldrb.w	r1, [r5, #40]	; 0x28
 80002ec:	4a40      	ldr	r2, [pc, #256]	; (80003f0 <esc_pwm_control+0x1ac>)
 80002ee:	fba3 0304 	umull	r0, r3, r3, r4
 80002f2:	f852 0021 	ldr.w	r0, [r2, r1, lsl #2]
 80002f6:	e8bd 4070 	ldmia.w	sp!, {r4, r5, r6, lr}
 80002fa:	f343 018f 	sbfx	r1, r3, #2, #16
 80002fe:	2232      	movs	r2, #50	; 0x32
 8000300:	f000 bd08 	b.w	8000d14 <MCI_ExecSpeedRamp>
 8000304:	6aa2      	ldr	r2, [r4, #40]	; 0x28
 8000306:	69ab      	ldr	r3, [r5, #24]
 8000308:	429a      	cmp	r2, r3
 800030a:	d24d      	bcs.n	80003a8 <esc_pwm_control+0x164>
 800030c:	69eb      	ldr	r3, [r5, #28]
 800030e:	6aa2      	ldr	r2, [r4, #40]	; 0x28
 8000310:	429a      	cmp	r2, r3
 8000312:	d29c      	bcs.n	800024e <esc_pwm_control+0xa>
 8000314:	2300      	movs	r3, #0
 8000316:	f884 302e 	strb.w	r3, [r4, #46]	; 0x2e
 800031a:	61e3      	str	r3, [r4, #28]
 800031c:	bd70      	pop	{r4, r5, r6, pc}
 800031e:	6aa2      	ldr	r2, [r4, #40]	; 0x28
 8000320:	69eb      	ldr	r3, [r5, #28]
 8000322:	429a      	cmp	r2, r3
 8000324:	d3f6      	bcc.n	8000314 <esc_pwm_control+0xd0>
 8000326:	6aa2      	ldr	r2, [r4, #40]	; 0x28
 8000328:	69ab      	ldr	r3, [r5, #24]
 800032a:	429a      	cmp	r2, r3
 800032c:	d2f2      	bcs.n	8000314 <esc_pwm_control+0xd0>
 800032e:	69e3      	ldr	r3, [r4, #28]
 8000330:	68aa      	ldr	r2, [r5, #8]
 8000332:	3301      	adds	r3, #1
 8000334:	4293      	cmp	r3, r2
 8000336:	61e3      	str	r3, [r4, #28]
 8000338:	d989      	bls.n	800024e <esc_pwm_control+0xa>
 800033a:	68eb      	ldr	r3, [r5, #12]
 800033c:	6223      	str	r3, [r4, #32]
 800033e:	2300      	movs	r3, #0
 8000340:	2201      	movs	r2, #1
 8000342:	f884 302f 	strb.w	r3, [r4, #47]	; 0x2f
 8000346:	f884 3030 	strb.w	r3, [r4, #48]	; 0x30
 800034a:	f884 202e 	strb.w	r2, [r4, #46]	; 0x2e
 800034e:	61e3      	str	r3, [r4, #28]
 8000350:	bd70      	pop	{r4, r5, r6, pc}
 8000352:	6a23      	ldr	r3, [r4, #32]
 8000354:	b943      	cbnz	r3, 8000368 <esc_pwm_control+0x124>
 8000356:	62a3      	str	r3, [r4, #40]	; 0x28
 8000358:	e79e      	b.n	8000298 <esc_pwm_control+0x54>
 800035a:	f000 fcc1 	bl	8000ce0 <MC_AcknowledgeFaultMotor1>
 800035e:	2100      	movs	r1, #0
 8000360:	f884 102e 	strb.w	r1, [r4, #46]	; 0x2e
 8000364:	61e1      	str	r1, [r4, #28]
 8000366:	e77c      	b.n	8000262 <esc_pwm_control+0x1e>
 8000368:	3b01      	subs	r3, #1
 800036a:	6223      	str	r3, [r4, #32]
 800036c:	e794      	b.n	8000298 <esc_pwm_control+0x54>
 800036e:	6a63      	ldr	r3, [r4, #36]	; 0x24
 8000370:	3b01      	subs	r3, #1
 8000372:	2b00      	cmp	r3, #0
 8000374:	6263      	str	r3, [r4, #36]	; 0x24
 8000376:	f73f af6a 	bgt.w	800024e <esc_pwm_control+0xa>
 800037a:	692b      	ldr	r3, [r5, #16]
 800037c:	6263      	str	r3, [r4, #36]	; 0x24
 800037e:	2203      	movs	r2, #3
 8000380:	f884 202e 	strb.w	r2, [r4, #46]	; 0x2e
 8000384:	f895 2028 	ldrb.w	r2, [r5, #40]	; 0x28
 8000388:	4b19      	ldr	r3, [pc, #100]	; (80003f0 <esc_pwm_control+0x1ac>)
 800038a:	e8bd 4070 	ldmia.w	sp!, {r4, r5, r6, lr}
 800038e:	f853 0022 	ldr.w	r0, [r3, r2, lsl #2]
 8000392:	f000 bceb 	b.w	8000d6c <MCI_StopMotor>
 8000396:	f884 302e 	strb.w	r3, [r4, #46]	; 0x2e
 800039a:	62a3      	str	r3, [r4, #40]	; 0x28
 800039c:	61e3      	str	r3, [r4, #28]
 800039e:	f884 3031 	strb.w	r3, [r4, #49]	; 0x31
 80003a2:	e9c4 3305 	strd	r3, r3, [r4, #20]
 80003a6:	bd70      	pop	{r4, r5, r6, pc}
 80003a8:	8ce9      	ldrh	r1, [r5, #38]	; 0x26
 80003aa:	4a10      	ldr	r2, [pc, #64]	; (80003ec <esc_pwm_control+0x1a8>)
 80003ac:	f895 3028 	ldrb.w	r3, [r5, #40]	; 0x28
 80003b0:	4e0f      	ldr	r6, [pc, #60]	; (80003f0 <esc_pwm_control+0x1ac>)
 80003b2:	fba2 2101 	umull	r2, r1, r2, r1
 80003b6:	f856 0023 	ldr.w	r0, [r6, r3, lsl #2]
 80003ba:	2200      	movs	r2, #0
 80003bc:	0889      	lsrs	r1, r1, #2
 80003be:	f000 fca9 	bl	8000d14 <MCI_ExecSpeedRamp>
 80003c2:	f895 3028 	ldrb.w	r3, [r5, #40]	; 0x28
 80003c6:	f856 0023 	ldr.w	r0, [r6, r3, lsl #2]
 80003ca:	f000 fcc5 	bl	8000d58 <MCI_StartMotor>
 80003ce:	2800      	cmp	r0, #0
 80003d0:	bf14      	ite	ne
 80003d2:	2202      	movne	r2, #2
 80003d4:	2200      	moveq	r2, #0
 80003d6:	f44f 7348 	mov.w	r3, #800	; 0x320
 80003da:	f884 202e 	strb.w	r2, [r4, #46]	; 0x2e
 80003de:	85a3      	strh	r3, [r4, #44]	; 0x2c
 80003e0:	bd70      	pop	{r4, r5, r6, pc}
 80003e2:	461c      	mov	r4, r3
 80003e4:	e77b      	b.n	80002de <esc_pwm_control+0x9a>
 80003e6:	bf00      	nop
 80003e8:	40012c00 	.word	0x40012c00
 80003ec:	aaaaaaab 	.word	0xaaaaaaab
 80003f0:	20000ae0 	.word	0x20000ae0

080003f4 <TIM2_IRQHandler>:
 80003f4:	4928      	ldr	r1, [pc, #160]	; (8000498 <TIM2_IRQHandler+0xa4>)
 80003f6:	f04f 4080 	mov.w	r0, #1073741824	; 0x40000000
 80003fa:	b470      	push	{r4, r5, r6}
 80003fc:	694a      	ldr	r2, [r1, #20]
 80003fe:	f891 6031 	ldrb.w	r6, [r1, #49]	; 0x31
 8000402:	698b      	ldr	r3, [r1, #24]
 8000404:	f06f 0402 	mvn.w	r4, #2
 8000408:	6104      	str	r4, [r0, #16]
 800040a:	6b85      	ldr	r5, [r0, #56]	; 0x38
 800040c:	1c54      	adds	r4, r2, #1
 800040e:	bb06      	cbnz	r6, 8000452 <TIM2_IRQHandler+0x5e>
 8000410:	eb01 0282 	add.w	r2, r1, r2, lsl #2
 8000414:	2c03      	cmp	r4, #3
 8000416:	6055      	str	r5, [r2, #4]
 8000418:	bf88      	it	hi
 800041a:	2201      	movhi	r2, #1
 800041c:	442b      	add	r3, r5
 800041e:	bf92      	itee	ls
 8000420:	614c      	strls	r4, [r1, #20]
 8000422:	614e      	strhi	r6, [r1, #20]
 8000424:	f881 2031 	strbhi.w	r2, [r1, #49]	; 0x31
 8000428:	618b      	str	r3, [r1, #24]
 800042a:	fbb3 f3f4 	udiv	r3, r3, r4
 800042e:	f891 202f 	ldrb.w	r2, [r1, #47]	; 0x2f
 8000432:	2b00      	cmp	r3, #0
 8000434:	f102 0201 	add.w	r2, r2, #1
 8000438:	bf08      	it	eq
 800043a:	2301      	moveq	r3, #1
 800043c:	f012 02ff 	ands.w	r2, r2, #255	; 0xff
 8000440:	628b      	str	r3, [r1, #40]	; 0x28
 8000442:	bf0a      	itet	eq
 8000444:	2301      	moveq	r3, #1
 8000446:	f881 202f 	strbne.w	r2, [r1, #47]	; 0x2f
 800044a:	f881 302f 	strbeq.w	r3, [r1, #47]	; 0x2f
 800044e:	bc70      	pop	{r4, r5, r6}
 8000450:	4770      	bx	lr
 8000452:	eb01 0082 	add.w	r0, r1, r2, lsl #2
 8000456:	18ea      	adds	r2, r5, r3
 8000458:	6843      	ldr	r3, [r0, #4]
 800045a:	6045      	str	r5, [r0, #4]
 800045c:	e9d1 0501 	ldrd	r0, r5, [r1, #4]
 8000460:	68ce      	ldr	r6, [r1, #12]
 8000462:	42a8      	cmp	r0, r5
 8000464:	bf38      	it	cc
 8000466:	4628      	movcc	r0, r5
 8000468:	42b0      	cmp	r0, r6
 800046a:	690d      	ldr	r5, [r1, #16]
 800046c:	bf38      	it	cc
 800046e:	4630      	movcc	r0, r6
 8000470:	42a8      	cmp	r0, r5
 8000472:	bf38      	it	cc
 8000474:	4628      	movcc	r0, r5
 8000476:	2c03      	cmp	r4, #3
 8000478:	eba2 0303 	sub.w	r3, r2, r3
 800047c:	bf84      	itt	hi
 800047e:	2200      	movhi	r2, #0
 8000480:	614a      	strhi	r2, [r1, #20]
 8000482:	4a06      	ldr	r2, [pc, #24]	; (800049c <TIM2_IRQHandler+0xa8>)
 8000484:	618b      	str	r3, [r1, #24]
 8000486:	eba3 0300 	sub.w	r3, r3, r0
 800048a:	fba2 2303 	umull	r2, r3, r2, r3
 800048e:	bf98      	it	ls
 8000490:	614c      	strls	r4, [r1, #20]
 8000492:	085b      	lsrs	r3, r3, #1
 8000494:	e7cb      	b.n	800042e <TIM2_IRQHandler+0x3a>
 8000496:	bf00      	nop
 8000498:	200000c0 	.word	0x200000c0
 800049c:	aaaaaaab 	.word	0xaaaaaaab

080004a0 <SystemClock_Config>:
 80004a0:	b530      	push	{r4, r5, lr}
 80004a2:	2400      	movs	r4, #0
 80004a4:	b09f      	sub	sp, #124	; 0x7c
 80004a6:	4621      	mov	r1, r4
 80004a8:	a80f      	add	r0, sp, #60	; 0x3c
 80004aa:	223c      	movs	r2, #60	; 0x3c
 80004ac:	2502      	movs	r5, #2
 80004ae:	e9cd 4407 	strd	r4, r4, [sp, #28]
 80004b2:	e9cd 440a 	strd	r4, r4, [sp, #40]	; 0x28
 80004b6:	e9cd 4400 	strd	r4, r4, [sp]
 80004ba:	e9cd 4402 	strd	r4, r4, [sp, #8]
 80004be:	9404      	str	r4, [sp, #16]
 80004c0:	f008 fa34 	bl	800892c <memset>
 80004c4:	2201      	movs	r2, #1
 80004c6:	f44f 3380 	mov.w	r3, #65536	; 0x10000
 80004ca:	f44f 11e0 	mov.w	r1, #1835008	; 0x1c0000
 80004ce:	a805      	add	r0, sp, #20
 80004d0:	9205      	str	r2, [sp, #20]
 80004d2:	9209      	str	r2, [sp, #36]	; 0x24
 80004d4:	9306      	str	r3, [sp, #24]
 80004d6:	e9cd 530c 	strd	r5, r3, [sp, #48]	; 0x30
 80004da:	910e      	str	r1, [sp, #56]	; 0x38
 80004dc:	f004 f8ac 	bl	8004638 <HAL_RCC_OscConfig>
 80004e0:	220f      	movs	r2, #15
 80004e2:	4629      	mov	r1, r5
 80004e4:	f44f 6380 	mov.w	r3, #1024	; 0x400
 80004e8:	4668      	mov	r0, sp
 80004ea:	9200      	str	r2, [sp, #0]
 80004ec:	9303      	str	r3, [sp, #12]
 80004ee:	e9cd 5401 	strd	r5, r4, [sp, #4]
 80004f2:	9404      	str	r4, [sp, #16]
 80004f4:	f004 fb80 	bl	8004bf8 <HAL_RCC_ClockConfig>
 80004f8:	f241 0301 	movw	r3, #4097	; 0x1001
 80004fc:	a80f      	add	r0, sp, #60	; 0x3c
 80004fe:	9411      	str	r4, [sp, #68]	; 0x44
 8000500:	941b      	str	r4, [sp, #108]	; 0x6c
 8000502:	930f      	str	r3, [sp, #60]	; 0x3c
 8000504:	f004 fcc2 	bl	8004e8c <HAL_RCCEx_PeriphCLKConfig>
 8000508:	b01f      	add	sp, #124	; 0x7c
 800050a:	bd30      	pop	{r4, r5, pc}

0800050c <SPIread>:
 800050c:	b530      	push	{r4, r5, lr}
 800050e:	b085      	sub	sp, #20
 8000510:	2300      	movs	r3, #0
 8000512:	460d      	mov	r5, r1
 8000514:	f88d 0008 	strb.w	r0, [sp, #8]
 8000518:	461a      	mov	r2, r3
 800051a:	2401      	movs	r4, #1
 800051c:	f44f 4100 	mov.w	r1, #32768	; 0x8000
 8000520:	f04f 4090 	mov.w	r0, #1207959552	; 0x48000000
 8000524:	f88d 3009 	strb.w	r3, [sp, #9]
 8000528:	f88d 300a 	strb.w	r3, [sp, #10]
 800052c:	f88d 300b 	strb.w	r3, [sp, #11]
 8000530:	f88d 300c 	strb.w	r3, [sp, #12]
 8000534:	f004 f87a 	bl	800462c <HAL_GPIO_WritePin>
 8000538:	462a      	mov	r2, r5
 800053a:	2305      	movs	r3, #5
 800053c:	a902      	add	r1, sp, #8
 800053e:	9400      	str	r4, [sp, #0]
 8000540:	4805      	ldr	r0, [pc, #20]	; (8000558 <SPIread+0x4c>)
 8000542:	f004 fe83 	bl	800524c <HAL_SPI_TransmitReceive>
 8000546:	4622      	mov	r2, r4
 8000548:	f44f 4100 	mov.w	r1, #32768	; 0x8000
 800054c:	f04f 4090 	mov.w	r0, #1207959552	; 0x48000000
 8000550:	f004 f86c 	bl	800462c <HAL_GPIO_WritePin>
 8000554:	b005      	add	sp, #20
 8000556:	bd30      	pop	{r4, r5, pc}
 8000558:	2000095c 	.word	0x2000095c

0800055c <configureDriver>:
 800055c:	b5f0      	push	{r4, r5, r6, r7, lr}
 800055e:	4b3a      	ldr	r3, [pc, #232]	; (8000648 <configureDriver+0xec>)
 8000560:	4d3a      	ldr	r5, [pc, #232]	; (800064c <configureDriver+0xf0>)
 8000562:	781a      	ldrb	r2, [r3, #0]
 8000564:	789c      	ldrb	r4, [r3, #2]
 8000566:	785f      	ldrb	r7, [r3, #1]
 8000568:	78de      	ldrb	r6, [r3, #3]
 800056a:	b087      	sub	sp, #28
 800056c:	2380      	movs	r3, #128	; 0x80
 800056e:	f88d 2009 	strb.w	r2, [sp, #9]
 8000572:	f88d 400b 	strb.w	r4, [sp, #11]
 8000576:	2200      	movs	r2, #0
 8000578:	2401      	movs	r4, #1
 800057a:	f44f 4100 	mov.w	r1, #32768	; 0x8000
 800057e:	f04f 4090 	mov.w	r0, #1207959552	; 0x48000000
 8000582:	f88d 600c 	strb.w	r6, [sp, #12]
 8000586:	f88d 3008 	strb.w	r3, [sp, #8]
 800058a:	f88d 700a 	strb.w	r7, [sp, #10]
 800058e:	f004 f84d 	bl	800462c <HAL_GPIO_WritePin>
 8000592:	aa04      	add	r2, sp, #16
 8000594:	a902      	add	r1, sp, #8
 8000596:	2305      	movs	r3, #5
 8000598:	4628      	mov	r0, r5
 800059a:	9400      	str	r4, [sp, #0]
 800059c:	f004 fe56 	bl	800524c <HAL_SPI_TransmitReceive>
 80005a0:	4622      	mov	r2, r4
 80005a2:	f44f 4100 	mov.w	r1, #32768	; 0x8000
 80005a6:	f04f 4090 	mov.w	r0, #1207959552	; 0x48000000
 80005aa:	f004 f83f 	bl	800462c <HAL_GPIO_WritePin>
 80005ae:	4b28      	ldr	r3, [pc, #160]	; (8000650 <configureDriver+0xf4>)
 80005b0:	781a      	ldrb	r2, [r3, #0]
 80005b2:	7859      	ldrb	r1, [r3, #1]
 80005b4:	7898      	ldrb	r0, [r3, #2]
 80005b6:	f88d 2009 	strb.w	r2, [sp, #9]
 80005ba:	78db      	ldrb	r3, [r3, #3]
 80005bc:	f88d 100a 	strb.w	r1, [sp, #10]
 80005c0:	f88d 000b 	strb.w	r0, [sp, #11]
 80005c4:	2689      	movs	r6, #137	; 0x89
 80005c6:	2200      	movs	r2, #0
 80005c8:	f44f 4100 	mov.w	r1, #32768	; 0x8000
 80005cc:	f04f 4090 	mov.w	r0, #1207959552	; 0x48000000
 80005d0:	f88d 300c 	strb.w	r3, [sp, #12]
 80005d4:	f88d 6008 	strb.w	r6, [sp, #8]
 80005d8:	f004 f828 	bl	800462c <HAL_GPIO_WritePin>
 80005dc:	aa04      	add	r2, sp, #16
 80005de:	a902      	add	r1, sp, #8
 80005e0:	2305      	movs	r3, #5
 80005e2:	9400      	str	r4, [sp, #0]
 80005e4:	4628      	mov	r0, r5
 80005e6:	f004 fe31 	bl	800524c <HAL_SPI_TransmitReceive>
 80005ea:	4622      	mov	r2, r4
 80005ec:	f44f 4100 	mov.w	r1, #32768	; 0x8000
 80005f0:	f04f 4090 	mov.w	r0, #1207959552	; 0x48000000
 80005f4:	f004 f81a 	bl	800462c <HAL_GPIO_WritePin>
 80005f8:	4b16      	ldr	r3, [pc, #88]	; (8000654 <configureDriver+0xf8>)
 80005fa:	781a      	ldrb	r2, [r3, #0]
 80005fc:	7859      	ldrb	r1, [r3, #1]
 80005fe:	7898      	ldrb	r0, [r3, #2]
 8000600:	f88d 2009 	strb.w	r2, [sp, #9]
 8000604:	78db      	ldrb	r3, [r3, #3]
 8000606:	f88d 100a 	strb.w	r1, [sp, #10]
 800060a:	f88d 000b 	strb.w	r0, [sp, #11]
 800060e:	268a      	movs	r6, #138	; 0x8a
 8000610:	2200      	movs	r2, #0
 8000612:	f44f 4100 	mov.w	r1, #32768	; 0x8000
 8000616:	f04f 4090 	mov.w	r0, #1207959552	; 0x48000000
 800061a:	f88d 300c 	strb.w	r3, [sp, #12]
 800061e:	f88d 6008 	strb.w	r6, [sp, #8]
 8000622:	f004 f803 	bl	800462c <HAL_GPIO_WritePin>
 8000626:	aa04      	add	r2, sp, #16
 8000628:	a902      	add	r1, sp, #8
 800062a:	2305      	movs	r3, #5
 800062c:	9400      	str	r4, [sp, #0]
 800062e:	4628      	mov	r0, r5
 8000630:	f004 fe0c 	bl	800524c <HAL_SPI_TransmitReceive>
 8000634:	4622      	mov	r2, r4
 8000636:	f44f 4100 	mov.w	r1, #32768	; 0x8000
 800063a:	f04f 4090 	mov.w	r0, #1207959552	; 0x48000000
 800063e:	f003 fff5 	bl	800462c <HAL_GPIO_WritePin>
 8000642:	b007      	add	sp, #28
 8000644:	bdf0      	pop	{r4, r5, r6, r7, pc}
 8000646:	bf00      	nop
 8000648:	20000004 	.word	0x20000004
 800064c:	2000095c 	.word	0x2000095c
 8000650:	20000008 	.word	0x20000008
 8000654:	20000000 	.word	0x20000000

08000658 <resetDriver>:
 8000658:	b510      	push	{r4, lr}
 800065a:	4c09      	ldr	r4, [pc, #36]	; (8000680 <resetDriver+0x28>)
 800065c:	2200      	movs	r2, #0
 800065e:	4620      	mov	r0, r4
 8000660:	f44f 6180 	mov.w	r1, #1024	; 0x400
 8000664:	f003 ffe2 	bl	800462c <HAL_GPIO_WritePin>
 8000668:	2032      	movs	r0, #50	; 0x32
 800066a:	f002 ff77 	bl	800355c <HAL_Delay>
 800066e:	4620      	mov	r0, r4
 8000670:	2201      	movs	r2, #1
 8000672:	f44f 6180 	mov.w	r1, #1024	; 0x400
 8000676:	e8bd 4010 	ldmia.w	sp!, {r4, lr}
 800067a:	f003 bfd7 	b.w	800462c <HAL_GPIO_WritePin>
 800067e:	bf00      	nop
 8000680:	48000400 	.word	0x48000400

08000684 <main>:
 8000684:	e92d 4880 	stmdb	sp!, {r7, fp, lr}
 8000688:	2400      	movs	r4, #0
 800068a:	b0a3      	sub	sp, #140	; 0x8c
 800068c:	f002 ff42 	bl	8003514 <HAL_Init>
 8000690:	f7ff ff06 	bl	80004a0 <SystemClock_Config>
 8000694:	e9cd 4416 	strd	r4, r4, [sp, #88]	; 0x58
 8000698:	e9cd 4418 	strd	r4, r4, [sp, #96]	; 0x60
 800069c:	4acb      	ldr	r2, [pc, #812]	; (80009cc <main+0x348>)
 800069e:	941a      	str	r4, [sp, #104]	; 0x68
 80006a0:	6951      	ldr	r1, [r2, #20]
 80006a2:	4bcb      	ldr	r3, [pc, #812]	; (80009d0 <main+0x34c>)
 80006a4:	9303      	str	r3, [sp, #12]
 80006a6:	f441 0180 	orr.w	r1, r1, #4194304	; 0x400000
 80006aa:	6151      	str	r1, [r2, #20]
 80006ac:	6951      	ldr	r1, [r2, #20]
 80006ae:	48c9      	ldr	r0, [pc, #804]	; (80009d4 <main+0x350>)
 80006b0:	f8df b34c 	ldr.w	fp, [pc, #844]	; 8000a00 <main+0x37c>
 80006b4:	4ec8      	ldr	r6, [pc, #800]	; (80009d8 <main+0x354>)
 80006b6:	4fc9      	ldr	r7, [pc, #804]	; (80009dc <main+0x358>)
 80006b8:	f401 0180 	and.w	r1, r1, #4194304	; 0x400000
 80006bc:	9104      	str	r1, [sp, #16]
 80006be:	9904      	ldr	r1, [sp, #16]
 80006c0:	6951      	ldr	r1, [r2, #20]
 80006c2:	f441 3100 	orr.w	r1, r1, #131072	; 0x20000
 80006c6:	6151      	str	r1, [r2, #20]
 80006c8:	6951      	ldr	r1, [r2, #20]
 80006ca:	f401 3100 	and.w	r1, r1, #131072	; 0x20000
 80006ce:	9105      	str	r1, [sp, #20]
 80006d0:	9905      	ldr	r1, [sp, #20]
 80006d2:	6951      	ldr	r1, [r2, #20]
 80006d4:	f441 2180 	orr.w	r1, r1, #262144	; 0x40000
 80006d8:	6151      	str	r1, [r2, #20]
 80006da:	6952      	ldr	r2, [r2, #20]
 80006dc:	f402 2280 	and.w	r2, r2, #262144	; 0x40000
 80006e0:	9206      	str	r2, [sp, #24]
 80006e2:	f240 4104 	movw	r1, #1028	; 0x404
 80006e6:	4622      	mov	r2, r4
 80006e8:	9d06      	ldr	r5, [sp, #24]
 80006ea:	f003 ff9f 	bl	800462c <HAL_GPIO_WritePin>
 80006ee:	4622      	mov	r2, r4
 80006f0:	f44f 4100 	mov.w	r1, #32768	; 0x8000
 80006f4:	f04f 4090 	mov.w	r0, #1207959552	; 0x48000000
 80006f8:	2501      	movs	r5, #1
 80006fa:	f003 ff97 	bl	800462c <HAL_GPIO_WritePin>
 80006fe:	f04f 0804 	mov.w	r8, #4
 8000702:	f04f 0a02 	mov.w	sl, #2
 8000706:	a916      	add	r1, sp, #88	; 0x58
 8000708:	48b2      	ldr	r0, [pc, #712]	; (80009d4 <main+0x350>)
 800070a:	9419      	str	r4, [sp, #100]	; 0x64
 800070c:	e9cd 8516 	strd	r8, r5, [sp, #88]	; 0x58
 8000710:	f8cd a060 	str.w	sl, [sp, #96]	; 0x60
 8000714:	f003 fea8 	bl	8004468 <HAL_GPIO_Init>
 8000718:	f44f 6380 	mov.w	r3, #1024	; 0x400
 800071c:	a916      	add	r1, sp, #88	; 0x58
 800071e:	48ad      	ldr	r0, [pc, #692]	; (80009d4 <main+0x350>)
 8000720:	9316      	str	r3, [sp, #88]	; 0x58
 8000722:	e9cd 5417 	strd	r5, r4, [sp, #92]	; 0x5c
 8000726:	9419      	str	r4, [sp, #100]	; 0x64
 8000728:	f003 fe9e 	bl	8004468 <HAL_GPIO_Init>
 800072c:	f44f 5280 	mov.w	r2, #4096	; 0x1000
 8000730:	a916      	add	r1, sp, #88	; 0x58
 8000732:	48a8      	ldr	r0, [pc, #672]	; (80009d4 <main+0x350>)
 8000734:	9216      	str	r2, [sp, #88]	; 0x58
 8000736:	f04f 0903 	mov.w	r9, #3
 800073a:	e9cd 4417 	strd	r4, r4, [sp, #92]	; 0x5c
 800073e:	f003 fe93 	bl	8004468 <HAL_GPIO_Init>
 8000742:	f44f 4200 	mov.w	r2, #32768	; 0x8000
 8000746:	a916      	add	r1, sp, #88	; 0x58
 8000748:	f04f 4090 	mov.w	r0, #1207959552	; 0x48000000
 800074c:	9216      	str	r2, [sp, #88]	; 0x58
 800074e:	e9cd 5517 	strd	r5, r5, [sp, #92]	; 0x5c
 8000752:	f8cd 9064 	str.w	r9, [sp, #100]	; 0x64
 8000756:	f003 fe87 	bl	8004468 <HAL_GPIO_Init>
 800075a:	4621      	mov	r1, r4
 800075c:	2228      	movs	r2, #40	; 0x28
 800075e:	a816      	add	r0, sp, #88	; 0x58
 8000760:	e9cd 440a 	strd	r4, r4, [sp, #40]	; 0x28
 8000764:	940c      	str	r4, [sp, #48]	; 0x30
 8000766:	f008 f8e1 	bl	800892c <memset>
 800076a:	f44f 3380 	mov.w	r3, #65536	; 0x10000
 800076e:	f04f 42a0 	mov.w	r2, #1342177280	; 0x50000000
 8000772:	f8cb 3004 	str.w	r3, [fp, #4]
 8000776:	4658      	mov	r0, fp
 8000778:	2320      	movs	r3, #32
 800077a:	f8cb 2000 	str.w	r2, [fp]
 800077e:	f8cb 300c 	str.w	r3, [fp, #12]
 8000782:	f8cb 8014 	str.w	r8, [fp, #20]
 8000786:	f8cb 4008 	str.w	r4, [fp, #8]
 800078a:	f8cb 5010 	str.w	r5, [fp, #16]
 800078e:	f88b 4019 	strb.w	r4, [fp, #25]
 8000792:	f88b 4020 	strb.w	r4, [fp, #32]
 8000796:	e9cb 540a 	strd	r5, r4, [fp, #40]	; 0x28
 800079a:	f8cb 501c 	str.w	r5, [fp, #28]
 800079e:	f88b 4030 	strb.w	r4, [fp, #48]	; 0x30
 80007a2:	f88b 4018 	strb.w	r4, [fp, #24]
 80007a6:	f8cb 5034 	str.w	r5, [fp, #52]	; 0x34
 80007aa:	e9cd 440f 	strd	r4, r4, [sp, #60]	; 0x3c
 80007ae:	e9cd 4411 	strd	r4, r4, [sp, #68]	; 0x44
 80007b2:	e9cd 4413 	strd	r4, r4, [sp, #76]	; 0x4c
 80007b6:	f002 fee3 	bl	8003580 <HAL_ADC_Init>
 80007ba:	a90a      	add	r1, sp, #40	; 0x28
 80007bc:	4658      	mov	r0, fp
 80007be:	940a      	str	r4, [sp, #40]	; 0x28
 80007c0:	f003 fc30 	bl	8004024 <HAL_ADCEx_MultiModeConfigChannel>
 80007c4:	2200      	movs	r2, #0
 80007c6:	2340      	movs	r3, #64	; 0x40
 80007c8:	e9cd 231e 	strd	r2, r3, [sp, #120]	; 0x78
 80007cc:	2201      	movs	r2, #1
 80007ce:	2301      	movs	r3, #1
 80007d0:	e9cd 2316 	strd	r2, r3, [sp, #88]	; 0x58
 80007d4:	2203      	movs	r2, #3
 80007d6:	2300      	movs	r3, #0
 80007d8:	e9cd 2318 	strd	r2, r3, [sp, #96]	; 0x60
 80007dc:	a916      	add	r1, sp, #88	; 0x58
 80007de:	2200      	movs	r2, #0
 80007e0:	2300      	movs	r3, #0
 80007e2:	4658      	mov	r0, fp
 80007e4:	e9cd 231a 	strd	r2, r3, [sp, #104]	; 0x68
 80007e8:	f8cd 9070 	str.w	r9, [sp, #112]	; 0x70
 80007ec:	f88d 4075 	strb.w	r4, [sp, #117]	; 0x75
 80007f0:	f88d 4074 	strb.w	r4, [sp, #116]	; 0x74
 80007f4:	f88d 5076 	strb.w	r5, [sp, #118]	; 0x76
 80007f8:	f003 f9ea 	bl	8003bd0 <HAL_ADCEx_InjectedConfigChannel>
 80007fc:	a916      	add	r1, sp, #88	; 0x58
 80007fe:	4658      	mov	r0, fp
 8000800:	e9cd aa16 	strd	sl, sl, [sp, #88]	; 0x58
 8000804:	f003 f9e4 	bl	8003bd0 <HAL_ADCEx_InjectedConfigChannel>
 8000808:	a916      	add	r1, sp, #88	; 0x58
 800080a:	4658      	mov	r0, fp
 800080c:	e9cd 9916 	strd	r9, r9, [sp, #88]	; 0x58
 8000810:	f003 f9de 	bl	8003bd0 <HAL_ADCEx_InjectedConfigChannel>
 8000814:	4658      	mov	r0, fp
 8000816:	a90f      	add	r1, sp, #60	; 0x3c
 8000818:	e9cd 8411 	strd	r8, r4, [sp, #68]	; 0x44
 800081c:	e9cd 550f 	strd	r5, r5, [sp, #60]	; 0x3c
 8000820:	e9cd 4413 	strd	r4, r4, [sp, #76]	; 0x4c
 8000824:	f003 f82a 	bl	800387c <HAL_ADC_ConfigChannel>
 8000828:	9b03      	ldr	r3, [sp, #12]
 800082a:	4a6d      	ldr	r2, [pc, #436]	; (80009e0 <main+0x35c>)
 800082c:	601a      	str	r2, [r3, #0]
 800082e:	f44f 3180 	mov.w	r1, #65536	; 0x10000
 8000832:	e9c3 1401 	strd	r1, r4, [r3, #4]
 8000836:	4618      	mov	r0, r3
 8000838:	2120      	movs	r1, #32
 800083a:	60d9      	str	r1, [r3, #12]
 800083c:	f8c3 8014 	str.w	r8, [r3, #20]
 8000840:	611c      	str	r4, [r3, #16]
 8000842:	765c      	strb	r4, [r3, #25]
 8000844:	f883 4020 	strb.w	r4, [r3, #32]
 8000848:	e9c3 540a 	strd	r5, r4, [r3, #40]	; 0x28
 800084c:	61dd      	str	r5, [r3, #28]
 800084e:	f883 4030 	strb.w	r4, [r3, #48]	; 0x30
 8000852:	761c      	strb	r4, [r3, #24]
 8000854:	635d      	str	r5, [r3, #52]	; 0x34
 8000856:	940f      	str	r4, [sp, #60]	; 0x3c
 8000858:	e9cd 4410 	strd	r4, r4, [sp, #64]	; 0x40
 800085c:	e9cd 4416 	strd	r4, r4, [sp, #88]	; 0x58
 8000860:	e9cd 4418 	strd	r4, r4, [sp, #96]	; 0x60
 8000864:	e9cd 441a 	strd	r4, r4, [sp, #104]	; 0x68
 8000868:	f002 fe8a 	bl	8003580 <HAL_ADC_Init>
 800086c:	9b03      	ldr	r3, [sp, #12]
 800086e:	940f      	str	r4, [sp, #60]	; 0x3c
 8000870:	a90f      	add	r1, sp, #60	; 0x3c
 8000872:	4618      	mov	r0, r3
 8000874:	f003 fbd6 	bl	8004024 <HAL_ADCEx_MultiModeConfigChannel>
 8000878:	9b03      	ldr	r3, [sp, #12]
 800087a:	9517      	str	r5, [sp, #92]	; 0x5c
 800087c:	a916      	add	r1, sp, #88	; 0x58
 800087e:	4618      	mov	r0, r3
 8000880:	2305      	movs	r3, #5
 8000882:	e9cd 8418 	strd	r8, r4, [sp, #96]	; 0x60
 8000886:	9316      	str	r3, [sp, #88]	; 0x58
 8000888:	e9cd 441a 	strd	r4, r4, [sp, #104]	; 0x68
 800088c:	f002 fff6 	bl	800387c <HAL_ADC_ConfigChannel>
 8000890:	4b54      	ldr	r3, [pc, #336]	; (80009e4 <main+0x360>)
 8000892:	4a55      	ldr	r2, [pc, #340]	; (80009e8 <main+0x364>)
 8000894:	601a      	str	r2, [r3, #0]
 8000896:	f640 0b7f 	movw	fp, #2175	; 0x87f
 800089a:	2210      	movs	r2, #16
 800089c:	4618      	mov	r0, r3
 800089e:	605a      	str	r2, [r3, #4]
 80008a0:	f8c3 b00c 	str.w	fp, [r3, #12]
 80008a4:	609c      	str	r4, [r3, #8]
 80008a6:	e9c3 4404 	strd	r4, r4, [r3, #16]
 80008aa:	e9c3 4406 	strd	r4, r4, [r3, #24]
 80008ae:	e9c3 4408 	strd	r4, r4, [r3, #32]
 80008b2:	f003 fcc7 	bl	8004244 <HAL_COMP_Init>
 80008b6:	4b4d      	ldr	r3, [pc, #308]	; (80009ec <main+0x368>)
 80008b8:	4a4d      	ldr	r2, [pc, #308]	; (80009f0 <main+0x36c>)
 80008ba:	601a      	str	r2, [r3, #0]
 80008bc:	2110      	movs	r1, #16
 80008be:	4618      	mov	r0, r3
 80008c0:	6059      	str	r1, [r3, #4]
 80008c2:	e9c3 4b02 	strd	r4, fp, [r3, #8]
 80008c6:	e9c3 4404 	strd	r4, r4, [r3, #16]
 80008ca:	e9c3 4406 	strd	r4, r4, [r3, #24]
 80008ce:	e9c3 4408 	strd	r4, r4, [r3, #32]
 80008d2:	f003 fcb7 	bl	8004244 <HAL_COMP_Init>
 80008d6:	4b47      	ldr	r3, [pc, #284]	; (80009f4 <main+0x370>)
 80008d8:	4947      	ldr	r1, [pc, #284]	; (80009f8 <main+0x374>)
 80008da:	f8c3 b00c 	str.w	fp, [r3, #12]
 80008de:	f04f 0c80 	mov.w	ip, #128	; 0x80
 80008e2:	4618      	mov	r0, r3
 80008e4:	2210      	movs	r2, #16
 80008e6:	f8c3 c008 	str.w	ip, [r3, #8]
 80008ea:	605a      	str	r2, [r3, #4]
 80008ec:	6019      	str	r1, [r3, #0]
 80008ee:	e9c3 4404 	strd	r4, r4, [r3, #16]
 80008f2:	e9c3 4406 	strd	r4, r4, [r3, #24]
 80008f6:	e9c3 4408 	strd	r4, r4, [r3, #32]
 80008fa:	f003 fca3 	bl	8004244 <HAL_COMP_Init>
 80008fe:	4621      	mov	r1, r4
 8000900:	222c      	movs	r2, #44	; 0x2c
 8000902:	a816      	add	r0, sp, #88	; 0x58
 8000904:	e9cd 440a 	strd	r4, r4, [sp, #40]	; 0x28
 8000908:	e9cd 440c 	strd	r4, r4, [sp, #48]	; 0x30
 800090c:	940e      	str	r4, [sp, #56]	; 0x38
 800090e:	9407      	str	r4, [sp, #28]
 8000910:	e9cd 440f 	strd	r4, r4, [sp, #60]	; 0x3c
 8000914:	e9cd 4411 	strd	r4, r4, [sp, #68]	; 0x44
 8000918:	e9cd 4413 	strd	r4, r4, [sp, #76]	; 0x4c
 800091c:	9415      	str	r4, [sp, #84]	; 0x54
 800091e:	e9cd 4408 	strd	r4, r4, [sp, #32]
 8000922:	f008 f803 	bl	800892c <memset>
 8000926:	2320      	movs	r3, #32
 8000928:	60b3      	str	r3, [r6, #8]
 800092a:	f44f 7316 	mov.w	r3, #600	; 0x258
 800092e:	4a33      	ldr	r2, [pc, #204]	; (80009fc <main+0x378>)
 8000930:	60f3      	str	r3, [r6, #12]
 8000932:	4630      	mov	r0, r6
 8000934:	f44f 7380 	mov.w	r3, #256	; 0x100
 8000938:	6032      	str	r2, [r6, #0]
 800093a:	6133      	str	r3, [r6, #16]
 800093c:	f8c6 9014 	str.w	r9, [r6, #20]
 8000940:	6074      	str	r4, [r6, #4]
 8000942:	61b4      	str	r4, [r6, #24]
 8000944:	f004 fdf8 	bl	8005538 <HAL_TIM_Base_Init>
 8000948:	4630      	mov	r0, r6
 800094a:	f004 fe7f 	bl	800564c <HAL_TIM_PWM_Init>
 800094e:	2210      	movs	r2, #16
 8000950:	2306      	movs	r3, #6
 8000952:	a90a      	add	r1, sp, #40	; 0x28
 8000954:	4630      	mov	r0, r6
 8000956:	e9cd 320a 	strd	r3, r2, [sp, #40]	; 0x28
 800095a:	f005 fa19 	bl	8005d90 <HAL_TIM_SlaveConfigSynchro>
 800095e:	2370      	movs	r3, #112	; 0x70
 8000960:	a907      	add	r1, sp, #28
 8000962:	4630      	mov	r0, r6
 8000964:	9307      	str	r3, [sp, #28]
 8000966:	e9cd 4408 	strd	r4, r4, [sp, #32]
 800096a:	f005 fa8d 	bl	8005e88 <HAL_TIMEx_MasterConfigSynchronization>
 800096e:	2260      	movs	r2, #96	; 0x60
 8000970:	f44f 7300 	mov.w	r3, #512	; 0x200
 8000974:	f04f 0b08 	mov.w	fp, #8
 8000978:	a90f      	add	r1, sp, #60	; 0x3c
 800097a:	4630      	mov	r0, r6
 800097c:	920f      	str	r2, [sp, #60]	; 0x3c
 800097e:	4622      	mov	r2, r4
 8000980:	9315      	str	r3, [sp, #84]	; 0x54
 8000982:	f8cd b048 	str.w	fp, [sp, #72]	; 0x48
 8000986:	e9cd 4410 	strd	r4, r4, [sp, #64]	; 0x40
 800098a:	e9cd 4413 	strd	r4, r4, [sp, #76]	; 0x4c
 800098e:	f005 f82d 	bl	80059ec <HAL_TIM_PWM_ConfigChannel>
 8000992:	4642      	mov	r2, r8
 8000994:	a90f      	add	r1, sp, #60	; 0x3c
 8000996:	4630      	mov	r0, r6
 8000998:	f005 f828 	bl	80059ec <HAL_TIM_PWM_ConfigChannel>
 800099c:	465a      	mov	r2, fp
 800099e:	a90f      	add	r1, sp, #60	; 0x3c
 80009a0:	4630      	mov	r0, r6
 80009a2:	f005 f823 	bl	80059ec <HAL_TIM_PWM_ConfigChannel>
 80009a6:	f240 2c57 	movw	ip, #599	; 0x257
 80009aa:	2370      	movs	r3, #112	; 0x70
 80009ac:	a90f      	add	r1, sp, #60	; 0x3c
 80009ae:	4630      	mov	r0, r6
 80009b0:	220c      	movs	r2, #12
 80009b2:	930f      	str	r3, [sp, #60]	; 0x3c
 80009b4:	f8cd c040 	str.w	ip, [sp, #64]	; 0x40
 80009b8:	9415      	str	r4, [sp, #84]	; 0x54
 80009ba:	f005 f817 	bl	80059ec <HAL_TIM_PWM_ConfigChannel>
 80009be:	f44f 7380 	mov.w	r3, #256	; 0x100
 80009c2:	f44f 6280 	mov.w	r2, #1024	; 0x400
 80009c6:	f44f 6e00 	mov.w	lr, #2048	; 0x800
 80009ca:	e01b      	b.n	8000a04 <main+0x380>
 80009cc:	40021000 	.word	0x40021000
 80009d0:	20000808 	.word	0x20000808
 80009d4:	48000400 	.word	0x48000400
 80009d8:	200008ec 	.word	0x200008ec
 80009dc:	200009c0 	.word	0x200009c0
 80009e0:	50000400 	.word	0x50000400
 80009e4:	2000092c 	.word	0x2000092c
 80009e8:	40010020 	.word	0x40010020
 80009ec:	20000788 	.word	0x20000788
 80009f0:	40010028 	.word	0x40010028
 80009f4:	20000730 	.word	0x20000730
 80009f8:	40010030 	.word	0x40010030
 80009fc:	40012c00 	.word	0x40012c00
 8000a00:	200007b8 	.word	0x200007b8
 8000a04:	f44f 5c00 	mov.w	ip, #8192	; 0x2000
 8000a08:	f04f 0b19 	mov.w	fp, #25
 8000a0c:	a916      	add	r1, sp, #88	; 0x58
 8000a0e:	4630      	mov	r0, r6
 8000a10:	9318      	str	r3, [sp, #96]	; 0x60
 8000a12:	9217      	str	r2, [sp, #92]	; 0x5c
 8000a14:	f04f 7380 	mov.w	r3, #16777216	; 0x1000000
 8000a18:	f04f 7200 	mov.w	r2, #33554432	; 0x2000000
 8000a1c:	f8cd e058 	str.w	lr, [sp, #88]	; 0x58
 8000a20:	f8cd c06c 	str.w	ip, [sp, #108]	; 0x6c
 8000a24:	e9cd 321d 	strd	r3, r2, [sp, #116]	; 0x74
 8000a28:	f8cd 907c 	str.w	r9, [sp, #124]	; 0x7c
 8000a2c:	941a      	str	r4, [sp, #104]	; 0x68
 8000a2e:	941c      	str	r4, [sp, #112]	; 0x70
 8000a30:	9420      	str	r4, [sp, #128]	; 0x80
 8000a32:	f8cd b064 	str.w	fp, [sp, #100]	; 0x64
 8000a36:	f005 fa75 	bl	8005f24 <HAL_TIMEx_ConfigBreakDeadTime>
 8000a3a:	4630      	mov	r0, r6
 8000a3c:	f001 ff12 	bl	8002864 <HAL_TIM_MspPostInit>
 8000a40:	f04f 4180 	mov.w	r1, #1073741824	; 0x40000000
 8000a44:	f04f 32ff 	mov.w	r2, #4294967295
 8000a48:	4638      	mov	r0, r7
 8000a4a:	6039      	str	r1, [r7, #0]
 8000a4c:	60fa      	str	r2, [r7, #12]
 8000a4e:	e9c7 4401 	strd	r4, r4, [r7, #4]
 8000a52:	613c      	str	r4, [r7, #16]
 8000a54:	61bc      	str	r4, [r7, #24]
 8000a56:	e9cd 4416 	strd	r4, r4, [sp, #88]	; 0x58
 8000a5a:	e9cd 4418 	strd	r4, r4, [sp, #96]	; 0x60
 8000a5e:	941a      	str	r4, [sp, #104]	; 0x68
 8000a60:	e9cd 440a 	strd	r4, r4, [sp, #40]	; 0x28
 8000a64:	940c      	str	r4, [sp, #48]	; 0x30
 8000a66:	e9cd 440f 	strd	r4, r4, [sp, #60]	; 0x3c
 8000a6a:	e9cd 4411 	strd	r4, r4, [sp, #68]	; 0x44
 8000a6e:	f004 fd63 	bl	8005538 <HAL_TIM_Base_Init>
 8000a72:	4638      	mov	r0, r7
 8000a74:	f004 fe74 	bl	8005760 <HAL_TIM_IC_Init>
 8000a78:	2250      	movs	r2, #80	; 0x50
 8000a7a:	a916      	add	r1, sp, #88	; 0x58
 8000a7c:	4638      	mov	r0, r7
 8000a7e:	9217      	str	r2, [sp, #92]	; 0x5c
 8000a80:	f8cd 8058 	str.w	r8, [sp, #88]	; 0x58
 8000a84:	9418      	str	r4, [sp, #96]	; 0x60
 8000a86:	941a      	str	r4, [sp, #104]	; 0x68
 8000a88:	f005 f982 	bl	8005d90 <HAL_TIM_SlaveConfigSynchro>
 8000a8c:	a90a      	add	r1, sp, #40	; 0x28
 8000a8e:	4638      	mov	r0, r7
 8000a90:	940a      	str	r4, [sp, #40]	; 0x28
 8000a92:	940c      	str	r4, [sp, #48]	; 0x30
 8000a94:	f005 f9f8 	bl	8005e88 <HAL_TIMEx_MasterConfigSynchronization>
 8000a98:	4622      	mov	r2, r4
 8000a9a:	a90f      	add	r1, sp, #60	; 0x3c
 8000a9c:	4638      	mov	r0, r7
 8000a9e:	e9cd 450f 	strd	r4, r5, [sp, #60]	; 0x3c
 8000aa2:	e9cd 4411 	strd	r4, r4, [sp, #68]	; 0x44
 8000aa6:	f004 fee3 	bl	8005870 <HAL_TIM_IC_ConfigChannel>
 8000aaa:	4642      	mov	r2, r8
 8000aac:	a90f      	add	r1, sp, #60	; 0x3c
 8000aae:	4638      	mov	r0, r7
 8000ab0:	e9cd aa0f 	strd	sl, sl, [sp, #60]	; 0x3c
 8000ab4:	f004 fedc 	bl	8005870 <HAL_TIM_IC_ConfigChannel>
 8000ab8:	4a7f      	ldr	r2, [pc, #508]	; (8000cb8 <main+0x634>)
 8000aba:	4f80      	ldr	r7, [pc, #512]	; (8000cbc <main+0x638>)
 8000abc:	6094      	str	r4, [r2, #8]
 8000abe:	210c      	movs	r1, #12
 8000ac0:	4610      	mov	r0, r2
 8000ac2:	f44f 36e1 	mov.w	r6, #115200	; 0x1c200
 8000ac6:	e9c2 7600 	strd	r7, r6, [r2]
 8000aca:	6151      	str	r1, [r2, #20]
 8000acc:	e9c2 4403 	strd	r4, r4, [r2, #12]
 8000ad0:	e9c2 4406 	strd	r4, r4, [r2, #24]
 8000ad4:	e9c2 4408 	strd	r4, r4, [r2, #32]
 8000ad8:	f005 fac2 	bl	8006060 <HAL_UART_Init>
 8000adc:	f001 fab8 	bl	8002050 <MX_MotorControl_Init>
 8000ae0:	4a77      	ldr	r2, [pc, #476]	; (8000cc0 <main+0x63c>)
 8000ae2:	4e78      	ldr	r6, [pc, #480]	; (8000cc4 <main+0x640>)
 8000ae4:	4978      	ldr	r1, [pc, #480]	; (8000cc8 <main+0x644>)
 8000ae6:	6194      	str	r4, [r2, #24]
 8000ae8:	2310      	movs	r3, #16
 8000aea:	4610      	mov	r0, r2
 8000aec:	6053      	str	r3, [r2, #4]
 8000aee:	6011      	str	r1, [r2, #0]
 8000af0:	e9c2 4402 	strd	r4, r4, [r2, #8]
 8000af4:	e9c2 4404 	strd	r4, r4, [r2, #16]
 8000af8:	7714      	strb	r4, [r2, #28]
 8000afa:	7754      	strb	r4, [r2, #29]
 8000afc:	f003 fb20 	bl	8004140 <HAL_CAN_Init>
 8000b00:	4a72      	ldr	r2, [pc, #456]	; (8000ccc <main+0x648>)
 8000b02:	6032      	str	r2, [r6, #0]
 8000b04:	4630      	mov	r0, r6
 8000b06:	9416      	str	r4, [sp, #88]	; 0x58
 8000b08:	e9cd 4417 	strd	r4, r4, [sp, #92]	; 0x5c
 8000b0c:	f003 fc72 	bl	80043f4 <HAL_DAC_Init>
 8000b10:	4630      	mov	r0, r6
 8000b12:	4622      	mov	r2, r4
 8000b14:	a916      	add	r1, sp, #88	; 0x58
 8000b16:	e9cd 4416 	strd	r4, r4, [sp, #88]	; 0x58
 8000b1a:	f003 fc81 	bl	8004420 <HAL_DAC_ConfigChannel>
 8000b1e:	4a6c      	ldr	r2, [pc, #432]	; (8000cd0 <main+0x64c>)
 8000b20:	f44f 7300 	mov.w	r3, #512	; 0x200
 8000b24:	f04f 0c07 	mov.w	ip, #7
 8000b28:	6193      	str	r3, [r2, #24]
 8000b2a:	f44f 61e0 	mov.w	r1, #1792	; 0x700
 8000b2e:	2328      	movs	r3, #40	; 0x28
 8000b30:	f5a7 6700 	sub.w	r7, r7, #2048	; 0x800
 8000b34:	f44f 7682 	mov.w	r6, #260	; 0x104
 8000b38:	4610      	mov	r0, r2
 8000b3a:	61d3      	str	r3, [r2, #28]
 8000b3c:	f8c2 c02c 	str.w	ip, [r2, #44]	; 0x2c
 8000b40:	e9c2 7600 	strd	r7, r6, [r2]
 8000b44:	60d1      	str	r1, [r2, #12]
 8000b46:	e9c2 a504 	strd	sl, r5, [r2, #16]
 8000b4a:	6094      	str	r4, [r2, #8]
 8000b4c:	e9c2 4408 	strd	r4, r4, [r2, #32]
 8000b50:	6294      	str	r4, [r2, #40]	; 0x28
 8000b52:	e9c2 440c 	strd	r4, r4, [r2, #48]	; 0x30
 8000b56:	f004 fb0d 	bl	8005174 <HAL_SPI_Init>
 8000b5a:	4641      	mov	r1, r8
 8000b5c:	462a      	mov	r2, r5
 8000b5e:	2018      	movs	r0, #24
 8000b60:	f003 fbe4 	bl	800432c <HAL_NVIC_SetPriority>
 8000b64:	2018      	movs	r0, #24
 8000b66:	f003 fc17 	bl	8004398 <HAL_NVIC_EnableIRQ>
 8000b6a:	4622      	mov	r2, r4
 8000b6c:	4621      	mov	r1, r4
 8000b6e:	4658      	mov	r0, fp
 8000b70:	f003 fbdc 	bl	800432c <HAL_NVIC_SetPriority>
 8000b74:	4658      	mov	r0, fp
 8000b76:	f003 fc0f 	bl	8004398 <HAL_NVIC_EnableIRQ>
 8000b7a:	4622      	mov	r2, r4
 8000b7c:	4651      	mov	r1, sl
 8000b7e:	2012      	movs	r0, #18
 8000b80:	f003 fbd4 	bl	800432c <HAL_NVIC_SetPriority>
 8000b84:	2012      	movs	r0, #18
 8000b86:	f003 fc07 	bl	8004398 <HAL_NVIC_EnableIRQ>
 8000b8a:	462a      	mov	r2, r5
 8000b8c:	4649      	mov	r1, r9
 8000b8e:	2025      	movs	r0, #37	; 0x25
 8000b90:	f003 fbcc 	bl	800432c <HAL_NVIC_SetPriority>
 8000b94:	2025      	movs	r0, #37	; 0x25
 8000b96:	f003 fbff 	bl	8004398 <HAL_NVIC_EnableIRQ>
 8000b9a:	4622      	mov	r2, r4
 8000b9c:	4649      	mov	r1, r9
 8000b9e:	201c      	movs	r0, #28
 8000ba0:	f003 fbc4 	bl	800432c <HAL_NVIC_SetPriority>
 8000ba4:	201c      	movs	r0, #28
 8000ba6:	f003 fbf7 	bl	8004398 <HAL_NVIC_EnableIRQ>
 8000baa:	4f4a      	ldr	r7, [pc, #296]	; (8000cd4 <main+0x650>)
 8000bac:	484a      	ldr	r0, [pc, #296]	; (8000cd8 <main+0x654>)
 8000bae:	4e4b      	ldr	r6, [pc, #300]	; (8000cdc <main+0x658>)
 8000bb0:	4680      	mov	r8, r0
 8000bb2:	f7ff fb33 	bl	800021c <esc_boot>
 8000bb6:	f7ff fd4f 	bl	8000658 <resetDriver>
 8000bba:	f7ff fccf 	bl	800055c <configureDriver>
 8000bbe:	4620      	mov	r0, r4
 8000bc0:	4639      	mov	r1, r7
 8000bc2:	f7ff fca3 	bl	800050c <SPIread>
 8000bc6:	4639      	mov	r1, r7
 8000bc8:	2009      	movs	r0, #9
 8000bca:	f7ff fc9f 	bl	800050c <SPIread>
 8000bce:	4639      	mov	r1, r7
 8000bd0:	200a      	movs	r0, #10
 8000bd2:	f7ff fc9b 	bl	800050c <SPIread>
 8000bd6:	4640      	mov	r0, r8
 8000bd8:	f7ff fb34 	bl	8000244 <esc_pwm_control>
 8000bdc:	f44f 5180 	mov.w	r1, #4096	; 0x1000
 8000be0:	4630      	mov	r0, r6
 8000be2:	f003 fd1d 	bl	8004620 <HAL_GPIO_ReadPin>
 8000be6:	2401      	movs	r4, #1
 8000be8:	2500      	movs	r5, #0
 8000bea:	4622      	mov	r2, r4
 8000bec:	2104      	movs	r1, #4
 8000bee:	2800      	cmp	r0, #0
 8000bf0:	d05b      	beq.n	8000caa <main+0x626>
 8000bf2:	4630      	mov	r0, r6
 8000bf4:	f003 fd1a 	bl	800462c <HAL_GPIO_WritePin>
 8000bf8:	2304      	movs	r3, #4
 8000bfa:	462a      	mov	r2, r5
 8000bfc:	f44f 4100 	mov.w	r1, #32768	; 0x8000
 8000c00:	f04f 4090 	mov.w	r0, #1207959552	; 0x48000000
 8000c04:	9316      	str	r3, [sp, #88]	; 0x58
 8000c06:	f88d 505c 	strb.w	r5, [sp, #92]	; 0x5c
 8000c0a:	f003 fd0f 	bl	800462c <HAL_GPIO_WritePin>
 8000c0e:	2305      	movs	r3, #5
 8000c10:	463a      	mov	r2, r7
 8000c12:	a916      	add	r1, sp, #88	; 0x58
 8000c14:	9400      	str	r4, [sp, #0]
 8000c16:	482e      	ldr	r0, [pc, #184]	; (8000cd0 <main+0x64c>)
 8000c18:	f004 fb18 	bl	800524c <HAL_SPI_TransmitReceive>
 8000c1c:	4622      	mov	r2, r4
 8000c1e:	f44f 4100 	mov.w	r1, #32768	; 0x8000
 8000c22:	f04f 4090 	mov.w	r0, #1207959552	; 0x48000000
 8000c26:	f003 fd01 	bl	800462c <HAL_GPIO_WritePin>
 8000c2a:	462a      	mov	r2, r5
 8000c2c:	f44f 4100 	mov.w	r1, #32768	; 0x8000
 8000c30:	f04f 4090 	mov.w	r0, #1207959552	; 0x48000000
 8000c34:	9416      	str	r4, [sp, #88]	; 0x58
 8000c36:	f88d 505c 	strb.w	r5, [sp, #92]	; 0x5c
 8000c3a:	f003 fcf7 	bl	800462c <HAL_GPIO_WritePin>
 8000c3e:	2305      	movs	r3, #5
 8000c40:	463a      	mov	r2, r7
 8000c42:	a916      	add	r1, sp, #88	; 0x58
 8000c44:	9400      	str	r4, [sp, #0]
 8000c46:	4822      	ldr	r0, [pc, #136]	; (8000cd0 <main+0x64c>)
 8000c48:	f004 fb00 	bl	800524c <HAL_SPI_TransmitReceive>
 8000c4c:	4622      	mov	r2, r4
 8000c4e:	f44f 4100 	mov.w	r1, #32768	; 0x8000
 8000c52:	f04f 4090 	mov.w	r0, #1207959552	; 0x48000000
 8000c56:	f003 fce9 	bl	800462c <HAL_GPIO_WritePin>
 8000c5a:	462a      	mov	r2, r5
 8000c5c:	f44f 6180 	mov.w	r1, #1024	; 0x400
 8000c60:	4630      	mov	r0, r6
 8000c62:	f003 fce3 	bl	800462c <HAL_GPIO_WritePin>
 8000c66:	2032      	movs	r0, #50	; 0x32
 8000c68:	f002 fc78 	bl	800355c <HAL_Delay>
 8000c6c:	4622      	mov	r2, r4
 8000c6e:	4630      	mov	r0, r6
 8000c70:	f44f 6180 	mov.w	r1, #1024	; 0x400
 8000c74:	f003 fcda 	bl	800462c <HAL_GPIO_WritePin>
 8000c78:	462a      	mov	r2, r5
 8000c7a:	f44f 4100 	mov.w	r1, #32768	; 0x8000
 8000c7e:	f04f 4090 	mov.w	r0, #1207959552	; 0x48000000
 8000c82:	9416      	str	r4, [sp, #88]	; 0x58
 8000c84:	f88d 505c 	strb.w	r5, [sp, #92]	; 0x5c
 8000c88:	f003 fcd0 	bl	800462c <HAL_GPIO_WritePin>
 8000c8c:	463a      	mov	r2, r7
 8000c8e:	a916      	add	r1, sp, #88	; 0x58
 8000c90:	9400      	str	r4, [sp, #0]
 8000c92:	2305      	movs	r3, #5
 8000c94:	480e      	ldr	r0, [pc, #56]	; (8000cd0 <main+0x64c>)
 8000c96:	f004 fad9 	bl	800524c <HAL_SPI_TransmitReceive>
 8000c9a:	4622      	mov	r2, r4
 8000c9c:	f44f 4100 	mov.w	r1, #32768	; 0x8000
 8000ca0:	f04f 4090 	mov.w	r0, #1207959552	; 0x48000000
 8000ca4:	f003 fcc2 	bl	800462c <HAL_GPIO_WritePin>
 8000ca8:	e795      	b.n	8000bd6 <main+0x552>
 8000caa:	4602      	mov	r2, r0
 8000cac:	2104      	movs	r1, #4
 8000cae:	4630      	mov	r0, r6
 8000cb0:	f003 fcbc 	bl	800462c <HAL_GPIO_WritePin>
 8000cb4:	e78f      	b.n	8000bd6 <main+0x552>
 8000cb6:	bf00      	nop
 8000cb8:	20000858 	.word	0x20000858
 8000cbc:	40013800 	.word	0x40013800
 8000cc0:	20000760 	.word	0x20000760
 8000cc4:	200008d8 	.word	0x200008d8
 8000cc8:	40006400 	.word	0x40006400
 8000ccc:	40007400 	.word	0x40007400
 8000cd0:	2000095c 	.word	0x2000095c
 8000cd4:	20000728 	.word	0x20000728
 8000cd8:	200000c0 	.word	0x200000c0
 8000cdc:	48000400 	.word	0x48000400

08000ce0 <MC_AcknowledgeFaultMotor1>:
 8000ce0:	4b01      	ldr	r3, [pc, #4]	; (8000ce8 <MC_AcknowledgeFaultMotor1+0x8>)
 8000ce2:	6818      	ldr	r0, [r3, #0]
 8000ce4:	f000 b846 	b.w	8000d74 <MCI_FaultAcknowledged>
 8000ce8:	20000ae0 	.word	0x20000ae0

08000cec <MC_GetSTMStateMotor1>:
 8000cec:	4b01      	ldr	r3, [pc, #4]	; (8000cf4 <MC_GetSTMStateMotor1+0x8>)
 8000cee:	6818      	ldr	r0, [r3, #0]
 8000cf0:	f000 b882 	b.w	8000df8 <MCI_GetSTMState>
 8000cf4:	20000ae0 	.word	0x20000ae0

08000cf8 <MCI_Init>:
 8000cf8:	b410      	push	{r4}
 8000cfa:	2400      	movs	r4, #0
 8000cfc:	7304      	strb	r4, [r0, #12]
 8000cfe:	f8c0 400e 	str.w	r4, [r0, #14]
 8000d02:	82c4      	strh	r4, [r0, #22]
 8000d04:	7604      	strb	r4, [r0, #24]
 8000d06:	e9c0 1200 	strd	r1, r2, [r0]
 8000d0a:	6083      	str	r3, [r0, #8]
 8000d0c:	f85d 4b04 	ldr.w	r4, [sp], #4
 8000d10:	4770      	bx	lr
 8000d12:	bf00      	nop

08000d14 <MCI_ExecSpeedRamp>:
 8000d14:	2301      	movs	r3, #1
 8000d16:	81c1      	strh	r1, [r0, #14]
 8000d18:	82c2      	strh	r2, [r0, #22]
 8000d1a:	7303      	strb	r3, [r0, #12]
 8000d1c:	7603      	strb	r3, [r0, #24]
 8000d1e:	7643      	strb	r3, [r0, #25]
 8000d20:	4770      	bx	lr
 8000d22:	bf00      	nop

08000d24 <MCI_ExecTorqueRamp>:
 8000d24:	b430      	push	{r4, r5}
 8000d26:	2300      	movs	r3, #0
 8000d28:	2502      	movs	r5, #2
 8000d2a:	2401      	movs	r4, #1
 8000d2c:	7305      	strb	r5, [r0, #12]
 8000d2e:	7604      	strb	r4, [r0, #24]
 8000d30:	8201      	strh	r1, [r0, #16]
 8000d32:	82c2      	strh	r2, [r0, #22]
 8000d34:	7643      	strb	r3, [r0, #25]
 8000d36:	bc30      	pop	{r4, r5}
 8000d38:	4770      	bx	lr
 8000d3a:	bf00      	nop

08000d3c <MCI_SetCurrentReferences>:
 8000d3c:	b410      	push	{r4}
 8000d3e:	2201      	movs	r2, #1
 8000d40:	b083      	sub	sp, #12
 8000d42:	2403      	movs	r4, #3
 8000d44:	2300      	movs	r3, #0
 8000d46:	f8c0 1012 	str.w	r1, [r0, #18]
 8000d4a:	7304      	strb	r4, [r0, #12]
 8000d4c:	7602      	strb	r2, [r0, #24]
 8000d4e:	7643      	strb	r3, [r0, #25]
 8000d50:	b003      	add	sp, #12
 8000d52:	f85d 4b04 	ldr.w	r4, [sp], #4
 8000d56:	4770      	bx	lr

08000d58 <MCI_StartMotor>:
 8000d58:	b510      	push	{r4, lr}
 8000d5a:	2103      	movs	r1, #3
 8000d5c:	4604      	mov	r4, r0
 8000d5e:	6800      	ldr	r0, [r0, #0]
 8000d60:	f006 ff1e 	bl	8007ba0 <STM_NextState>
 8000d64:	b108      	cbz	r0, 8000d6a <MCI_StartMotor+0x12>
 8000d66:	2301      	movs	r3, #1
 8000d68:	7623      	strb	r3, [r4, #24]
 8000d6a:	bd10      	pop	{r4, pc}

08000d6c <MCI_StopMotor>:
 8000d6c:	6800      	ldr	r0, [r0, #0]
 8000d6e:	2107      	movs	r1, #7
 8000d70:	f006 bf16 	b.w	8007ba0 <STM_NextState>

08000d74 <MCI_FaultAcknowledged>:
 8000d74:	6800      	ldr	r0, [r0, #0]
 8000d76:	f006 bf89 	b.w	8007c8c <STM_FaultAcknowledged>
 8000d7a:	bf00      	nop

08000d7c <MCI_EncoderAlign>:
 8000d7c:	6800      	ldr	r0, [r0, #0]
 8000d7e:	2101      	movs	r1, #1
 8000d80:	f006 bf0e 	b.w	8007ba0 <STM_NextState>

08000d84 <MCI_ExecBufferedCommands>:
 8000d84:	b110      	cbz	r0, 8000d8c <MCI_ExecBufferedCommands+0x8>
 8000d86:	7e03      	ldrb	r3, [r0, #24]
 8000d88:	2b01      	cmp	r3, #1
 8000d8a:	d000      	beq.n	8000d8e <MCI_ExecBufferedCommands+0xa>
 8000d8c:	4770      	bx	lr
 8000d8e:	7b01      	ldrb	r1, [r0, #12]
 8000d90:	2902      	cmp	r1, #2
 8000d92:	b510      	push	{r4, lr}
 8000d94:	4604      	mov	r4, r0
 8000d96:	d01f      	beq.n	8000dd8 <MCI_ExecBufferedCommands+0x54>
 8000d98:	2903      	cmp	r1, #3
 8000d9a:	d004      	beq.n	8000da6 <MCI_ExecBufferedCommands+0x22>
 8000d9c:	2901      	cmp	r1, #1
 8000d9e:	d00b      	beq.n	8000db8 <MCI_ExecBufferedCommands+0x34>
 8000da0:	2303      	movs	r3, #3
 8000da2:	7623      	strb	r3, [r4, #24]
 8000da4:	bd10      	pop	{r4, pc}
 8000da6:	6882      	ldr	r2, [r0, #8]
 8000da8:	f8d0 1012 	ldr.w	r1, [r0, #18]
 8000dac:	6111      	str	r1, [r2, #16]
 8000dae:	f882 3024 	strb.w	r3, [r2, #36]	; 0x24
 8000db2:	2302      	movs	r3, #2
 8000db4:	7623      	strb	r3, [r4, #24]
 8000db6:	bd10      	pop	{r4, pc}
 8000db8:	e9d0 0301 	ldrd	r0, r3, [r0, #4]
 8000dbc:	2200      	movs	r2, #0
 8000dbe:	f883 2024 	strb.w	r2, [r3, #36]	; 0x24
 8000dc2:	f006 fe2d 	bl	8007a20 <STC_SetControlMode>
 8000dc6:	8ae2      	ldrh	r2, [r4, #22]
 8000dc8:	f9b4 100e 	ldrsh.w	r1, [r4, #14]
 8000dcc:	6860      	ldr	r0, [r4, #4]
 8000dce:	f006 fe2b 	bl	8007a28 <STC_ExecRamp>
 8000dd2:	2800      	cmp	r0, #0
 8000dd4:	d0e4      	beq.n	8000da0 <MCI_ExecBufferedCommands+0x1c>
 8000dd6:	e7ec      	b.n	8000db2 <MCI_ExecBufferedCommands+0x2e>
 8000dd8:	e9d0 0301 	ldrd	r0, r3, [r0, #4]
 8000ddc:	2100      	movs	r1, #0
 8000dde:	f883 1024 	strb.w	r1, [r3, #36]	; 0x24
 8000de2:	f006 fe1d 	bl	8007a20 <STC_SetControlMode>
 8000de6:	8ae2      	ldrh	r2, [r4, #22]
 8000de8:	f9b4 1010 	ldrsh.w	r1, [r4, #16]
 8000dec:	6860      	ldr	r0, [r4, #4]
 8000dee:	f006 fe1b 	bl	8007a28 <STC_ExecRamp>
 8000df2:	2800      	cmp	r0, #0
 8000df4:	d0d4      	beq.n	8000da0 <MCI_ExecBufferedCommands+0x1c>
 8000df6:	e7dc      	b.n	8000db2 <MCI_ExecBufferedCommands+0x2e>

08000df8 <MCI_GetSTMState>:
 8000df8:	6800      	ldr	r0, [r0, #0]
 8000dfa:	f006 bf45 	b.w	8007c88 <STM_GetState>
 8000dfe:	bf00      	nop

08000e00 <MCI_GetControlMode>:
 8000e00:	7e40      	ldrb	r0, [r0, #25]
 8000e02:	4770      	bx	lr

08000e04 <MCI_GetImposedMotorDirection>:
 8000e04:	7b03      	ldrb	r3, [r0, #12]
 8000e06:	2b02      	cmp	r3, #2
 8000e08:	d015      	beq.n	8000e36 <MCI_GetImposedMotorDirection+0x32>
 8000e0a:	2b03      	cmp	r3, #3
 8000e0c:	d00b      	beq.n	8000e26 <MCI_GetImposedMotorDirection+0x22>
 8000e0e:	2b01      	cmp	r3, #1
 8000e10:	d001      	beq.n	8000e16 <MCI_GetImposedMotorDirection+0x12>
 8000e12:	2001      	movs	r0, #1
 8000e14:	4770      	bx	lr
 8000e16:	f9b0 300e 	ldrsh.w	r3, [r0, #14]
 8000e1a:	2b00      	cmp	r3, #0
 8000e1c:	bfac      	ite	ge
 8000e1e:	2001      	movge	r0, #1
 8000e20:	f04f 30ff 	movlt.w	r0, #4294967295
 8000e24:	4770      	bx	lr
 8000e26:	f9b0 3012 	ldrsh.w	r3, [r0, #18]
 8000e2a:	2b00      	cmp	r3, #0
 8000e2c:	bfac      	ite	ge
 8000e2e:	2001      	movge	r0, #1
 8000e30:	f04f 30ff 	movlt.w	r0, #4294967295
 8000e34:	4770      	bx	lr
 8000e36:	f9b0 3010 	ldrsh.w	r3, [r0, #16]
 8000e3a:	2b00      	cmp	r3, #0
 8000e3c:	bfac      	ite	ge
 8000e3e:	2001      	movge	r0, #1
 8000e40:	f04f 30ff 	movlt.w	r0, #4294967295
 8000e44:	4770      	bx	lr
 8000e46:	bf00      	nop

08000e48 <MCI_GetLastRampFinalSpeed>:
 8000e48:	7b03      	ldrb	r3, [r0, #12]
 8000e4a:	2b01      	cmp	r3, #1
 8000e4c:	bf0c      	ite	eq
 8000e4e:	f9b0 000e 	ldrsheq.w	r0, [r0, #14]
 8000e52:	2000      	movne	r0, #0
 8000e54:	4770      	bx	lr
 8000e56:	bf00      	nop

08000e58 <MCI_StopRamp>:
 8000e58:	6840      	ldr	r0, [r0, #4]
 8000e5a:	f006 be2f 	b.w	8007abc <STC_StopRamp>
 8000e5e:	bf00      	nop

08000e60 <MCI_GetAvrgMecSpeedUnit>:
 8000e60:	b508      	push	{r3, lr}
 8000e62:	6840      	ldr	r0, [r0, #4]
 8000e64:	f006 fdc2 	bl	80079ec <STC_GetSpeedSensor>
 8000e68:	e8bd 4008 	ldmia.w	sp!, {r3, lr}
 8000e6c:	f006 bd66 	b.w	800793c <SPD_GetAvrgMecSpeedUnit>

08000e70 <MCI_GetMecSpeedRefUnit>:
 8000e70:	6840      	ldr	r0, [r0, #4]
 8000e72:	f006 bdc5 	b.w	8007a00 <STC_GetMecSpeedRefUnit>
 8000e76:	bf00      	nop

08000e78 <MCI_GetIab>:
 8000e78:	6883      	ldr	r3, [r0, #8]
 8000e7a:	6818      	ldr	r0, [r3, #0]
 8000e7c:	b283      	uxth	r3, r0
 8000e7e:	b082      	sub	sp, #8
 8000e80:	f363 000f 	bfi	r0, r3, #0, #16
 8000e84:	b002      	add	sp, #8
 8000e86:	4770      	bx	lr

08000e88 <MCI_GetIalphabeta>:
 8000e88:	6883      	ldr	r3, [r0, #8]
 8000e8a:	6858      	ldr	r0, [r3, #4]
 8000e8c:	b283      	uxth	r3, r0
 8000e8e:	b082      	sub	sp, #8
 8000e90:	f363 000f 	bfi	r0, r3, #0, #16
 8000e94:	b002      	add	sp, #8
 8000e96:	4770      	bx	lr

08000e98 <MCI_GetIqd>:
 8000e98:	6883      	ldr	r3, [r0, #8]
 8000e9a:	68d8      	ldr	r0, [r3, #12]
 8000e9c:	b283      	uxth	r3, r0
 8000e9e:	b082      	sub	sp, #8
 8000ea0:	f363 000f 	bfi	r0, r3, #0, #16
 8000ea4:	b002      	add	sp, #8
 8000ea6:	4770      	bx	lr

08000ea8 <MCI_GetIqdref>:
 8000ea8:	6883      	ldr	r3, [r0, #8]
 8000eaa:	6918      	ldr	r0, [r3, #16]
 8000eac:	b283      	uxth	r3, r0
 8000eae:	b082      	sub	sp, #8
 8000eb0:	f363 000f 	bfi	r0, r3, #0, #16
 8000eb4:	b002      	add	sp, #8
 8000eb6:	4770      	bx	lr

08000eb8 <MCI_GetVqd>:
 8000eb8:	6883      	ldr	r3, [r0, #8]
 8000eba:	f8d3 0016 	ldr.w	r0, [r3, #22]
 8000ebe:	b283      	uxth	r3, r0
 8000ec0:	b082      	sub	sp, #8
 8000ec2:	f363 000f 	bfi	r0, r3, #0, #16
 8000ec6:	b002      	add	sp, #8
 8000ec8:	4770      	bx	lr
 8000eca:	bf00      	nop

08000ecc <MCI_GetValphabeta>:
 8000ecc:	6883      	ldr	r3, [r0, #8]
 8000ece:	f8d3 001a 	ldr.w	r0, [r3, #26]
 8000ed2:	b283      	uxth	r3, r0
 8000ed4:	b082      	sub	sp, #8
 8000ed6:	f363 000f 	bfi	r0, r3, #0, #16
 8000eda:	b002      	add	sp, #8
 8000edc:	4770      	bx	lr
 8000ede:	bf00      	nop

08000ee0 <MCI_GetTeref>:
 8000ee0:	6883      	ldr	r3, [r0, #8]
 8000ee2:	f9b3 001e 	ldrsh.w	r0, [r3, #30]
 8000ee6:	4770      	bx	lr

08000ee8 <MCI_SetIdref>:
 8000ee8:	6883      	ldr	r3, [r0, #8]
 8000eea:	8259      	strh	r1, [r3, #18]
 8000eec:	8299      	strh	r1, [r3, #20]
 8000eee:	4770      	bx	lr

08000ef0 <MCI_Clear_Iqdref>:
 8000ef0:	b510      	push	{r4, lr}
 8000ef2:	e9d0 0401 	ldrd	r0, r4, [r0, #4]
 8000ef6:	f006 fe1f 	bl	8007b38 <STC_GetDefaultIqdref>
 8000efa:	f3c0 430f 	ubfx	r3, r0, #16, #16
 8000efe:	8220      	strh	r0, [r4, #16]
 8000f00:	8263      	strh	r3, [r4, #18]
 8000f02:	bd10      	pop	{r4, pc}

08000f04 <MCM_Clarke>:
 8000f04:	f644 11e6 	movw	r1, #18918	; 0x49e6
 8000f08:	b202      	sxth	r2, r0
 8000f0a:	f3c0 430f 	ubfx	r3, r0, #16, #16
 8000f0e:	fb12 f001 	smulbb	r0, r2, r1
 8000f12:	fb13 f301 	smulbb	r3, r3, r1
 8000f16:	4240      	negs	r0, r0
 8000f18:	eba0 0043 	sub.w	r0, r0, r3, lsl #1
 8000f1c:	13c0      	asrs	r0, r0, #15
 8000f1e:	f5b0 4f00 	cmp.w	r0, #32768	; 0x8000
 8000f22:	b084      	sub	sp, #16
 8000f24:	da04      	bge.n	8000f30 <MCM_Clarke+0x2c>
 8000f26:	f510 4f00 	cmn.w	r0, #32768	; 0x8000
 8000f2a:	da0c      	bge.n	8000f46 <MCM_Clarke+0x42>
 8000f2c:	4b07      	ldr	r3, [pc, #28]	; (8000f4c <MCM_Clarke+0x48>)
 8000f2e:	e001      	b.n	8000f34 <MCM_Clarke+0x30>
 8000f30:	f647 73ff 	movw	r3, #32767	; 0x7fff
 8000f34:	b292      	uxth	r2, r2
 8000f36:	2000      	movs	r0, #0
 8000f38:	b29b      	uxth	r3, r3
 8000f3a:	f362 000f 	bfi	r0, r2, #0, #16
 8000f3e:	f363 401f 	bfi	r0, r3, #16, #16
 8000f42:	b004      	add	sp, #16
 8000f44:	4770      	bx	lr
 8000f46:	b203      	sxth	r3, r0
 8000f48:	d1f4      	bne.n	8000f34 <MCM_Clarke+0x30>
 8000f4a:	e7ef      	b.n	8000f2c <MCM_Clarke+0x28>
 8000f4c:	ffff8001 	.word	0xffff8001

08000f50 <MCM_Trig_Functions>:
 8000f50:	f500 4000 	add.w	r0, r0, #32768	; 0x8000
 8000f54:	f3c0 1089 	ubfx	r0, r0, #6, #10
 8000f58:	f400 7140 	and.w	r1, r0, #768	; 0x300
 8000f5c:	f5b1 7f80 	cmp.w	r1, #256	; 0x100
 8000f60:	b082      	sub	sp, #8
 8000f62:	d031      	beq.n	8000fc8 <MCM_Trig_Functions+0x78>
 8000f64:	d921      	bls.n	8000faa <MCM_Trig_Functions+0x5a>
 8000f66:	f5b1 7f00 	cmp.w	r1, #512	; 0x200
 8000f6a:	d015      	beq.n	8000f98 <MCM_Trig_Functions+0x48>
 8000f6c:	f5b1 7f40 	cmp.w	r1, #768	; 0x300
 8000f70:	d109      	bne.n	8000f86 <MCM_Trig_Functions+0x36>
 8000f72:	b2c0      	uxtb	r0, r0
 8000f74:	491a      	ldr	r1, [pc, #104]	; (8000fe0 <MCM_Trig_Functions+0x90>)
 8000f76:	43c3      	mvns	r3, r0
 8000f78:	f831 2010 	ldrh.w	r2, [r1, r0, lsl #1]
 8000f7c:	b2db      	uxtb	r3, r3
 8000f7e:	4252      	negs	r2, r2
 8000f80:	f931 3013 	ldrsh.w	r3, [r1, r3, lsl #1]
 8000f84:	b212      	sxth	r2, r2
 8000f86:	b292      	uxth	r2, r2
 8000f88:	2000      	movs	r0, #0
 8000f8a:	b29b      	uxth	r3, r3
 8000f8c:	f362 000f 	bfi	r0, r2, #0, #16
 8000f90:	f363 401f 	bfi	r0, r3, #16, #16
 8000f94:	b002      	add	sp, #8
 8000f96:	4770      	bx	lr
 8000f98:	b2c0      	uxtb	r0, r0
 8000f9a:	43c3      	mvns	r3, r0
 8000f9c:	b2db      	uxtb	r3, r3
 8000f9e:	4910      	ldr	r1, [pc, #64]	; (8000fe0 <MCM_Trig_Functions+0x90>)
 8000fa0:	f931 2013 	ldrsh.w	r2, [r1, r3, lsl #1]
 8000fa4:	f931 3010 	ldrsh.w	r3, [r1, r0, lsl #1]
 8000fa8:	e7ed      	b.n	8000f86 <MCM_Trig_Functions+0x36>
 8000faa:	2900      	cmp	r1, #0
 8000fac:	d1eb      	bne.n	8000f86 <MCM_Trig_Functions+0x36>
 8000fae:	b2c0      	uxtb	r0, r0
 8000fb0:	43c3      	mvns	r3, r0
 8000fb2:	b2db      	uxtb	r3, r3
 8000fb4:	490a      	ldr	r1, [pc, #40]	; (8000fe0 <MCM_Trig_Functions+0x90>)
 8000fb6:	f831 2013 	ldrh.w	r2, [r1, r3, lsl #1]
 8000fba:	f831 3010 	ldrh.w	r3, [r1, r0, lsl #1]
 8000fbe:	4252      	negs	r2, r2
 8000fc0:	425b      	negs	r3, r3
 8000fc2:	b212      	sxth	r2, r2
 8000fc4:	b21b      	sxth	r3, r3
 8000fc6:	e7de      	b.n	8000f86 <MCM_Trig_Functions+0x36>
 8000fc8:	b2c0      	uxtb	r0, r0
 8000fca:	43c3      	mvns	r3, r0
 8000fcc:	4a04      	ldr	r2, [pc, #16]	; (8000fe0 <MCM_Trig_Functions+0x90>)
 8000fce:	b2db      	uxtb	r3, r3
 8000fd0:	f832 3013 	ldrh.w	r3, [r2, r3, lsl #1]
 8000fd4:	f932 2010 	ldrsh.w	r2, [r2, r0, lsl #1]
 8000fd8:	425b      	negs	r3, r3
 8000fda:	b21b      	sxth	r3, r3
 8000fdc:	e7d3      	b.n	8000f86 <MCM_Trig_Functions+0x36>
 8000fde:	bf00      	nop
 8000fe0:	08008954 	.word	0x08008954

08000fe4 <MCM_Park>:
 8000fe4:	b530      	push	{r4, r5, lr}
 8000fe6:	b085      	sub	sp, #20
 8000fe8:	b204      	sxth	r4, r0
 8000fea:	9001      	str	r0, [sp, #4]
 8000fec:	1405      	asrs	r5, r0, #16
 8000fee:	4608      	mov	r0, r1
 8000ff0:	f7ff ffae 	bl	8000f50 <MCM_Trig_Functions>
 8000ff4:	b201      	sxth	r1, r0
 8000ff6:	fb04 f301 	mul.w	r3, r4, r1
 8000ffa:	1400      	asrs	r0, r0, #16
 8000ffc:	fb05 3310 	mls	r3, r5, r0, r3
 8001000:	13db      	asrs	r3, r3, #15
 8001002:	f5b3 4f00 	cmp.w	r3, #32768	; 0x8000
 8001006:	da04      	bge.n	8001012 <MCM_Park+0x2e>
 8001008:	f513 4f00 	cmn.w	r3, #32768	; 0x8000
 800100c:	da1e      	bge.n	800104c <MCM_Park+0x68>
 800100e:	4a11      	ldr	r2, [pc, #68]	; (8001054 <MCM_Park+0x70>)
 8001010:	e001      	b.n	8001016 <MCM_Park+0x32>
 8001012:	f647 72ff 	movw	r2, #32767	; 0x7fff
 8001016:	fb01 f105 	mul.w	r1, r1, r5
 800101a:	fb04 1000 	mla	r0, r4, r0, r1
 800101e:	13c0      	asrs	r0, r0, #15
 8001020:	f5b0 4f00 	cmp.w	r0, #32768	; 0x8000
 8001024:	da04      	bge.n	8001030 <MCM_Park+0x4c>
 8001026:	f510 4f00 	cmn.w	r0, #32768	; 0x8000
 800102a:	da0c      	bge.n	8001046 <MCM_Park+0x62>
 800102c:	4b09      	ldr	r3, [pc, #36]	; (8001054 <MCM_Park+0x70>)
 800102e:	e001      	b.n	8001034 <MCM_Park+0x50>
 8001030:	f647 73ff 	movw	r3, #32767	; 0x7fff
 8001034:	b292      	uxth	r2, r2
 8001036:	2000      	movs	r0, #0
 8001038:	b29b      	uxth	r3, r3
 800103a:	f362 000f 	bfi	r0, r2, #0, #16
 800103e:	f363 401f 	bfi	r0, r3, #16, #16
 8001042:	b005      	add	sp, #20
 8001044:	bd30      	pop	{r4, r5, pc}
 8001046:	b203      	sxth	r3, r0
 8001048:	d1f4      	bne.n	8001034 <MCM_Park+0x50>
 800104a:	e7ef      	b.n	800102c <MCM_Park+0x48>
 800104c:	b21a      	sxth	r2, r3
 800104e:	d1e2      	bne.n	8001016 <MCM_Park+0x32>
 8001050:	e7dd      	b.n	800100e <MCM_Park+0x2a>
 8001052:	bf00      	nop
 8001054:	ffff8001 	.word	0xffff8001

08001058 <MCM_Rev_Park>:
 8001058:	b530      	push	{r4, r5, lr}
 800105a:	b085      	sub	sp, #20
 800105c:	b204      	sxth	r4, r0
 800105e:	1405      	asrs	r5, r0, #16
 8001060:	9001      	str	r0, [sp, #4]
 8001062:	4608      	mov	r0, r1
 8001064:	f7ff ff74 	bl	8000f50 <MCM_Trig_Functions>
 8001068:	1403      	asrs	r3, r0, #16
 800106a:	fb05 f203 	mul.w	r2, r5, r3
 800106e:	b200      	sxth	r0, r0
 8001070:	fb04 2200 	mla	r2, r4, r0, r2
 8001074:	fb00 f005 	mul.w	r0, r0, r5
 8001078:	fb04 0313 	mls	r3, r4, r3, r0
 800107c:	f3c2 32cf 	ubfx	r2, r2, #15, #16
 8001080:	2000      	movs	r0, #0
 8001082:	f3c3 33cf 	ubfx	r3, r3, #15, #16
 8001086:	f362 000f 	bfi	r0, r2, #0, #16
 800108a:	f363 401f 	bfi	r0, r3, #16, #16
 800108e:	b005      	add	sp, #20
 8001090:	bd30      	pop	{r4, r5, pc}
 8001092:	bf00      	nop

08001094 <FOC_Clear>:
 8001094:	b5f8      	push	{r3, r4, r5, r6, r7, lr}
 8001096:	eb00 03c0 	add.w	r3, r0, r0, lsl #3
 800109a:	4a18      	ldr	r2, [pc, #96]	; (80010fc <FOC_Clear+0x68>)
 800109c:	eb00 0343 	add.w	r3, r0, r3, lsl #1
 80010a0:	005b      	lsls	r3, r3, #1
 80010a2:	2400      	movs	r4, #0
 80010a4:	189f      	adds	r7, r3, r2
 80010a6:	f103 060c 	add.w	r6, r3, #12
 80010aa:	509c      	str	r4, [r3, r2]
 80010ac:	4605      	mov	r5, r0
 80010ae:	f103 0116 	add.w	r1, r3, #22
 80010b2:	2326      	movs	r3, #38	; 0x26
 80010b4:	607c      	str	r4, [r7, #4]
 80010b6:	fb03 2305 	mla	r3, r3, r5, r2
 80010ba:	50b4      	str	r4, [r6, r2]
 80010bc:	18b7      	adds	r7, r6, r2
 80010be:	4810      	ldr	r0, [pc, #64]	; (8001100 <FOC_Clear+0x6c>)
 80010c0:	607c      	str	r4, [r7, #4]
 80010c2:	188e      	adds	r6, r1, r2
 80010c4:	83dc      	strh	r4, [r3, #30]
 80010c6:	f850 0025 	ldr.w	r0, [r0, r5, lsl #2]
 80010ca:	508c      	str	r4, [r1, r2]
 80010cc:	4621      	mov	r1, r4
 80010ce:	6074      	str	r4, [r6, #4]
 80010d0:	841c      	strh	r4, [r3, #32]
 80010d2:	f005 fa7f 	bl	80065d4 <PID_SetIntegralTerm>
 80010d6:	4b0b      	ldr	r3, [pc, #44]	; (8001104 <FOC_Clear+0x70>)
 80010d8:	4621      	mov	r1, r4
 80010da:	f853 0025 	ldr.w	r0, [r3, r5, lsl #2]
 80010de:	f005 fa79 	bl	80065d4 <PID_SetIntegralTerm>
 80010e2:	4b09      	ldr	r3, [pc, #36]	; (8001108 <FOC_Clear+0x74>)
 80010e4:	f853 0025 	ldr.w	r0, [r3, r5, lsl #2]
 80010e8:	f006 fc82 	bl	80079f0 <STC_Clear>
 80010ec:	4b07      	ldr	r3, [pc, #28]	; (800110c <FOC_Clear+0x78>)
 80010ee:	f853 0025 	ldr.w	r0, [r3, r5, lsl #2]
 80010f2:	e8bd 40f8 	ldmia.w	sp!, {r3, r4, r5, r6, r7, lr}
 80010f6:	f005 bc5b 	b.w	80069b0 <PWMC_SwitchOffPWM>
 80010fa:	bf00      	nop
 80010fc:	20000a28 	.word	0x20000a28
 8001100:	20000a1c 	.word	0x20000a1c
 8001104:	20000ad8 	.word	0x20000ad8
 8001108:	20000adc 	.word	0x20000adc
 800110c:	20000a14 	.word	0x20000a14

08001110 <MCboot>:
 8001110:	e92d 4ff0 	stmdb	sp!, {r4, r5, r6, r7, r8, r9, sl, fp, lr}
 8001114:	b089      	sub	sp, #36	; 0x24
 8001116:	4f63      	ldr	r7, [pc, #396]	; (80012a4 <MCboot+0x194>)
 8001118:	9004      	str	r0, [sp, #16]
 800111a:	4863      	ldr	r0, [pc, #396]	; (80012a8 <MCboot+0x198>)
 800111c:	9105      	str	r1, [sp, #20]
 800111e:	f006 fd1f 	bl	8007b60 <STM_Init>
 8001122:	4962      	ldr	r1, [pc, #392]	; (80012ac <MCboot+0x19c>)
 8001124:	4b62      	ldr	r3, [pc, #392]	; (80012b0 <MCboot+0x1a0>)
 8001126:	4a63      	ldr	r2, [pc, #396]	; (80012b4 <MCboot+0x1a4>)
 8001128:	4863      	ldr	r0, [pc, #396]	; (80012b8 <MCboot+0x1a8>)
 800112a:	4d64      	ldr	r5, [pc, #400]	; (80012bc <MCboot+0x1ac>)
 800112c:	601a      	str	r2, [r3, #0]
 800112e:	2400      	movs	r4, #0
 8001130:	700c      	strb	r4, [r1, #0]
 8001132:	f8df b1d4 	ldr.w	fp, [pc, #468]	; 8001308 <MCboot+0x1f8>
 8001136:	6038      	str	r0, [r7, #0]
 8001138:	f005 fef6 	bl	8006f28 <R3_1_Init>
 800113c:	f005 fad0 	bl	80066e0 <startTimers>
 8001140:	485f      	ldr	r0, [pc, #380]	; (80012c0 <MCboot+0x1b0>)
 8001142:	f8df 91c8 	ldr.w	r9, [pc, #456]	; 800130c <MCboot+0x1fc>
 8001146:	f8df a1c8 	ldr.w	sl, [pc, #456]	; 8001310 <MCboot+0x200>
 800114a:	f8df 81c8 	ldr.w	r8, [pc, #456]	; 8001314 <MCboot+0x204>
 800114e:	4e5d      	ldr	r6, [pc, #372]	; (80012c4 <MCboot+0x1b4>)
 8001150:	f005 fa2c 	bl	80065ac <PID_HandleInit>
 8001154:	4b5c      	ldr	r3, [pc, #368]	; (80012c8 <MCboot+0x1b8>)
 8001156:	4a5a      	ldr	r2, [pc, #360]	; (80012c0 <MCboot+0x1b0>)
 8001158:	485c      	ldr	r0, [pc, #368]	; (80012cc <MCboot+0x1bc>)
 800115a:	602b      	str	r3, [r5, #0]
 800115c:	f8cb 2000 	str.w	r2, [fp]
 8001160:	f007 fac6 	bl	80086f0 <STO_PLL_Init>
 8001164:	f8db 1000 	ldr.w	r1, [fp]
 8001168:	4a58      	ldr	r2, [pc, #352]	; (80012cc <MCboot+0x1bc>)
 800116a:	6828      	ldr	r0, [r5, #0]
 800116c:	f006 fc28 	bl	80079c0 <STC_Init>
 8001170:	4857      	ldr	r0, [pc, #348]	; (80012d0 <MCboot+0x1c0>)
 8001172:	f006 fefb 	bl	8007f6c <VSS_Init>
 8001176:	683b      	ldr	r3, [r7, #0]
 8001178:	6829      	ldr	r1, [r5, #0]
 800117a:	4a55      	ldr	r2, [pc, #340]	; (80012d0 <MCboot+0x1c0>)
 800117c:	9300      	str	r3, [sp, #0]
 800117e:	4855      	ldr	r0, [pc, #340]	; (80012d4 <MCboot+0x1c4>)
 8001180:	4b55      	ldr	r3, [pc, #340]	; (80012d8 <MCboot+0x1c8>)
 8001182:	f006 ffdd 	bl	8008140 <RUC_Init>
 8001186:	4855      	ldr	r0, [pc, #340]	; (80012dc <MCboot+0x1cc>)
 8001188:	f005 fa10 	bl	80065ac <PID_HandleInit>
 800118c:	4648      	mov	r0, r9
 800118e:	f005 fa0d 	bl	80065ac <PID_HandleInit>
 8001192:	4a53      	ldr	r2, [pc, #332]	; (80012e0 <MCboot+0x1d0>)
 8001194:	4b53      	ldr	r3, [pc, #332]	; (80012e4 <MCboot+0x1d4>)
 8001196:	4851      	ldr	r0, [pc, #324]	; (80012dc <MCboot+0x1cc>)
 8001198:	6010      	str	r0, [r2, #0]
 800119a:	4a53      	ldr	r2, [pc, #332]	; (80012e8 <MCboot+0x1d8>)
 800119c:	f8ca 3000 	str.w	r3, [sl]
 80011a0:	4618      	mov	r0, r3
 80011a2:	f8c2 9000 	str.w	r9, [r2]
 80011a6:	f006 fac9 	bl	800773c <RVBS_Init>
 80011aa:	4950      	ldr	r1, [pc, #320]	; (80012ec <MCboot+0x1dc>)
 80011ac:	4b50      	ldr	r3, [pc, #320]	; (80012f0 <MCboot+0x1e0>)
 80011ae:	f8da 2000 	ldr.w	r2, [sl]
 80011b2:	600b      	str	r3, [r1, #0]
 80011b4:	4640      	mov	r0, r8
 80011b6:	f8c3 2110 	str.w	r2, [r3, #272]	; 0x110
 80011ba:	f8c3 610c 	str.w	r6, [r3, #268]	; 0x10c
 80011be:	f005 f9af 	bl	8006520 <NTC_Init>
 80011c2:	4b4c      	ldr	r3, [pc, #304]	; (80012f4 <MCboot+0x1e4>)
 80011c4:	484c      	ldr	r0, [pc, #304]	; (80012f8 <MCboot+0x1e8>)
 80011c6:	4a4d      	ldr	r2, [pc, #308]	; (80012fc <MCboot+0x1ec>)
 80011c8:	f8c0 8000 	str.w	r8, [r0]
 80011cc:	4618      	mov	r0, r3
 80011ce:	6013      	str	r3, [r2, #0]
 80011d0:	f04f 0901 	mov.w	r9, #1
 80011d4:	f006 fb2c 	bl	8007830 <REMNG_Init>
 80011d8:	4620      	mov	r0, r4
 80011da:	f7ff ff5b 	bl	8001094 <FOC_Clear>
 80011de:	f886 9024 	strb.w	r9, [r6, #36]	; 0x24
 80011e2:	6828      	ldr	r0, [r5, #0]
 80011e4:	f8df 8130 	ldr.w	r8, [pc, #304]	; 8001318 <MCboot+0x208>
 80011e8:	f006 fca6 	bl	8007b38 <STC_GetDefaultIqdref>
 80011ec:	4603      	mov	r3, r0
 80011ee:	f3c0 420f 	ubfx	r2, r0, #16, #16
 80011f2:	8233      	strh	r3, [r6, #16]
 80011f4:	8272      	strh	r2, [r6, #18]
 80011f6:	6828      	ldr	r0, [r5, #0]
 80011f8:	f006 fc9e 	bl	8007b38 <STC_GetDefaultIqdref>
 80011fc:	4940      	ldr	r1, [pc, #256]	; (8001300 <MCboot+0x1f0>)
 80011fe:	682a      	ldr	r2, [r5, #0]
 8001200:	f8c8 1000 	str.w	r1, [r8]
 8001204:	f3c0 4c0f 	ubfx	ip, r0, #16, #16
 8001208:	4633      	mov	r3, r6
 800120a:	f8a6 c014 	strh.w	ip, [r6, #20]
 800120e:	4608      	mov	r0, r1
 8001210:	4925      	ldr	r1, [pc, #148]	; (80012a8 <MCboot+0x198>)
 8001212:	f7ff fd71 	bl	8000cf8 <MCI_Init>
 8001216:	6828      	ldr	r0, [r5, #0]
 8001218:	f8d8 6000 	ldr.w	r6, [r8]
 800121c:	f006 fc82 	bl	8007b24 <STC_GetMecSpeedRefUnitDefault>
 8001220:	4622      	mov	r2, r4
 8001222:	4601      	mov	r1, r0
 8001224:	4630      	mov	r0, r6
 8001226:	f7ff fd75 	bl	8000d14 <MCI_ExecSpeedRamp>
 800122a:	4a2d      	ldr	r2, [pc, #180]	; (80012e0 <MCboot+0x1d0>)
 800122c:	f8d8 6000 	ldr.w	r6, [r8]
 8001230:	9603      	str	r6, [sp, #12]
 8001232:	6816      	ldr	r6, [r2, #0]
 8001234:	4a2c      	ldr	r2, [pc, #176]	; (80012e8 <MCboot+0x1d8>)
 8001236:	f8db c000 	ldr.w	ip, [fp]
 800123a:	6810      	ldr	r0, [r2, #0]
 800123c:	4a2b      	ldr	r2, [pc, #172]	; (80012ec <MCboot+0x1dc>)
 800123e:	f8d5 b000 	ldr.w	fp, [r5]
 8001242:	f8d2 e000 	ldr.w	lr, [r2]
 8001246:	9a04      	ldr	r2, [sp, #16]
 8001248:	4d2b      	ldr	r5, [pc, #172]	; (80012f8 <MCboot+0x1e8>)
 800124a:	4b2e      	ldr	r3, [pc, #184]	; (8001304 <MCboot+0x1f4>)
 800124c:	6839      	ldr	r1, [r7, #0]
 800124e:	682d      	ldr	r5, [r5, #0]
 8001250:	f8da 7000 	ldr.w	r7, [sl]
 8001254:	4690      	mov	r8, r2
 8001256:	9a03      	ldr	r2, [sp, #12]
 8001258:	f8c8 2000 	str.w	r2, [r8]
 800125c:	4a1d      	ldr	r2, [pc, #116]	; (80012d4 <MCboot+0x1c4>)
 800125e:	615a      	str	r2, [r3, #20]
 8001260:	4a1a      	ldr	r2, [pc, #104]	; (80012cc <MCboot+0x1bc>)
 8001262:	6119      	str	r1, [r3, #16]
 8001264:	e9c3 2406 	strd	r2, r4, [r3, #24]
 8001268:	4a19      	ldr	r2, [pc, #100]	; (80012d0 <MCboot+0x1c0>)
 800126a:	621a      	str	r2, [r3, #32]
 800126c:	4a0e      	ldr	r2, [pc, #56]	; (80012a8 <MCboot+0x198>)
 800126e:	629a      	str	r2, [r3, #40]	; 0x28
 8001270:	e9c3 c600 	strd	ip, r6, [r3]
 8001274:	6098      	str	r0, [r3, #8]
 8001276:	f8c3 b024 	str.w	fp, [r3, #36]	; 0x24
 800127a:	e9c3 570b 	strd	r5, r7, [r3, #44]	; 0x2c
 800127e:	f8c3 e03c 	str.w	lr, [r3, #60]	; 0x3c
 8001282:	60dc      	str	r4, [r3, #12]
 8001284:	e9c3 440d 	strd	r4, r4, [r3, #52]	; 0x34
 8001288:	e9c3 4410 	strd	r4, r4, [r3, #64]	; 0x40
 800128c:	4907      	ldr	r1, [pc, #28]	; (80012ac <MCboot+0x19c>)
 800128e:	e9c3 4412 	strd	r4, r4, [r3, #72]	; 0x48
 8001292:	9a05      	ldr	r2, [sp, #20]
 8001294:	651c      	str	r4, [r3, #80]	; 0x50
 8001296:	6013      	str	r3, [r2, #0]
 8001298:	f881 9000 	strb.w	r9, [r1]
 800129c:	b009      	add	sp, #36	; 0x24
 800129e:	e8bd 8ff0 	ldmia.w	sp!, {r4, r5, r6, r7, r8, r9, sl, fp, pc}
 80012a2:	bf00      	nop
 80012a4:	20000a14 	.word	0x20000a14
 80012a8:	20000ac8 	.word	0x20000ac8
 80012ac:	20000710 	.word	0x20000710
 80012b0:	20000aa4 	.word	0x20000aa4
 80012b4:	2000000c 	.word	0x2000000c
 80012b8:	2000028c 	.word	0x2000028c
 80012bc:	20000adc 	.word	0x20000adc
 80012c0:	2000014c 	.word	0x2000014c
 80012c4:	20000a28 	.word	0x20000a28
 80012c8:	200004f8 	.word	0x200004f8
 80012cc:	200003d0 	.word	0x200003d0
 80012d0:	20000554 	.word	0x20000554
 80012d4:	20000344 	.word	0x20000344
 80012d8:	200003bc 	.word	0x200003bc
 80012dc:	20000120 	.word	0x20000120
 80012e0:	20000a1c 	.word	0x20000a1c
 80012e4:	2000031c 	.word	0x2000031c
 80012e8:	20000ad8 	.word	0x20000ad8
 80012ec:	20000ad4 	.word	0x20000ad4
 80012f0:	20000178 	.word	0x20000178
 80012f4:	20000304 	.word	0x20000304
 80012f8:	20000a10 	.word	0x20000a10
 80012fc:	20000ad0 	.word	0x20000ad0
 8001300:	20000aac 	.word	0x20000aac
 8001304:	20000a50 	.word	0x20000a50
 8001308:	20000a18 	.word	0x20000a18
 800130c:	200000f4 	.word	0x200000f4
 8001310:	20000aa8 	.word	0x20000aa8
 8001314:	2000052c 	.word	0x2000052c
 8001318:	20000a20 	.word	0x20000a20

0800131c <FOC_InitAdditionalMethods>:
 800131c:	4770      	bx	lr
 800131e:	bf00      	nop

08001320 <FOC_CalcCurrRef>:
 8001320:	4b08      	ldr	r3, [pc, #32]	; (8001344 <FOC_CalcCurrRef+0x24>)
 8001322:	b510      	push	{r4, lr}
 8001324:	2426      	movs	r4, #38	; 0x26
 8001326:	fb04 3400 	mla	r4, r4, r0, r3
 800132a:	f894 3024 	ldrb.w	r3, [r4, #36]	; 0x24
 800132e:	b103      	cbz	r3, 8001332 <FOC_CalcCurrRef+0x12>
 8001330:	bd10      	pop	{r4, pc}
 8001332:	4b05      	ldr	r3, [pc, #20]	; (8001348 <FOC_CalcCurrRef+0x28>)
 8001334:	f853 0020 	ldr.w	r0, [r3, r0, lsl #2]
 8001338:	f006 fbc4 	bl	8007ac4 <STC_CalcTorqueReference>
 800133c:	83e0      	strh	r0, [r4, #30]
 800133e:	8220      	strh	r0, [r4, #16]
 8001340:	bd10      	pop	{r4, pc}
 8001342:	bf00      	nop
 8001344:	20000a28 	.word	0x20000a28
 8001348:	20000adc 	.word	0x20000adc

0800134c <TSK_SetChargeBootCapDelayM1>:
 800134c:	4b01      	ldr	r3, [pc, #4]	; (8001354 <TSK_SetChargeBootCapDelayM1+0x8>)
 800134e:	8018      	strh	r0, [r3, #0]
 8001350:	4770      	bx	lr
 8001352:	bf00      	nop
 8001354:	20000712 	.word	0x20000712

08001358 <TSK_ChargeBootCapDelayHasElapsedM1>:
 8001358:	4b03      	ldr	r3, [pc, #12]	; (8001368 <TSK_ChargeBootCapDelayHasElapsedM1+0x10>)
 800135a:	8818      	ldrh	r0, [r3, #0]
 800135c:	b280      	uxth	r0, r0
 800135e:	fab0 f080 	clz	r0, r0
 8001362:	0940      	lsrs	r0, r0, #5
 8001364:	4770      	bx	lr
 8001366:	bf00      	nop
 8001368:	20000712 	.word	0x20000712

0800136c <TSK_SetStopPermanencyTimeM1>:
 800136c:	4b01      	ldr	r3, [pc, #4]	; (8001374 <TSK_SetStopPermanencyTimeM1+0x8>)
 800136e:	8018      	strh	r0, [r3, #0]
 8001370:	4770      	bx	lr
 8001372:	bf00      	nop
 8001374:	20000716 	.word	0x20000716

08001378 <TSK_StopPermanencyTimeHasElapsedM1>:
 8001378:	4b03      	ldr	r3, [pc, #12]	; (8001388 <TSK_StopPermanencyTimeHasElapsedM1+0x10>)
 800137a:	8818      	ldrh	r0, [r3, #0]
 800137c:	b280      	uxth	r0, r0
 800137e:	fab0 f080 	clz	r0, r0
 8001382:	0940      	lsrs	r0, r0, #5
 8001384:	4770      	bx	lr
 8001386:	bf00      	nop
 8001388:	20000716 	.word	0x20000716

0800138c <TSK_MediumFrequencyTaskM1>:
 800138c:	b530      	push	{r4, r5, lr}
 800138e:	b083      	sub	sp, #12
 8001390:	a902      	add	r1, sp, #8
 8001392:	2300      	movs	r3, #0
 8001394:	f821 3d08 	strh.w	r3, [r1, #-8]!
 8001398:	4895      	ldr	r0, [pc, #596]	; (80015f0 <TSK_MediumFrequencyTaskM1+0x264>)
 800139a:	4c96      	ldr	r4, [pc, #600]	; (80015f4 <TSK_MediumFrequencyTaskM1+0x268>)
 800139c:	f007 f8b0 	bl	8008500 <STO_PLL_CalcAvrgMecSpeedUnit>
 80013a0:	4605      	mov	r5, r0
 80013a2:	6820      	ldr	r0, [r4, #0]
 80013a4:	f005 f966 	bl	8006674 <PQD_CalcElMotorPower>
 80013a8:	4893      	ldr	r0, [pc, #588]	; (80015f8 <TSK_MediumFrequencyTaskM1+0x26c>)
 80013aa:	f006 fc6d 	bl	8007c88 <STM_GetState>
 80013ae:	3803      	subs	r0, #3
 80013b0:	2810      	cmp	r0, #16
 80013b2:	d852      	bhi.n	800145a <TSK_MediumFrequencyTaskM1+0xce>
 80013b4:	e8df f010 	tbh	[pc, r0, lsl #1]
 80013b8:	00110076 	.word	0x00110076
 80013bc:	00a1008a 	.word	0x00a1008a
 80013c0:	00c300b0 	.word	0x00c300b0
 80013c4:	005100cc 	.word	0x005100cc
 80013c8:	00510051 	.word	0x00510051
 80013cc:	00510051 	.word	0x00510051
 80013d0:	00d90051 	.word	0x00d90051
 80013d4:	00f500e8 	.word	0x00f500e8
 80013d8:	0053      	.short	0x0053
 80013da:	4888      	ldr	r0, [pc, #544]	; (80015fc <TSK_MediumFrequencyTaskM1+0x270>)
 80013dc:	f006 ff36 	bl	800824c <RUC_Exec>
 80013e0:	2800      	cmp	r0, #0
 80013e2:	f000 80f9 	beq.w	80015d8 <TSK_MediumFrequencyTaskM1+0x24c>
 80013e6:	4b86      	ldr	r3, [pc, #536]	; (8001600 <TSK_MediumFrequencyTaskM1+0x274>)
 80013e8:	6818      	ldr	r0, [r3, #0]
 80013ea:	f006 fb6b 	bl	8007ac4 <STC_CalcTorqueReference>
 80013ee:	4b85      	ldr	r3, [pc, #532]	; (8001604 <TSK_MediumFrequencyTaskM1+0x278>)
 80013f0:	f9b3 2014 	ldrsh.w	r2, [r3, #20]
 80013f4:	8218      	strh	r0, [r3, #16]
 80013f6:	825a      	strh	r2, [r3, #18]
 80013f8:	f10d 0102 	add.w	r1, sp, #2
 80013fc:	4882      	ldr	r0, [pc, #520]	; (8001608 <TSK_MediumFrequencyTaskM1+0x27c>)
 80013fe:	f006 fe07 	bl	8008010 <VSS_CalcAvrgMecSpeedUnit>
 8001402:	487e      	ldr	r0, [pc, #504]	; (80015fc <TSK_MediumFrequencyTaskM1+0x270>)
 8001404:	f006 ff5c 	bl	80082c0 <RUC_FirstAccelerationStageReached>
 8001408:	b338      	cbz	r0, 800145a <TSK_MediumFrequencyTaskM1+0xce>
 800140a:	f9bd 1002 	ldrsh.w	r1, [sp, #2]
 800140e:	4878      	ldr	r0, [pc, #480]	; (80015f0 <TSK_MediumFrequencyTaskM1+0x264>)
 8001410:	f007 f9a8 	bl	8008764 <STO_PLL_IsObserverConverged>
 8001414:	4604      	mov	r4, r0
 8001416:	4601      	mov	r1, r0
 8001418:	487b      	ldr	r0, [pc, #492]	; (8001608 <TSK_MediumFrequencyTaskM1+0x27c>)
 800141a:	f006 fe7f 	bl	800811c <VSS_SetStartTransition>
 800141e:	b1e4      	cbz	r4, 800145a <TSK_MediumFrequencyTaskM1+0xce>
 8001420:	4873      	ldr	r0, [pc, #460]	; (80015f0 <TSK_MediumFrequencyTaskM1+0x264>)
 8001422:	4d78      	ldr	r5, [pc, #480]	; (8001604 <TSK_MediumFrequencyTaskM1+0x278>)
 8001424:	4c79      	ldr	r4, [pc, #484]	; (800160c <TSK_MediumFrequencyTaskM1+0x280>)
 8001426:	f006 fa85 	bl	8007934 <SPD_GetElAngle>
 800142a:	4601      	mov	r1, r0
 800142c:	6868      	ldr	r0, [r5, #4]
 800142e:	f7ff fdd9 	bl	8000fe4 <MCM_Park>
 8001432:	9001      	str	r0, [sp, #4]
 8001434:	6820      	ldr	r0, [r4, #0]
 8001436:	f006 f9fb 	bl	8007830 <REMNG_Init>
 800143a:	f9b5 1010 	ldrsh.w	r1, [r5, #16]
 800143e:	6820      	ldr	r0, [r4, #0]
 8001440:	2200      	movs	r2, #0
 8001442:	f006 fa33 	bl	80078ac <REMNG_ExecRamp>
 8001446:	f9bd 1004 	ldrsh.w	r1, [sp, #4]
 800144a:	6820      	ldr	r0, [r4, #0]
 800144c:	2232      	movs	r2, #50	; 0x32
 800144e:	f006 fa2d 	bl	80078ac <REMNG_ExecRamp>
 8001452:	2113      	movs	r1, #19
 8001454:	4868      	ldr	r0, [pc, #416]	; (80015f8 <TSK_MediumFrequencyTaskM1+0x26c>)
 8001456:	f006 fba3 	bl	8007ba0 <STM_NextState>
 800145a:	b003      	add	sp, #12
 800145c:	bd30      	pop	{r4, r5, pc}
 800145e:	4867      	ldr	r0, [pc, #412]	; (80015fc <TSK_MediumFrequencyTaskM1+0x270>)
 8001460:	f006 fef4 	bl	800824c <RUC_Exec>
 8001464:	2800      	cmp	r0, #0
 8001466:	f000 80bd 	beq.w	80015e4 <TSK_MediumFrequencyTaskM1+0x258>
 800146a:	a901      	add	r1, sp, #4
 800146c:	4866      	ldr	r0, [pc, #408]	; (8001608 <TSK_MediumFrequencyTaskM1+0x27c>)
 800146e:	f006 fdcf 	bl	8008010 <VSS_CalcAvrgMecSpeedUnit>
 8001472:	4604      	mov	r4, r0
 8001474:	4864      	ldr	r0, [pc, #400]	; (8001608 <TSK_MediumFrequencyTaskM1+0x27c>)
 8001476:	f006 fe5f 	bl	8008138 <VSS_TransitionEnded>
 800147a:	b90c      	cbnz	r4, 8001480 <TSK_MediumFrequencyTaskM1+0xf4>
 800147c:	2800      	cmp	r0, #0
 800147e:	d0ec      	beq.n	800145a <TSK_MediumFrequencyTaskM1+0xce>
 8001480:	4a63      	ldr	r2, [pc, #396]	; (8001610 <TSK_MediumFrequencyTaskM1+0x284>)
 8001482:	4b60      	ldr	r3, [pc, #384]	; (8001604 <TSK_MediumFrequencyTaskM1+0x278>)
 8001484:	6814      	ldr	r4, [r2, #0]
 8001486:	f9b3 5010 	ldrsh.w	r5, [r3, #16]
 800148a:	4620      	mov	r0, r4
 800148c:	f005 f8a6 	bl	80065dc <PID_GetKIDivisor>
 8001490:	fb05 f100 	mul.w	r1, r5, r0
 8001494:	4620      	mov	r0, r4
 8001496:	f005 f89d 	bl	80065d4 <PID_SetIntegralTerm>
 800149a:	2105      	movs	r1, #5
 800149c:	4856      	ldr	r0, [pc, #344]	; (80015f8 <TSK_MediumFrequencyTaskM1+0x26c>)
 800149e:	f006 fb7f 	bl	8007ba0 <STM_NextState>
 80014a2:	e7da      	b.n	800145a <TSK_MediumFrequencyTaskM1+0xce>
 80014a4:	4b5b      	ldr	r3, [pc, #364]	; (8001614 <TSK_MediumFrequencyTaskM1+0x288>)
 80014a6:	6818      	ldr	r0, [r3, #0]
 80014a8:	f7ff fcac 	bl	8000e04 <MCI_GetImposedMotorDirection>
 80014ac:	4601      	mov	r1, r0
 80014ae:	4853      	ldr	r0, [pc, #332]	; (80015fc <TSK_MediumFrequencyTaskM1+0x270>)
 80014b0:	f006 fe84 	bl	80081bc <RUC_Clear>
 80014b4:	4b58      	ldr	r3, [pc, #352]	; (8001618 <TSK_MediumFrequencyTaskM1+0x28c>)
 80014b6:	6818      	ldr	r0, [r3, #0]
 80014b8:	f005 fbfa 	bl	8006cb0 <R3_1_TurnOnLowSides>
 80014bc:	2014      	movs	r0, #20
 80014be:	f7ff ff45 	bl	800134c <TSK_SetChargeBootCapDelayM1>
 80014c2:	2110      	movs	r1, #16
 80014c4:	484c      	ldr	r0, [pc, #304]	; (80015f8 <TSK_MediumFrequencyTaskM1+0x26c>)
 80014c6:	f006 fb6b 	bl	8007ba0 <STM_NextState>
 80014ca:	e7c6      	b.n	800145a <TSK_MediumFrequencyTaskM1+0xce>
 80014cc:	4c4c      	ldr	r4, [pc, #304]	; (8001600 <TSK_MediumFrequencyTaskM1+0x274>)
 80014ce:	4948      	ldr	r1, [pc, #288]	; (80015f0 <TSK_MediumFrequencyTaskM1+0x264>)
 80014d0:	6820      	ldr	r0, [r4, #0]
 80014d2:	f006 fa89 	bl	80079e8 <STC_SetSpeedSensor>
 80014d6:	2000      	movs	r0, #0
 80014d8:	f7ff ff20 	bl	800131c <FOC_InitAdditionalMethods>
 80014dc:	2000      	movs	r0, #0
 80014de:	f7ff ff1f 	bl	8001320 <FOC_CalcCurrRef>
 80014e2:	2106      	movs	r1, #6
 80014e4:	4844      	ldr	r0, [pc, #272]	; (80015f8 <TSK_MediumFrequencyTaskM1+0x26c>)
 80014e6:	f006 fb5b 	bl	8007ba0 <STM_NextState>
 80014ea:	6820      	ldr	r0, [r4, #0]
 80014ec:	f006 fb30 	bl	8007b50 <STC_ForceSpeedReferenceToCurrentSpeed>
 80014f0:	4b48      	ldr	r3, [pc, #288]	; (8001614 <TSK_MediumFrequencyTaskM1+0x288>)
 80014f2:	6818      	ldr	r0, [r3, #0]
 80014f4:	f7ff fc46 	bl	8000d84 <MCI_ExecBufferedCommands>
 80014f8:	e7af      	b.n	800145a <TSK_MediumFrequencyTaskM1+0xce>
 80014fa:	4b46      	ldr	r3, [pc, #280]	; (8001614 <TSK_MediumFrequencyTaskM1+0x288>)
 80014fc:	6818      	ldr	r0, [r3, #0]
 80014fe:	f7ff fc41 	bl	8000d84 <MCI_ExecBufferedCommands>
 8001502:	2000      	movs	r0, #0
 8001504:	f7ff ff0c 	bl	8001320 <FOC_CalcCurrRef>
 8001508:	2d00      	cmp	r5, #0
 800150a:	d1a6      	bne.n	800145a <TSK_MediumFrequencyTaskM1+0xce>
 800150c:	462a      	mov	r2, r5
 800150e:	2120      	movs	r1, #32
 8001510:	4839      	ldr	r0, [pc, #228]	; (80015f8 <TSK_MediumFrequencyTaskM1+0x26c>)
 8001512:	f006 fb2b 	bl	8007b6c <STM_FaultProcessing>
 8001516:	e7a0      	b.n	800145a <TSK_MediumFrequencyTaskM1+0xce>
 8001518:	4b3f      	ldr	r3, [pc, #252]	; (8001618 <TSK_MediumFrequencyTaskM1+0x28c>)
 800151a:	6818      	ldr	r0, [r3, #0]
 800151c:	f005 fc34 	bl	8006d88 <R3_1_SwitchOffPWM>
 8001520:	2000      	movs	r0, #0
 8001522:	f7ff fdb7 	bl	8001094 <FOC_Clear>
 8001526:	6820      	ldr	r0, [r4, #0]
 8001528:	f004 ffba 	bl	80064a0 <MPM_Clear>
 800152c:	f44f 7048 	mov.w	r0, #800	; 0x320
 8001530:	f7ff ff1c 	bl	800136c <TSK_SetStopPermanencyTimeM1>
 8001534:	2108      	movs	r1, #8
 8001536:	4830      	ldr	r0, [pc, #192]	; (80015f8 <TSK_MediumFrequencyTaskM1+0x26c>)
 8001538:	f006 fb32 	bl	8007ba0 <STM_NextState>
 800153c:	e78d      	b.n	800145a <TSK_MediumFrequencyTaskM1+0xce>
 800153e:	f7ff ff1b 	bl	8001378 <TSK_StopPermanencyTimeHasElapsedM1>
 8001542:	2800      	cmp	r0, #0
 8001544:	d089      	beq.n	800145a <TSK_MediumFrequencyTaskM1+0xce>
 8001546:	2109      	movs	r1, #9
 8001548:	482b      	ldr	r0, [pc, #172]	; (80015f8 <TSK_MediumFrequencyTaskM1+0x26c>)
 800154a:	f006 fb29 	bl	8007ba0 <STM_NextState>
 800154e:	e784      	b.n	800145a <TSK_MediumFrequencyTaskM1+0xce>
 8001550:	4b2b      	ldr	r3, [pc, #172]	; (8001600 <TSK_MediumFrequencyTaskM1+0x274>)
 8001552:	492d      	ldr	r1, [pc, #180]	; (8001608 <TSK_MediumFrequencyTaskM1+0x27c>)
 8001554:	6818      	ldr	r0, [r3, #0]
 8001556:	f006 fa47 	bl	80079e8 <STC_SetSpeedSensor>
 800155a:	482b      	ldr	r0, [pc, #172]	; (8001608 <TSK_MediumFrequencyTaskM1+0x27c>)
 800155c:	f006 fcf2 	bl	8007f44 <VSS_Clear>
 8001560:	2100      	movs	r1, #0
 8001562:	4825      	ldr	r0, [pc, #148]	; (80015f8 <TSK_MediumFrequencyTaskM1+0x26c>)
 8001564:	f006 fb1c 	bl	8007ba0 <STM_NextState>
 8001568:	e777      	b.n	800145a <TSK_MediumFrequencyTaskM1+0xce>
 800156a:	f7ff fef5 	bl	8001358 <TSK_ChargeBootCapDelayHasElapsedM1>
 800156e:	2800      	cmp	r0, #0
 8001570:	f43f af73 	beq.w	800145a <TSK_MediumFrequencyTaskM1+0xce>
 8001574:	4b28      	ldr	r3, [pc, #160]	; (8001618 <TSK_MediumFrequencyTaskM1+0x28c>)
 8001576:	2100      	movs	r1, #0
 8001578:	6818      	ldr	r0, [r3, #0]
 800157a:	f005 fa1b 	bl	80069b4 <PWMC_CurrentReadingCalibr>
 800157e:	2111      	movs	r1, #17
 8001580:	481d      	ldr	r0, [pc, #116]	; (80015f8 <TSK_MediumFrequencyTaskM1+0x26c>)
 8001582:	f006 fb0d 	bl	8007ba0 <STM_NextState>
 8001586:	e768      	b.n	800145a <TSK_MediumFrequencyTaskM1+0xce>
 8001588:	4b23      	ldr	r3, [pc, #140]	; (8001618 <TSK_MediumFrequencyTaskM1+0x28c>)
 800158a:	2101      	movs	r1, #1
 800158c:	6818      	ldr	r0, [r3, #0]
 800158e:	f005 fa11 	bl	80069b4 <PWMC_CurrentReadingCalibr>
 8001592:	2800      	cmp	r0, #0
 8001594:	f43f af61 	beq.w	800145a <TSK_MediumFrequencyTaskM1+0xce>
 8001598:	2112      	movs	r1, #18
 800159a:	4817      	ldr	r0, [pc, #92]	; (80015f8 <TSK_MediumFrequencyTaskM1+0x26c>)
 800159c:	f006 fb00 	bl	8007ba0 <STM_NextState>
 80015a0:	e75b      	b.n	800145a <TSK_MediumFrequencyTaskM1+0xce>
 80015a2:	4a17      	ldr	r2, [pc, #92]	; (8001600 <TSK_MediumFrequencyTaskM1+0x274>)
 80015a4:	4b17      	ldr	r3, [pc, #92]	; (8001604 <TSK_MediumFrequencyTaskM1+0x278>)
 80015a6:	6810      	ldr	r0, [r2, #0]
 80015a8:	4917      	ldr	r1, [pc, #92]	; (8001608 <TSK_MediumFrequencyTaskM1+0x27c>)
 80015aa:	2201      	movs	r2, #1
 80015ac:	f883 2024 	strb.w	r2, [r3, #36]	; 0x24
 80015b0:	f006 fa1a 	bl	80079e8 <STC_SetSpeedSensor>
 80015b4:	480e      	ldr	r0, [pc, #56]	; (80015f0 <TSK_MediumFrequencyTaskM1+0x264>)
 80015b6:	f007 f86d 	bl	8008694 <STO_PLL_Clear>
 80015ba:	2104      	movs	r1, #4
 80015bc:	480e      	ldr	r0, [pc, #56]	; (80015f8 <TSK_MediumFrequencyTaskM1+0x26c>)
 80015be:	f006 faef 	bl	8007ba0 <STM_NextState>
 80015c2:	2800      	cmp	r0, #0
 80015c4:	f43f af49 	beq.w	800145a <TSK_MediumFrequencyTaskM1+0xce>
 80015c8:	2000      	movs	r0, #0
 80015ca:	f7ff fd63 	bl	8001094 <FOC_Clear>
 80015ce:	4b12      	ldr	r3, [pc, #72]	; (8001618 <TSK_MediumFrequencyTaskM1+0x28c>)
 80015d0:	6818      	ldr	r0, [r3, #0]
 80015d2:	f005 fb95 	bl	8006d00 <R3_1_SwitchOnPWM>
 80015d6:	e740      	b.n	800145a <TSK_MediumFrequencyTaskM1+0xce>
 80015d8:	4602      	mov	r2, r0
 80015da:	2110      	movs	r1, #16
 80015dc:	4806      	ldr	r0, [pc, #24]	; (80015f8 <TSK_MediumFrequencyTaskM1+0x26c>)
 80015de:	f006 fac5 	bl	8007b6c <STM_FaultProcessing>
 80015e2:	e709      	b.n	80013f8 <TSK_MediumFrequencyTaskM1+0x6c>
 80015e4:	4602      	mov	r2, r0
 80015e6:	2110      	movs	r1, #16
 80015e8:	4803      	ldr	r0, [pc, #12]	; (80015f8 <TSK_MediumFrequencyTaskM1+0x26c>)
 80015ea:	f006 fabf 	bl	8007b6c <STM_FaultProcessing>
 80015ee:	e734      	b.n	800145a <TSK_MediumFrequencyTaskM1+0xce>
 80015f0:	200003d0 	.word	0x200003d0
 80015f4:	20000ad4 	.word	0x20000ad4
 80015f8:	20000ac8 	.word	0x20000ac8
 80015fc:	20000344 	.word	0x20000344
 8001600:	20000adc 	.word	0x20000adc
 8001604:	20000a28 	.word	0x20000a28
 8001608:	20000554 	.word	0x20000554
 800160c:	20000ad0 	.word	0x20000ad0
 8001610:	20000a18 	.word	0x20000a18
 8001614:	20000a20 	.word	0x20000a20
 8001618:	20000a14 	.word	0x20000a14

0800161c <MC_Scheduler>:
 800161c:	b538      	push	{r3, r4, r5, lr}
 800161e:	4b12      	ldr	r3, [pc, #72]	; (8001668 <MC_Scheduler+0x4c>)
 8001620:	781b      	ldrb	r3, [r3, #0]
 8001622:	2b01      	cmp	r3, #1
 8001624:	d000      	beq.n	8001628 <MC_Scheduler+0xc>
 8001626:	bd38      	pop	{r3, r4, r5, pc}
 8001628:	4d10      	ldr	r5, [pc, #64]	; (800166c <MC_Scheduler+0x50>)
 800162a:	882c      	ldrh	r4, [r5, #0]
 800162c:	b2a4      	uxth	r4, r4
 800162e:	b1b4      	cbz	r4, 800165e <MC_Scheduler+0x42>
 8001630:	882b      	ldrh	r3, [r5, #0]
 8001632:	3b01      	subs	r3, #1
 8001634:	b29b      	uxth	r3, r3
 8001636:	802b      	strh	r3, [r5, #0]
 8001638:	4a0d      	ldr	r2, [pc, #52]	; (8001670 <MC_Scheduler+0x54>)
 800163a:	8813      	ldrh	r3, [r2, #0]
 800163c:	b29b      	uxth	r3, r3
 800163e:	b94b      	cbnz	r3, 8001654 <MC_Scheduler+0x38>
 8001640:	4a0c      	ldr	r2, [pc, #48]	; (8001674 <MC_Scheduler+0x58>)
 8001642:	8813      	ldrh	r3, [r2, #0]
 8001644:	b29b      	uxth	r3, r3
 8001646:	2b00      	cmp	r3, #0
 8001648:	d0ed      	beq.n	8001626 <MC_Scheduler+0xa>
 800164a:	8813      	ldrh	r3, [r2, #0]
 800164c:	3b01      	subs	r3, #1
 800164e:	b29b      	uxth	r3, r3
 8001650:	8013      	strh	r3, [r2, #0]
 8001652:	bd38      	pop	{r3, r4, r5, pc}
 8001654:	8813      	ldrh	r3, [r2, #0]
 8001656:	3b01      	subs	r3, #1
 8001658:	b29b      	uxth	r3, r3
 800165a:	8013      	strh	r3, [r2, #0]
 800165c:	e7f0      	b.n	8001640 <MC_Scheduler+0x24>
 800165e:	f7ff fe95 	bl	800138c <TSK_MediumFrequencyTaskM1>
 8001662:	802c      	strh	r4, [r5, #0]
 8001664:	e7e8      	b.n	8001638 <MC_Scheduler+0x1c>
 8001666:	bf00      	nop
 8001668:	20000710 	.word	0x20000710
 800166c:	20000714 	.word	0x20000714
 8001670:	20000712 	.word	0x20000712
 8001674:	20000716 	.word	0x20000716

08001678 <TSK_HighFrequencyTask>:
 8001678:	e92d 43f0 	stmdb	sp!, {r4, r5, r6, r7, r8, r9, lr}
 800167c:	4b53      	ldr	r3, [pc, #332]	; (80017cc <TSK_HighFrequencyTask+0x154>)
 800167e:	4c54      	ldr	r4, [pc, #336]	; (80017d0 <TSK_HighFrequencyTask+0x158>)
 8001680:	781b      	ldrb	r3, [r3, #0]
 8001682:	f8d4 001a 	ldr.w	r0, [r4, #26]
 8001686:	b089      	sub	sp, #36	; 0x24
 8001688:	2b13      	cmp	r3, #19
 800168a:	9005      	str	r0, [sp, #20]
 800168c:	f000 8092 	beq.w	80017b4 <TSK_HighFrequencyTask+0x13c>
 8001690:	4b50      	ldr	r3, [pc, #320]	; (80017d4 <TSK_HighFrequencyTask+0x15c>)
 8001692:	4f51      	ldr	r7, [pc, #324]	; (80017d8 <TSK_HighFrequencyTask+0x160>)
 8001694:	6818      	ldr	r0, [r3, #0]
 8001696:	f8df 8164 	ldr.w	r8, [pc, #356]	; 80017fc <TSK_HighFrequencyTask+0x184>
 800169a:	f006 f9a7 	bl	80079ec <STC_GetSpeedSensor>
 800169e:	4605      	mov	r5, r0
 80016a0:	f006 f948 	bl	8007934 <SPD_GetElAngle>
 80016a4:	4606      	mov	r6, r0
 80016a6:	4628      	mov	r0, r5
 80016a8:	f006 f94c 	bl	8007944 <SPD_GetInstElSpeedDpp>
 80016ac:	a902      	add	r1, sp, #8
 80016ae:	6838      	ldr	r0, [r7, #0]
 80016b0:	f005 f868 	bl	8006784 <PWMC_GetPhaseCurrents>
 80016b4:	9802      	ldr	r0, [sp, #8]
 80016b6:	f7ff fc25 	bl	8000f04 <MCM_Clarke>
 80016ba:	4631      	mov	r1, r6
 80016bc:	9003      	str	r0, [sp, #12]
 80016be:	f7ff fc91 	bl	8000fe4 <MCM_Park>
 80016c2:	4b46      	ldr	r3, [pc, #280]	; (80017dc <TSK_HighFrequencyTask+0x164>)
 80016c4:	f9b4 1010 	ldrsh.w	r1, [r4, #16]
 80016c8:	9000      	str	r0, [sp, #0]
 80016ca:	b200      	sxth	r0, r0
 80016cc:	1a09      	subs	r1, r1, r0
 80016ce:	6818      	ldr	r0, [r3, #0]
 80016d0:	f004 ff8c 	bl	80065ec <PI_Controller>
 80016d4:	f9bd 2002 	ldrsh.w	r2, [sp, #2]
 80016d8:	4b41      	ldr	r3, [pc, #260]	; (80017e0 <TSK_HighFrequencyTask+0x168>)
 80016da:	f9b4 1012 	ldrsh.w	r1, [r4, #18]
 80016de:	4681      	mov	r9, r0
 80016e0:	1a89      	subs	r1, r1, r2
 80016e2:	6818      	ldr	r0, [r3, #0]
 80016e4:	f004 ff82 	bl	80065ec <PI_Controller>
 80016e8:	4b3e      	ldr	r3, [pc, #248]	; (80017e4 <TSK_HighFrequencyTask+0x16c>)
 80016ea:	f8ad 9004 	strh.w	r9, [sp, #4]
 80016ee:	681b      	ldr	r3, [r3, #0]
 80016f0:	f8ad 0006 	strh.w	r0, [sp, #6]
 80016f4:	9901      	ldr	r1, [sp, #4]
 80016f6:	4618      	mov	r0, r3
 80016f8:	f004 fe74 	bl	80063e4 <Circle_Limitation>
 80016fc:	4603      	mov	r3, r0
 80016fe:	4628      	mov	r0, r5
 8001700:	fa0f f983 	sxth.w	r9, r3
 8001704:	141d      	asrs	r5, r3, #16
 8001706:	9301      	str	r3, [sp, #4]
 8001708:	f006 f91c 	bl	8007944 <SPD_GetInstElSpeedDpp>
 800170c:	4631      	mov	r1, r6
 800170e:	9801      	ldr	r0, [sp, #4]
 8001710:	f7ff fca2 	bl	8001058 <MCM_Rev_Park>
 8001714:	4601      	mov	r1, r0
 8001716:	6838      	ldr	r0, [r7, #0]
 8001718:	9104      	str	r1, [sp, #16]
 800171a:	f005 f835 	bl	8006788 <PWMC_SetPhaseVoltage>
 800171e:	4601      	mov	r1, r0
 8001720:	9802      	ldr	r0, [sp, #8]
 8001722:	6020      	str	r0, [r4, #0]
 8001724:	9803      	ldr	r0, [sp, #12]
 8001726:	6060      	str	r0, [r4, #4]
 8001728:	9800      	ldr	r0, [sp, #0]
 800172a:	60e0      	str	r0, [r4, #12]
 800172c:	2901      	cmp	r1, #1
 800172e:	9804      	ldr	r0, [sp, #16]
 8001730:	f8a4 9016 	strh.w	r9, [r4, #22]
 8001734:	8325      	strh	r5, [r4, #24]
 8001736:	8426      	strh	r6, [r4, #32]
 8001738:	f8c4 001a 	str.w	r0, [r4, #26]
 800173c:	d032      	beq.n	80017a4 <TSK_HighFrequencyTask+0x12c>
 800173e:	482a      	ldr	r0, [pc, #168]	; (80017e8 <TSK_HighFrequencyTask+0x170>)
 8001740:	f006 fdbe 	bl	80082c0 <RUC_FirstAccelerationStageReached>
 8001744:	4b29      	ldr	r3, [pc, #164]	; (80017ec <TSK_HighFrequencyTask+0x174>)
 8001746:	4604      	mov	r4, r0
 8001748:	f8d8 0000 	ldr.w	r0, [r8]
 800174c:	9006      	str	r0, [sp, #24]
 800174e:	6818      	ldr	r0, [r3, #0]
 8001750:	f004 fe40 	bl	80063d4 <VBS_GetAvBusVoltage_d>
 8001754:	a905      	add	r1, sp, #20
 8001756:	f8ad 001c 	strh.w	r0, [sp, #28]
 800175a:	4825      	ldr	r0, [pc, #148]	; (80017f0 <TSK_HighFrequencyTask+0x178>)
 800175c:	f006 fde6 	bl	800832c <STO_PLL_CalcElAngle>
 8001760:	4823      	ldr	r0, [pc, #140]	; (80017f0 <TSK_HighFrequencyTask+0x178>)
 8001762:	f006 ff6d 	bl	8008640 <STO_PLL_CalcAvrgElSpeedDpp>
 8001766:	b164      	cbz	r4, 8001782 <TSK_HighFrequencyTask+0x10a>
 8001768:	4818      	ldr	r0, [pc, #96]	; (80017cc <TSK_HighFrequencyTask+0x154>)
 800176a:	f006 fa8d 	bl	8007c88 <STM_GetState>
 800176e:	1f03      	subs	r3, r0, #4
 8001770:	b2db      	uxtb	r3, r3
 8001772:	2b01      	cmp	r3, #1
 8001774:	d909      	bls.n	800178a <TSK_HighFrequencyTask+0x112>
 8001776:	2813      	cmp	r0, #19
 8001778:	d007      	beq.n	800178a <TSK_HighFrequencyTask+0x112>
 800177a:	2000      	movs	r0, #0
 800177c:	b009      	add	sp, #36	; 0x24
 800177e:	e8bd 83f0 	ldmia.w	sp!, {r4, r5, r6, r7, r8, r9, pc}
 8001782:	481b      	ldr	r0, [pc, #108]	; (80017f0 <TSK_HighFrequencyTask+0x178>)
 8001784:	f007 f892 	bl	80088ac <STO_ResetPLL>
 8001788:	e7ee      	b.n	8001768 <TSK_HighFrequencyTask+0xf0>
 800178a:	4819      	ldr	r0, [pc, #100]	; (80017f0 <TSK_HighFrequencyTask+0x178>)
 800178c:	f006 f8d2 	bl	8007934 <SPD_GetElAngle>
 8001790:	a908      	add	r1, sp, #32
 8001792:	f821 0d10 	strh.w	r0, [r1, #-16]!
 8001796:	4817      	ldr	r0, [pc, #92]	; (80017f4 <TSK_HighFrequencyTask+0x17c>)
 8001798:	f006 fbec 	bl	8007f74 <VSS_CalcElAngle>
 800179c:	2000      	movs	r0, #0
 800179e:	b009      	add	sp, #36	; 0x24
 80017a0:	e8bd 83f0 	ldmia.w	sp!, {r4, r5, r6, r7, r8, r9, pc}
 80017a4:	2200      	movs	r2, #0
 80017a6:	4809      	ldr	r0, [pc, #36]	; (80017cc <TSK_HighFrequencyTask+0x154>)
 80017a8:	f006 f9e0 	bl	8007b6c <STM_FaultProcessing>
 80017ac:	2000      	movs	r0, #0
 80017ae:	b009      	add	sp, #36	; 0x24
 80017b0:	e8bd 83f0 	ldmia.w	sp!, {r4, r5, r6, r7, r8, r9, pc}
 80017b4:	4d10      	ldr	r5, [pc, #64]	; (80017f8 <TSK_HighFrequencyTask+0x180>)
 80017b6:	6828      	ldr	r0, [r5, #0]
 80017b8:	f006 f85c 	bl	8007874 <REMNG_RampCompleted>
 80017bc:	2800      	cmp	r0, #0
 80017be:	f47f af67 	bne.w	8001690 <TSK_HighFrequencyTask+0x18>
 80017c2:	6828      	ldr	r0, [r5, #0]
 80017c4:	f006 f83c 	bl	8007840 <REMNG_Calc>
 80017c8:	8220      	strh	r0, [r4, #16]
 80017ca:	e761      	b.n	8001690 <TSK_HighFrequencyTask+0x18>
 80017cc:	20000ac8 	.word	0x20000ac8
 80017d0:	20000a28 	.word	0x20000a28
 80017d4:	20000adc 	.word	0x20000adc
 80017d8:	20000a14 	.word	0x20000a14
 80017dc:	20000a1c 	.word	0x20000a1c
 80017e0:	20000ad8 	.word	0x20000ad8
 80017e4:	20000aa4 	.word	0x20000aa4
 80017e8:	20000344 	.word	0x20000344
 80017ec:	20000aa8 	.word	0x20000aa8
 80017f0:	200003d0 	.word	0x200003d0
 80017f4:	20000554 	.word	0x20000554
 80017f8:	20000ad0 	.word	0x20000ad0
 80017fc:	20000a2c 	.word	0x20000a2c

08001800 <TSK_SafetyTask_PWMOFF>:
 8001800:	b5f8      	push	{r3, r4, r5, r6, r7, lr}
 8001802:	4b20      	ldr	r3, [pc, #128]	; (8001884 <TSK_SafetyTask_PWMOFF+0x84>)
 8001804:	4f20      	ldr	r7, [pc, #128]	; (8001888 <TSK_SafetyTask_PWMOFF+0x88>)
 8001806:	4605      	mov	r5, r0
 8001808:	f853 0020 	ldr.w	r0, [r3, r0, lsl #2]
 800180c:	f004 fe9a 	bl	8006544 <NTC_CalcAvTemp>
 8001810:	4604      	mov	r4, r0
 8001812:	f857 0025 	ldr.w	r0, [r7, r5, lsl #2]
 8001816:	f005 f8f7 	bl	8006a08 <PWMC_CheckOverCurrent>
 800181a:	f024 0408 	bic.w	r4, r4, #8
 800181e:	4304      	orrs	r4, r0
 8001820:	b2a4      	uxth	r4, r4
 8001822:	b335      	cbz	r5, 8001872 <TSK_SafetyTask_PWMOFF+0x72>
 8001824:	4e19      	ldr	r6, [pc, #100]	; (800188c <TSK_SafetyTask_PWMOFF+0x8c>)
 8001826:	eb05 0345 	add.w	r3, r5, r5, lsl #1
 800182a:	eb06 0643 	add.w	r6, r6, r3, lsl #1
 800182e:	43e2      	mvns	r2, r4
 8001830:	b292      	uxth	r2, r2
 8001832:	4621      	mov	r1, r4
 8001834:	4630      	mov	r0, r6
 8001836:	f006 f999 	bl	8007b6c <STM_FaultProcessing>
 800183a:	4630      	mov	r0, r6
 800183c:	f006 fa24 	bl	8007c88 <STM_GetState>
 8001840:	280a      	cmp	r0, #10
 8001842:	d008      	beq.n	8001856 <TSK_SafetyTask_PWMOFF+0x56>
 8001844:	280b      	cmp	r0, #11
 8001846:	d105      	bne.n	8001854 <TSK_SafetyTask_PWMOFF+0x54>
 8001848:	f857 0025 	ldr.w	r0, [r7, r5, lsl #2]
 800184c:	e8bd 40f8 	ldmia.w	sp!, {r3, r4, r5, r6, r7, lr}
 8001850:	f005 b8ae 	b.w	80069b0 <PWMC_SwitchOffPWM>
 8001854:	bdf8      	pop	{r3, r4, r5, r6, r7, pc}
 8001856:	f857 0025 	ldr.w	r0, [r7, r5, lsl #2]
 800185a:	f005 f8a9 	bl	80069b0 <PWMC_SwitchOffPWM>
 800185e:	4628      	mov	r0, r5
 8001860:	f7ff fc18 	bl	8001094 <FOC_Clear>
 8001864:	4b0a      	ldr	r3, [pc, #40]	; (8001890 <TSK_SafetyTask_PWMOFF+0x90>)
 8001866:	f853 0025 	ldr.w	r0, [r3, r5, lsl #2]
 800186a:	e8bd 40f8 	ldmia.w	sp!, {r3, r4, r5, r6, r7, lr}
 800186e:	f004 be17 	b.w	80064a0 <MPM_Clear>
 8001872:	4b08      	ldr	r3, [pc, #32]	; (8001894 <TSK_SafetyTask_PWMOFF+0x94>)
 8001874:	6818      	ldr	r0, [r3, #0]
 8001876:	f005 ff79 	bl	800776c <RVBS_CalcAvVbusFilt>
 800187a:	f020 0008 	bic.w	r0, r0, #8
 800187e:	4304      	orrs	r4, r0
 8001880:	b2a4      	uxth	r4, r4
 8001882:	e7cf      	b.n	8001824 <TSK_SafetyTask_PWMOFF+0x24>
 8001884:	20000a10 	.word	0x20000a10
 8001888:	20000a14 	.word	0x20000a14
 800188c:	20000ac8 	.word	0x20000ac8
 8001890:	20000ad4 	.word	0x20000ad4
 8001894:	20000aa8 	.word	0x20000aa8

08001898 <TSK_SafetyTask>:
 8001898:	b508      	push	{r3, lr}
 800189a:	4b06      	ldr	r3, [pc, #24]	; (80018b4 <TSK_SafetyTask+0x1c>)
 800189c:	781b      	ldrb	r3, [r3, #0]
 800189e:	2b01      	cmp	r3, #1
 80018a0:	d000      	beq.n	80018a4 <TSK_SafetyTask+0xc>
 80018a2:	bd08      	pop	{r3, pc}
 80018a4:	2000      	movs	r0, #0
 80018a6:	f7ff ffab 	bl	8001800 <TSK_SafetyTask_PWMOFF>
 80018aa:	e8bd 4008 	ldmia.w	sp!, {r3, lr}
 80018ae:	f000 bd09 	b.w	80022c4 <RCM_ExecUserConv>
 80018b2:	bf00      	nop
 80018b4:	20000710 	.word	0x20000710

080018b8 <MC_RunMotorControlTasks>:
 80018b8:	b508      	push	{r3, lr}
 80018ba:	4b06      	ldr	r3, [pc, #24]	; (80018d4 <MC_RunMotorControlTasks+0x1c>)
 80018bc:	781b      	ldrb	r3, [r3, #0]
 80018be:	b903      	cbnz	r3, 80018c2 <MC_RunMotorControlTasks+0xa>
 80018c0:	bd08      	pop	{r3, pc}
 80018c2:	f7ff feab 	bl	800161c <MC_Scheduler>
 80018c6:	f7ff ffe7 	bl	8001898 <TSK_SafetyTask>
 80018ca:	e8bd 4008 	ldmia.w	sp!, {r3, lr}
 80018ce:	f001 b899 	b.w	8002a04 <UI_Scheduler>
 80018d2:	bf00      	nop
 80018d4:	20000710 	.word	0x20000710

080018d8 <TSK_HardwareFaultTask>:
 80018d8:	b508      	push	{r3, lr}
 80018da:	4b05      	ldr	r3, [pc, #20]	; (80018f0 <TSK_HardwareFaultTask+0x18>)
 80018dc:	6818      	ldr	r0, [r3, #0]
 80018de:	f005 fa53 	bl	8006d88 <R3_1_SwitchOffPWM>
 80018e2:	2200      	movs	r2, #0
 80018e4:	2180      	movs	r1, #128	; 0x80
 80018e6:	4803      	ldr	r0, [pc, #12]	; (80018f4 <TSK_HardwareFaultTask+0x1c>)
 80018e8:	e8bd 4008 	ldmia.w	sp!, {r3, lr}
 80018ec:	f006 b93e 	b.w	8007b6c <STM_FaultProcessing>
 80018f0:	20000a14 	.word	0x20000a14
 80018f4:	20000ac8 	.word	0x20000ac8

080018f8 <mc_lock_pins>:
 80018f8:	b4f0      	push	{r4, r5, r6, r7}
 80018fa:	4a40      	ldr	r2, [pc, #256]	; (80019fc <mc_lock_pins+0x104>)
 80018fc:	4840      	ldr	r0, [pc, #256]	; (8001a00 <mc_lock_pins+0x108>)
 80018fe:	4941      	ldr	r1, [pc, #260]	; (8001a04 <mc_lock_pins+0x10c>)
 8001900:	4d41      	ldr	r5, [pc, #260]	; (8001a08 <mc_lock_pins+0x110>)
 8001902:	4c42      	ldr	r4, [pc, #264]	; (8001a0c <mc_lock_pins+0x114>)
 8001904:	f44f 3390 	mov.w	r3, #73728	; 0x12000
 8001908:	f44f 5600 	mov.w	r6, #8192	; 0x2000
 800190c:	61d3      	str	r3, [r2, #28]
 800190e:	b08e      	sub	sp, #56	; 0x38
 8001910:	61d6      	str	r6, [r2, #28]
 8001912:	61d3      	str	r3, [r2, #28]
 8001914:	69d6      	ldr	r6, [r2, #28]
 8001916:	960d      	str	r6, [sp, #52]	; 0x34
 8001918:	f04f 4390 	mov.w	r3, #1207959552	; 0x48000000
 800191c:	2604      	movs	r6, #4
 800191e:	9f0d      	ldr	r7, [sp, #52]	; 0x34
 8001920:	61d8      	str	r0, [r3, #28]
 8001922:	61de      	str	r6, [r3, #28]
 8001924:	61d8      	str	r0, [r3, #28]
 8001926:	69d8      	ldr	r0, [r3, #28]
 8001928:	900c      	str	r0, [sp, #48]	; 0x30
 800192a:	2002      	movs	r0, #2
 800192c:	9e0c      	ldr	r6, [sp, #48]	; 0x30
 800192e:	61d9      	str	r1, [r3, #28]
 8001930:	61d8      	str	r0, [r3, #28]
 8001932:	61d9      	str	r1, [r3, #28]
 8001934:	69d9      	ldr	r1, [r3, #28]
 8001936:	910b      	str	r1, [sp, #44]	; 0x2c
 8001938:	2001      	movs	r0, #1
 800193a:	f04f 1101 	mov.w	r1, #65537	; 0x10001
 800193e:	9e0b      	ldr	r6, [sp, #44]	; 0x2c
 8001940:	61d9      	str	r1, [r3, #28]
 8001942:	61d8      	str	r0, [r3, #28]
 8001944:	61d9      	str	r1, [r3, #28]
 8001946:	69de      	ldr	r6, [r3, #28]
 8001948:	960a      	str	r6, [sp, #40]	; 0x28
 800194a:	9e0a      	ldr	r6, [sp, #40]	; 0x28
 800194c:	61d1      	str	r1, [r2, #28]
 800194e:	61d0      	str	r0, [r2, #28]
 8001950:	61d1      	str	r1, [r2, #28]
 8001952:	69d1      	ldr	r1, [r2, #28]
 8001954:	9109      	str	r1, [sp, #36]	; 0x24
 8001956:	f44f 6000 	mov.w	r0, #2048	; 0x800
 800195a:	f44f 3184 	mov.w	r1, #67584	; 0x10800
 800195e:	9e09      	ldr	r6, [sp, #36]	; 0x24
 8001960:	61d1      	str	r1, [r2, #28]
 8001962:	61d0      	str	r0, [r2, #28]
 8001964:	61d1      	str	r1, [r2, #28]
 8001966:	69d6      	ldr	r6, [r2, #28]
 8001968:	9608      	str	r6, [sp, #32]
 800196a:	2680      	movs	r6, #128	; 0x80
 800196c:	9f08      	ldr	r7, [sp, #32]
 800196e:	61dd      	str	r5, [r3, #28]
 8001970:	61de      	str	r6, [r3, #28]
 8001972:	61dd      	str	r5, [r3, #28]
 8001974:	69dd      	ldr	r5, [r3, #28]
 8001976:	9507      	str	r5, [sp, #28]
 8001978:	2520      	movs	r5, #32
 800197a:	9e07      	ldr	r6, [sp, #28]
 800197c:	61dc      	str	r4, [r3, #28]
 800197e:	61dd      	str	r5, [r3, #28]
 8001980:	61dc      	str	r4, [r3, #28]
 8001982:	69dc      	ldr	r4, [r3, #28]
 8001984:	9406      	str	r4, [sp, #24]
 8001986:	9d06      	ldr	r5, [sp, #24]
 8001988:	4c21      	ldr	r4, [pc, #132]	; (8001a10 <mc_lock_pins+0x118>)
 800198a:	61dc      	str	r4, [r3, #28]
 800198c:	f44f 7580 	mov.w	r5, #256	; 0x100
 8001990:	61dd      	str	r5, [r3, #28]
 8001992:	61dc      	str	r4, [r3, #28]
 8001994:	69dc      	ldr	r4, [r3, #28]
 8001996:	9405      	str	r4, [sp, #20]
 8001998:	f44f 7500 	mov.w	r5, #512	; 0x200
 800199c:	f44f 3481 	mov.w	r4, #66048	; 0x10200
 80019a0:	9e05      	ldr	r6, [sp, #20]
 80019a2:	61dc      	str	r4, [r3, #28]
 80019a4:	61dd      	str	r5, [r3, #28]
 80019a6:	61dc      	str	r4, [r3, #28]
 80019a8:	69dc      	ldr	r4, [r3, #28]
 80019aa:	9404      	str	r4, [sp, #16]
 80019ac:	f44f 4580 	mov.w	r5, #16384	; 0x4000
 80019b0:	f44f 34a0 	mov.w	r4, #81920	; 0x14000
 80019b4:	9e04      	ldr	r6, [sp, #16]
 80019b6:	61d4      	str	r4, [r2, #28]
 80019b8:	61d5      	str	r5, [r2, #28]
 80019ba:	61d4      	str	r4, [r2, #28]
 80019bc:	69d4      	ldr	r4, [r2, #28]
 80019be:	9403      	str	r4, [sp, #12]
 80019c0:	f44f 6580 	mov.w	r5, #1024	; 0x400
 80019c4:	f44f 3482 	mov.w	r4, #66560	; 0x10400
 80019c8:	9e03      	ldr	r6, [sp, #12]
 80019ca:	61dc      	str	r4, [r3, #28]
 80019cc:	61dd      	str	r5, [r3, #28]
 80019ce:	61dc      	str	r4, [r3, #28]
 80019d0:	69dc      	ldr	r4, [r3, #28]
 80019d2:	9402      	str	r4, [sp, #8]
 80019d4:	f44f 4500 	mov.w	r5, #32768	; 0x8000
 80019d8:	f44f 34c0 	mov.w	r4, #98304	; 0x18000
 80019dc:	9e02      	ldr	r6, [sp, #8]
 80019de:	61d4      	str	r4, [r2, #28]
 80019e0:	61d5      	str	r5, [r2, #28]
 80019e2:	61d4      	str	r4, [r2, #28]
 80019e4:	69d2      	ldr	r2, [r2, #28]
 80019e6:	9201      	str	r2, [sp, #4]
 80019e8:	9a01      	ldr	r2, [sp, #4]
 80019ea:	61d9      	str	r1, [r3, #28]
 80019ec:	61d8      	str	r0, [r3, #28]
 80019ee:	61d9      	str	r1, [r3, #28]
 80019f0:	69db      	ldr	r3, [r3, #28]
 80019f2:	9300      	str	r3, [sp, #0]
 80019f4:	9b00      	ldr	r3, [sp, #0]
 80019f6:	b00e      	add	sp, #56	; 0x38
 80019f8:	bcf0      	pop	{r4, r5, r6, r7}
 80019fa:	4770      	bx	lr
 80019fc:	48000400 	.word	0x48000400
 8001a00:	00010004 	.word	0x00010004
 8001a04:	00010002 	.word	0x00010002
 8001a08:	00010080 	.word	0x00010080
 8001a0c:	00010020 	.word	0x00010020
 8001a10:	00010100 	.word	0x00010100

08001a14 <MCP_ReceivedFrame>:
 8001a14:	b5f0      	push	{r4, r5, r6, r7, lr}
 8001a16:	460c      	mov	r4, r1
 8001a18:	b08d      	sub	sp, #52	; 0x34
 8001a1a:	2100      	movs	r1, #0
 8001a1c:	4616      	mov	r6, r2
 8001a1e:	0962      	lsrs	r2, r4, #5
 8001a20:	461f      	mov	r7, r3
 8001a22:	f88d 1009 	strb.w	r1, [sp, #9]
 8001a26:	4605      	mov	r5, r0
 8001a28:	d122      	bne.n	8001a70 <MCP_ReceivedFrame+0x5c>
 8001a2a:	2c12      	cmp	r4, #18
 8001a2c:	d814      	bhi.n	8001a58 <MCP_ReceivedFrame+0x44>
 8001a2e:	e8df f014 	tbh	[pc, r4, lsl #1]
 8001a32:	0016      	.short	0x0016
 8001a34:	00de004c 	.word	0x00de004c
 8001a38:	00130170 	.word	0x00130170
 8001a3c:	017a0013 	.word	0x017a0013
 8001a40:	01bc01a7 	.word	0x01bc01a7
 8001a44:	021101ef 	.word	0x021101ef
 8001a48:	02390222 	.word	0x02390222
 8001a4c:	00130256 	.word	0x00130256
 8001a50:	00130013 	.word	0x00130013
 8001a54:	00160013 	.word	0x00160013
 8001a58:	2301      	movs	r3, #1
 8001a5a:	f88d 300e 	strb.w	r3, [sp, #14]
 8001a5e:	e9d5 0406 	ldrd	r0, r4, [r5, #24]
 8001a62:	2301      	movs	r3, #1
 8001a64:	f10d 020e 	add.w	r2, sp, #14
 8001a68:	21ff      	movs	r1, #255	; 0xff
 8001a6a:	47a0      	blx	r4
 8001a6c:	b00d      	add	sp, #52	; 0x34
 8001a6e:	bdf0      	pop	{r4, r5, r6, r7, pc}
 8001a70:	3a01      	subs	r2, #1
 8001a72:	f001 f817 	bl	8002aa4 <UI_SetReg>
 8001a76:	b1c8      	cbz	r0, 8001aac <MCP_ReceivedFrame+0x98>
 8001a78:	f004 041f 	and.w	r4, r4, #31
 8001a7c:	2c12      	cmp	r4, #18
 8001a7e:	f200 829d 	bhi.w	8001fbc <MCP_ReceivedFrame+0x5a8>
 8001a82:	e8df f014 	tbh	[pc, r4, lsl #1]
 8001a86:	01c2      	.short	0x01c2
 8001a88:	00b40022 	.word	0x00b40022
 8001a8c:	029b0146 	.word	0x029b0146
 8001a90:	0150029b 	.word	0x0150029b
 8001a94:	0192017d 	.word	0x0192017d
 8001a98:	01e701c5 	.word	0x01e701c5
 8001a9c:	020f01f8 	.word	0x020f01f8
 8001aa0:	029b022c 	.word	0x029b022c
 8001aa4:	029b029b 	.word	0x029b029b
 8001aa8:	01c2029b 	.word	0x01c2029b
 8001aac:	230b      	movs	r3, #11
 8001aae:	f89d 0009 	ldrb.w	r0, [sp, #9]
 8001ab2:	f88d 300e 	strb.w	r3, [sp, #14]
 8001ab6:	2800      	cmp	r0, #0
 8001ab8:	d0d1      	beq.n	8001a5e <MCP_ReceivedFrame+0x4a>
 8001aba:	2300      	movs	r3, #0
 8001abc:	461a      	mov	r2, r3
 8001abe:	e9d5 0406 	ldrd	r0, r4, [r5, #24]
 8001ac2:	21f0      	movs	r1, #240	; 0xf0
 8001ac4:	47a0      	blx	r4
 8001ac6:	b00d      	add	sp, #52	; 0x34
 8001ac8:	bdf0      	pop	{r4, r5, r6, r7, pc}
 8001aca:	7831      	ldrb	r1, [r6, #0]
 8001acc:	2305      	movs	r3, #5
 8001ace:	f88d 300e 	strb.w	r3, [sp, #14]
 8001ad2:	2988      	cmp	r1, #136	; 0x88
 8001ad4:	f200 8278 	bhi.w	8001fc8 <MCP_ReceivedFrame+0x5b4>
 8001ad8:	e8df f011 	tbh	[pc, r1, lsl #1]
 8001adc:	02760268 	.word	0x02760268
 8001ae0:	02610276 	.word	0x02610276
 8001ae4:	02570276 	.word	0x02570276
 8001ae8:	02570257 	.word	0x02570257
 8001aec:	02570257 	.word	0x02570257
 8001af0:	02570257 	.word	0x02570257
 8001af4:	02570257 	.word	0x02570257
 8001af8:	02570257 	.word	0x02570257
 8001afc:	02470247 	.word	0x02470247
 8001b00:	02760276 	.word	0x02760276
 8001b04:	02570257 	.word	0x02570257
 8001b08:	02570257 	.word	0x02570257
 8001b0c:	02760257 	.word	0x02760257
 8001b10:	02760276 	.word	0x02760276
 8001b14:	014e014e 	.word	0x014e014e
 8001b18:	02760276 	.word	0x02760276
 8001b1c:	02760276 	.word	0x02760276
 8001b20:	02760276 	.word	0x02760276
 8001b24:	02760276 	.word	0x02760276
 8001b28:	02760276 	.word	0x02760276
 8001b2c:	02760276 	.word	0x02760276
 8001b30:	02760276 	.word	0x02760276
 8001b34:	02760276 	.word	0x02760276
 8001b38:	02760276 	.word	0x02760276
 8001b3c:	02760276 	.word	0x02760276
 8001b40:	02760276 	.word	0x02760276
 8001b44:	02760276 	.word	0x02760276
 8001b48:	02760276 	.word	0x02760276
 8001b4c:	02760276 	.word	0x02760276
 8001b50:	02760276 	.word	0x02760276
 8001b54:	02760276 	.word	0x02760276
 8001b58:	02760276 	.word	0x02760276
 8001b5c:	02570276 	.word	0x02570276
 8001b60:	02760276 	.word	0x02760276
 8001b64:	02760276 	.word	0x02760276
 8001b68:	02470247 	.word	0x02470247
 8001b6c:	02760247 	.word	0x02760247
 8001b70:	02760276 	.word	0x02760276
 8001b74:	02760276 	.word	0x02760276
 8001b78:	02570276 	.word	0x02570276
 8001b7c:	02760276 	.word	0x02760276
 8001b80:	02570276 	.word	0x02570276
 8001b84:	02570257 	.word	0x02570257
 8001b88:	02570257 	.word	0x02570257
 8001b8c:	02570257 	.word	0x02570257
 8001b90:	02470276 	.word	0x02470276
 8001b94:	02760276 	.word	0x02760276
 8001b98:	02760276 	.word	0x02760276
 8001b9c:	02570276 	.word	0x02570276
 8001ba0:	02760276 	.word	0x02760276
 8001ba4:	02570257 	.word	0x02570257
 8001ba8:	02760276 	.word	0x02760276
 8001bac:	02760276 	.word	0x02760276
 8001bb0:	02760276 	.word	0x02760276
 8001bb4:	02760276 	.word	0x02760276
 8001bb8:	02760276 	.word	0x02760276
 8001bbc:	02760276 	.word	0x02760276
 8001bc0:	02760276 	.word	0x02760276
 8001bc4:	02470261 	.word	0x02470261
 8001bc8:	02470247 	.word	0x02470247
 8001bcc:	02470247 	.word	0x02470247
 8001bd0:	02760276 	.word	0x02760276
 8001bd4:	02470276 	.word	0x02470276
 8001bd8:	02760247 	.word	0x02760247
 8001bdc:	02760276 	.word	0x02760276
 8001be0:	02760276 	.word	0x02760276
 8001be4:	02760276 	.word	0x02760276
 8001be8:	02570257 	.word	0x02570257
 8001bec:	0257      	.short	0x0257
 8001bee:	7831      	ldrb	r1, [r6, #0]
 8001bf0:	2303      	movs	r3, #3
 8001bf2:	f88d 300e 	strb.w	r3, [sp, #14]
 8001bf6:	2988      	cmp	r1, #136	; 0x88
 8001bf8:	f200 8107 	bhi.w	8001e0a <MCP_ReceivedFrame+0x3f6>
 8001bfc:	e8df f011 	tbh	[pc, r1, lsl #1]
 8001c00:	017f0191 	.word	0x017f0191
 8001c04:	01910191 	.word	0x01910191
 8001c08:	01a3017f 	.word	0x01a3017f
 8001c0c:	01a301a3 	.word	0x01a301a3
 8001c10:	01a301a3 	.word	0x01a301a3
 8001c14:	01a301a3 	.word	0x01a301a3
 8001c18:	01a301a3 	.word	0x01a301a3
 8001c1c:	01a301a3 	.word	0x01a301a3
 8001c20:	01a301a3 	.word	0x01a301a3
 8001c24:	01a301a3 	.word	0x01a301a3
 8001c28:	01a301a3 	.word	0x01a301a3
 8001c2c:	01a301a3 	.word	0x01a301a3
 8001c30:	01a301a3 	.word	0x01a301a3
 8001c34:	01a301a3 	.word	0x01a301a3
 8001c38:	01050105 	.word	0x01050105
 8001c3c:	01a3017f 	.word	0x01a3017f
 8001c40:	01a301a3 	.word	0x01a301a3
 8001c44:	01050191 	.word	0x01050191
 8001c48:	01050105 	.word	0x01050105
 8001c4c:	01050105 	.word	0x01050105
 8001c50:	01050105 	.word	0x01050105
 8001c54:	01050105 	.word	0x01050105
 8001c58:	01050105 	.word	0x01050105
 8001c5c:	01050105 	.word	0x01050105
 8001c60:	01050105 	.word	0x01050105
 8001c64:	01050105 	.word	0x01050105
 8001c68:	01050105 	.word	0x01050105
 8001c6c:	01050105 	.word	0x01050105
 8001c70:	01050105 	.word	0x01050105
 8001c74:	01050105 	.word	0x01050105
 8001c78:	01050105 	.word	0x01050105
 8001c7c:	01050105 	.word	0x01050105
 8001c80:	01a30105 	.word	0x01a30105
 8001c84:	01050105 	.word	0x01050105
 8001c88:	01050105 	.word	0x01050105
 8001c8c:	017f017f 	.word	0x017f017f
 8001c90:	01a3017f 	.word	0x01a3017f
 8001c94:	01a301a3 	.word	0x01a301a3
 8001c98:	019101a3 	.word	0x019101a3
 8001c9c:	01a3017f 	.word	0x01a3017f
 8001ca0:	01a301a3 	.word	0x01a301a3
 8001ca4:	01a301a3 	.word	0x01a301a3
 8001ca8:	01a301a3 	.word	0x01a301a3
 8001cac:	01a301a3 	.word	0x01a301a3
 8001cb0:	01a301a3 	.word	0x01a301a3
 8001cb4:	017f0191 	.word	0x017f0191
 8001cb8:	01a30105 	.word	0x01a30105
 8001cbc:	01a301a3 	.word	0x01a301a3
 8001cc0:	01a301a3 	.word	0x01a301a3
 8001cc4:	01050105 	.word	0x01050105
 8001cc8:	01a301a3 	.word	0x01a301a3
 8001ccc:	01910191 	.word	0x01910191
 8001cd0:	017f017f 	.word	0x017f017f
 8001cd4:	017f017f 	.word	0x017f017f
 8001cd8:	0191017f 	.word	0x0191017f
 8001cdc:	01a301a3 	.word	0x01a301a3
 8001ce0:	0105017f 	.word	0x0105017f
 8001ce4:	01a301a3 	.word	0x01a301a3
 8001ce8:	017f0191 	.word	0x017f0191
 8001cec:	017f017f 	.word	0x017f017f
 8001cf0:	017f017f 	.word	0x017f017f
 8001cf4:	017f017f 	.word	0x017f017f
 8001cf8:	017f017f 	.word	0x017f017f
 8001cfc:	017f017f 	.word	0x017f017f
 8001d00:	01050191 	.word	0x01050191
 8001d04:	017f0191 	.word	0x017f0191
 8001d08:	017f017f 	.word	0x017f017f
 8001d0c:	01a301a3 	.word	0x01a301a3
 8001d10:	01a3      	.short	0x01a3
 8001d12:	2307      	movs	r3, #7
 8001d14:	7831      	ldrb	r1, [r6, #0]
 8001d16:	f88d 300e 	strb.w	r3, [sp, #14]
 8001d1a:	4628      	mov	r0, r5
 8001d1c:	f001 fb2a 	bl	8003374 <UI_ExecCmd>
 8001d20:	f88d 0009 	strb.w	r0, [sp, #9]
 8001d24:	e6c7      	b.n	8001ab6 <MCP_ReceivedFrame+0xa2>
 8001d26:	ac04      	add	r4, sp, #16
 8001d28:	2100      	movs	r1, #0
 8001d2a:	4620      	mov	r0, r4
 8001d2c:	2220      	movs	r2, #32
 8001d2e:	f006 fdfd 	bl	800892c <memset>
 8001d32:	f8d5 60a8 	ldr.w	r6, [r5, #168]	; 0xa8
 8001d36:	f10d 0012 	add.w	r0, sp, #18
 8001d3a:	1e71      	subs	r1, r6, #1
 8001d3c:	2300      	movs	r3, #0
 8001d3e:	e005      	b.n	8001d4c <MCP_ReceivedFrame+0x338>
 8001d40:	3301      	adds	r3, #1
 8001d42:	2b1d      	cmp	r3, #29
 8001d44:	f800 2f01 	strb.w	r2, [r0, #1]!
 8001d48:	f000 8144 	beq.w	8001fd4 <MCP_ReceivedFrame+0x5c0>
 8001d4c:	f811 2f01 	ldrb.w	r2, [r1, #1]!
 8001d50:	2a09      	cmp	r2, #9
 8001d52:	d1f5      	bne.n	8001d40 <MCP_ReceivedFrame+0x32c>
 8001d54:	1d5a      	adds	r2, r3, #5
 8001d56:	1dd9      	adds	r1, r3, #7
 8001d58:	3309      	adds	r3, #9
 8001d5a:	5cb2      	ldrb	r2, [r6, r2]
 8001d5c:	f88d 2010 	strb.w	r2, [sp, #16]
 8001d60:	5c72      	ldrb	r2, [r6, r1]
 8001d62:	f88d 2011 	strb.w	r2, [sp, #17]
 8001d66:	5cf3      	ldrb	r3, [r6, r3]
 8001d68:	f88d 3012 	strb.w	r3, [sp, #18]
 8001d6c:	4622      	mov	r2, r4
 8001d6e:	2320      	movs	r3, #32
 8001d70:	e9d5 0406 	ldrd	r0, r4, [r5, #24]
 8001d74:	21f0      	movs	r1, #240	; 0xf0
 8001d76:	47a0      	blx	r4
 8001d78:	2301      	movs	r3, #1
 8001d7a:	f88d 3009 	strb.w	r3, [sp, #9]
 8001d7e:	e69c      	b.n	8001aba <MCP_ReceivedFrame+0xa6>
 8001d80:	7877      	ldrb	r7, [r6, #1]
 8001d82:	7833      	ldrb	r3, [r6, #0]
 8001d84:	7970      	ldrb	r0, [r6, #5]
 8001d86:	78b4      	ldrb	r4, [r6, #2]
 8001d88:	7932      	ldrb	r2, [r6, #4]
 8001d8a:	78f1      	ldrb	r1, [r6, #3]
 8001d8c:	eb03 2307 	add.w	r3, r3, r7, lsl #8
 8001d90:	eb03 4304 	add.w	r3, r3, r4, lsl #16
 8001d94:	eb02 2200 	add.w	r2, r2, r0, lsl #8
 8001d98:	eb03 6101 	add.w	r1, r3, r1, lsl #24
 8001d9c:	b292      	uxth	r2, r2
 8001d9e:	4628      	mov	r0, r5
 8001da0:	f001 fb24 	bl	80033ec <UI_ExecSpeedRamp>
 8001da4:	f88d 0009 	strb.w	r0, [sp, #9]
 8001da8:	e685      	b.n	8001ab6 <MCP_ReceivedFrame+0xa2>
 8001daa:	f10d 030e 	add.w	r3, sp, #14
 8001dae:	7831      	ldrb	r1, [r6, #0]
 8001db0:	9300      	str	r3, [sp, #0]
 8001db2:	f10d 020a 	add.w	r2, sp, #10
 8001db6:	ab03      	add	r3, sp, #12
 8001db8:	4628      	mov	r0, r5
 8001dba:	f001 fb33 	bl	8003424 <UI_GetRevupData>
 8001dbe:	f9bd 300c 	ldrsh.w	r3, [sp, #12]
 8001dc2:	f8bd 000a 	ldrh.w	r0, [sp, #10]
 8001dc6:	f9bd 100e 	ldrsh.w	r1, [sp, #14]
 8001dca:	f88d 1014 	strb.w	r1, [sp, #20]
 8001dce:	eb03 0343 	add.w	r3, r3, r3, lsl #1
 8001dd2:	005b      	lsls	r3, r3, #1
 8001dd4:	2200      	movs	r2, #0
 8001dd6:	121c      	asrs	r4, r3, #8
 8001dd8:	f363 0207 	bfi	r2, r3, #0, #8
 8001ddc:	f364 220f 	bfi	r2, r4, #8, #8
 8001de0:	141c      	asrs	r4, r3, #16
 8001de2:	f364 4217 	bfi	r2, r4, #16, #8
 8001de6:	161b      	asrs	r3, r3, #24
 8001de8:	f363 621f 	bfi	r2, r3, #24, #8
 8001dec:	1209      	asrs	r1, r1, #8
 8001dee:	0a03      	lsrs	r3, r0, #8
 8001df0:	9204      	str	r2, [sp, #16]
 8001df2:	f88d 1015 	strb.w	r1, [sp, #21]
 8001df6:	f88d 0016 	strb.w	r0, [sp, #22]
 8001dfa:	f88d 3017 	strb.w	r3, [sp, #23]
 8001dfe:	e9d5 0406 	ldrd	r0, r4, [r5, #24]
 8001e02:	2308      	movs	r3, #8
 8001e04:	aa04      	add	r2, sp, #16
 8001e06:	21f0      	movs	r1, #240	; 0xf0
 8001e08:	47a0      	blx	r4
 8001e0a:	f89d 0009 	ldrb.w	r0, [sp, #9]
 8001e0e:	e652      	b.n	8001ab6 <MCP_ReceivedFrame+0xa2>
 8001e10:	78b1      	ldrb	r1, [r6, #2]
 8001e12:	7873      	ldrb	r3, [r6, #1]
 8001e14:	78f2      	ldrb	r2, [r6, #3]
 8001e16:	7934      	ldrb	r4, [r6, #4]
 8001e18:	7970      	ldrb	r0, [r6, #5]
 8001e1a:	7a37      	ldrb	r7, [r6, #8]
 8001e1c:	eb03 2301 	add.w	r3, r3, r1, lsl #8
 8001e20:	eb03 4302 	add.w	r3, r3, r2, lsl #16
 8001e24:	4a6d      	ldr	r2, [pc, #436]	; (8001fdc <MCP_ReceivedFrame+0x5c8>)
 8001e26:	79b1      	ldrb	r1, [r6, #6]
 8001e28:	eb03 6304 	add.w	r3, r3, r4, lsl #24
 8001e2c:	fb82 4203 	smull	r4, r2, r2, r3
 8001e30:	79f4      	ldrb	r4, [r6, #7]
 8001e32:	eb00 2001 	add.w	r0, r0, r1, lsl #8
 8001e36:	eba2 73e3 	sub.w	r3, r2, r3, asr #31
 8001e3a:	b200      	sxth	r0, r0
 8001e3c:	eb04 2207 	add.w	r2, r4, r7, lsl #8
 8001e40:	7831      	ldrb	r1, [r6, #0]
 8001e42:	9000      	str	r0, [sp, #0]
 8001e44:	b21b      	sxth	r3, r3
 8001e46:	b292      	uxth	r2, r2
 8001e48:	4628      	mov	r0, r5
 8001e4a:	f001 fb07 	bl	800345c <UI_SetRevupData>
 8001e4e:	f88d 0009 	strb.w	r0, [sp, #9]
 8001e52:	e630      	b.n	8001ab6 <MCP_ReceivedFrame+0xa2>
 8001e54:	78f0      	ldrb	r0, [r6, #3]
 8001e56:	7873      	ldrb	r3, [r6, #1]
 8001e58:	78b2      	ldrb	r2, [r6, #2]
 8001e5a:	7831      	ldrb	r1, [r6, #0]
 8001e5c:	eb02 2200 	add.w	r2, r2, r0, lsl #8
 8001e60:	eb01 2103 	add.w	r1, r1, r3, lsl #8
 8001e64:	b212      	sxth	r2, r2
 8001e66:	b209      	sxth	r1, r1
 8001e68:	4628      	mov	r0, r5
 8001e6a:	f001 fb11 	bl	8003490 <UI_SetCurrentReferences>
 8001e6e:	2301      	movs	r3, #1
 8001e70:	f88d 3009 	strb.w	r3, [sp, #9]
 8001e74:	e621      	b.n	8001aba <MCP_ReceivedFrame+0xa6>
 8001e76:	4c5a      	ldr	r4, [pc, #360]	; (8001fe0 <MCP_ReceivedFrame+0x5cc>)
 8001e78:	9604      	str	r6, [sp, #16]
 8001e7a:	230c      	movs	r3, #12
 8001e7c:	4621      	mov	r1, r4
 8001e7e:	a804      	add	r0, sp, #16
 8001e80:	f88d 7014 	strb.w	r7, [sp, #20]
 8001e84:	f88d 300e 	strb.w	r3, [sp, #14]
 8001e88:	f001 fb10 	bl	80034ac <UI_GetMPInfo>
 8001e8c:	f88d 0009 	strb.w	r0, [sp, #9]
 8001e90:	2800      	cmp	r0, #0
 8001e92:	f43f ade4 	beq.w	8001a5e <MCP_ReceivedFrame+0x4a>
 8001e96:	e9d5 0606 	ldrd	r0, r6, [r5, #24]
 8001e9a:	7923      	ldrb	r3, [r4, #4]
 8001e9c:	6822      	ldr	r2, [r4, #0]
 8001e9e:	21f0      	movs	r1, #240	; 0xf0
 8001ea0:	47b0      	blx	r6
 8001ea2:	e5e3      	b.n	8001a6c <MCP_ReceivedFrame+0x58>
 8001ea4:	f8d5 20a8 	ldr.w	r2, [r5, #168]	; 0xa8
 8001ea8:	ac04      	add	r4, sp, #16
 8001eaa:	3a01      	subs	r2, #1
 8001eac:	4623      	mov	r3, r4
 8001eae:	ae0c      	add	r6, sp, #48	; 0x30
 8001eb0:	e004      	b.n	8001ebc <MCP_ReceivedFrame+0x4a8>
 8001eb2:	f803 1b01 	strb.w	r1, [r3], #1
 8001eb6:	429e      	cmp	r6, r3
 8001eb8:	f43f af58 	beq.w	8001d6c <MCP_ReceivedFrame+0x358>
 8001ebc:	f812 1f01 	ldrb.w	r1, [r2, #1]!
 8001ec0:	1b18      	subs	r0, r3, r4
 8001ec2:	b2c0      	uxtb	r0, r0
 8001ec4:	2900      	cmp	r1, #0
 8001ec6:	d1f4      	bne.n	8001eb2 <MCP_ReceivedFrame+0x49e>
 8001ec8:	281f      	cmp	r0, #31
 8001eca:	f63f af4f 	bhi.w	8001d6c <MCP_ReceivedFrame+0x358>
 8001ece:	f1c0 021f 	rsb	r2, r0, #31
 8001ed2:	b2d2      	uxtb	r2, r2
 8001ed4:	3201      	adds	r2, #1
 8001ed6:	4420      	add	r0, r4
 8001ed8:	f006 fd28 	bl	800892c <memset>
 8001edc:	e746      	b.n	8001d6c <MCP_ReceivedFrame+0x358>
 8001ede:	7970      	ldrb	r0, [r6, #5]
 8001ee0:	7932      	ldrb	r2, [r6, #4]
 8001ee2:	7873      	ldrb	r3, [r6, #1]
 8001ee4:	7831      	ldrb	r1, [r6, #0]
 8001ee6:	eb02 2200 	add.w	r2, r2, r0, lsl #8
 8001eea:	eb01 2103 	add.w	r1, r1, r3, lsl #8
 8001eee:	b292      	uxth	r2, r2
 8001ef0:	b209      	sxth	r1, r1
 8001ef2:	4628      	mov	r0, r5
 8001ef4:	f001 fa8c 	bl	8003410 <UI_ExecTorqueRamp>
 8001ef8:	f88d 0009 	strb.w	r0, [sp, #9]
 8001efc:	e5db      	b.n	8001ab6 <MCP_ReceivedFrame+0xa2>
 8001efe:	f10d 0209 	add.w	r2, sp, #9
 8001f02:	4628      	mov	r0, r5
 8001f04:	f000 ff3c 	bl	8002d80 <UI_GetReg>
 8001f08:	f89d 3009 	ldrb.w	r3, [sp, #9]
 8001f0c:	9004      	str	r0, [sp, #16]
 8001f0e:	2b00      	cmp	r3, #0
 8001f10:	f43f ada5 	beq.w	8001a5e <MCP_ReceivedFrame+0x4a>
 8001f14:	e9d5 0406 	ldrd	r0, r4, [r5, #24]
 8001f18:	2304      	movs	r3, #4
 8001f1a:	aa04      	add	r2, sp, #16
 8001f1c:	21f0      	movs	r1, #240	; 0xf0
 8001f1e:	47a0      	blx	r4
 8001f20:	e5a4      	b.n	8001a6c <MCP_ReceivedFrame+0x58>
 8001f22:	f10d 0209 	add.w	r2, sp, #9
 8001f26:	4628      	mov	r0, r5
 8001f28:	f000 ff2a 	bl	8002d80 <UI_GetReg>
 8001f2c:	f89d 3009 	ldrb.w	r3, [sp, #9]
 8001f30:	9004      	str	r0, [sp, #16]
 8001f32:	2b00      	cmp	r3, #0
 8001f34:	f43f ad93 	beq.w	8001a5e <MCP_ReceivedFrame+0x4a>
 8001f38:	e9d5 0406 	ldrd	r0, r4, [r5, #24]
 8001f3c:	2301      	movs	r3, #1
 8001f3e:	aa04      	add	r2, sp, #16
 8001f40:	21f0      	movs	r1, #240	; 0xf0
 8001f42:	47a0      	blx	r4
 8001f44:	e592      	b.n	8001a6c <MCP_ReceivedFrame+0x58>
 8001f46:	f10d 0209 	add.w	r2, sp, #9
 8001f4a:	4628      	mov	r0, r5
 8001f4c:	f000 ff18 	bl	8002d80 <UI_GetReg>
 8001f50:	f89d 3009 	ldrb.w	r3, [sp, #9]
 8001f54:	9004      	str	r0, [sp, #16]
 8001f56:	2b00      	cmp	r3, #0
 8001f58:	f43f ad81 	beq.w	8001a5e <MCP_ReceivedFrame+0x4a>
 8001f5c:	e9d5 0406 	ldrd	r0, r4, [r5, #24]
 8001f60:	2302      	movs	r3, #2
 8001f62:	aa04      	add	r2, sp, #16
 8001f64:	21f0      	movs	r1, #240	; 0xf0
 8001f66:	47a0      	blx	r4
 8001f68:	e580      	b.n	8001a6c <MCP_ReceivedFrame+0x58>
 8001f6a:	78b4      	ldrb	r4, [r6, #2]
 8001f6c:	7873      	ldrb	r3, [r6, #1]
 8001f6e:	78f0      	ldrb	r0, [r6, #3]
 8001f70:	7932      	ldrb	r2, [r6, #4]
 8001f72:	eb03 2304 	add.w	r3, r3, r4, lsl #8
 8001f76:	eb03 4300 	add.w	r3, r3, r0, lsl #16
 8001f7a:	eb03 6202 	add.w	r2, r3, r2, lsl #24
 8001f7e:	4628      	mov	r0, r5
 8001f80:	f000 fd90 	bl	8002aa4 <UI_SetReg>
 8001f84:	f88d 0009 	strb.w	r0, [sp, #9]
 8001f88:	e595      	b.n	8001ab6 <MCP_ReceivedFrame+0xa2>
 8001f8a:	78b2      	ldrb	r2, [r6, #2]
 8001f8c:	7873      	ldrb	r3, [r6, #1]
 8001f8e:	4628      	mov	r0, r5
 8001f90:	eb03 2202 	add.w	r2, r3, r2, lsl #8
 8001f94:	f000 fd86 	bl	8002aa4 <UI_SetReg>
 8001f98:	f88d 0009 	strb.w	r0, [sp, #9]
 8001f9c:	e58b      	b.n	8001ab6 <MCP_ReceivedFrame+0xa2>
 8001f9e:	7872      	ldrb	r2, [r6, #1]
 8001fa0:	4628      	mov	r0, r5
 8001fa2:	f000 fd7f 	bl	8002aa4 <UI_SetReg>
 8001fa6:	f88d 0009 	strb.w	r0, [sp, #9]
 8001faa:	e584      	b.n	8001ab6 <MCP_ReceivedFrame+0xa2>
 8001fac:	7872      	ldrb	r2, [r6, #1]
 8001fae:	2100      	movs	r1, #0
 8001fb0:	4628      	mov	r0, r5
 8001fb2:	f000 fd77 	bl	8002aa4 <UI_SetReg>
 8001fb6:	f88d 0009 	strb.w	r0, [sp, #9]
 8001fba:	e57c      	b.n	8001ab6 <MCP_ReceivedFrame+0xa2>
 8001fbc:	2301      	movs	r3, #1
 8001fbe:	f89d 0009 	ldrb.w	r0, [sp, #9]
 8001fc2:	f88d 300e 	strb.w	r3, [sp, #14]
 8001fc6:	e576      	b.n	8001ab6 <MCP_ReceivedFrame+0xa2>
 8001fc8:	2302      	movs	r3, #2
 8001fca:	f88d 300e 	strb.w	r3, [sp, #14]
 8001fce:	f89d 0009 	ldrb.w	r0, [sp, #9]
 8001fd2:	e570      	b.n	8001ab6 <MCP_ReceivedFrame+0xa2>
 8001fd4:	2326      	movs	r3, #38	; 0x26
 8001fd6:	2124      	movs	r1, #36	; 0x24
 8001fd8:	2222      	movs	r2, #34	; 0x22
 8001fda:	e6be      	b.n	8001d5a <MCP_ReceivedFrame+0x346>
 8001fdc:	2aaaaaab 	.word	0x2aaaaaab
 8001fe0:	20000718 	.word	0x20000718

08001fe4 <MCP_WaitNextFrame>:
 8001fe4:	b510      	push	{r4, lr}
 8001fe6:	6a43      	ldr	r3, [r0, #36]	; 0x24
 8001fe8:	4604      	mov	r4, r0
 8001fea:	6980      	ldr	r0, [r0, #24]
 8001fec:	4798      	blx	r3
 8001fee:	2380      	movs	r3, #128	; 0x80
 8001ff0:	f884 30ac 	strb.w	r3, [r4, #172]	; 0xac
 8001ff4:	69a0      	ldr	r0, [r4, #24]
 8001ff6:	6a23      	ldr	r3, [r4, #32]
 8001ff8:	e8bd 4010 	ldmia.w	sp!, {r4, lr}
 8001ffc:	4718      	bx	r3
 8001ffe:	bf00      	nop

08002000 <MCP_Init>:
 8002000:	b5f0      	push	{r4, r5, r6, r7, lr}
 8002002:	b083      	sub	sp, #12
 8002004:	4604      	mov	r4, r0
 8002006:	461e      	mov	r6, r3
 8002008:	4d0a      	ldr	r5, [pc, #40]	; (8002034 <MCP_Init+0x34>)
 800200a:	9b09      	ldr	r3, [sp, #36]	; 0x24
 800200c:	6181      	str	r1, [r0, #24]
 800200e:	4617      	mov	r7, r2
 8002010:	f8c4 30a8 	str.w	r3, [r4, #168]	; 0xa8
 8002014:	4608      	mov	r0, r1
 8002016:	9500      	str	r5, [sp, #0]
 8002018:	4621      	mov	r1, r4
 800201a:	9d08      	ldr	r5, [sp, #32]
 800201c:	4b06      	ldr	r3, [pc, #24]	; (8002038 <MCP_Init+0x38>)
 800201e:	4a07      	ldr	r2, [pc, #28]	; (800203c <MCP_Init+0x3c>)
 8002020:	f004 fa20 	bl	8006464 <FCP_SetClient>
 8002024:	e9c4 7607 	strd	r7, r6, [r4, #28]
 8002028:	6265      	str	r5, [r4, #36]	; 0x24
 800202a:	4620      	mov	r0, r4
 800202c:	f7ff ffda 	bl	8001fe4 <MCP_WaitNextFrame>
 8002030:	b003      	add	sp, #12
 8002032:	bdf0      	pop	{r4, r5, r6, r7, pc}
 8002034:	08002041 	.word	0x08002041
 8002038:	08001a15 	.word	0x08001a15
 800203c:	08002049 	.word	0x08002049

08002040 <MCP_OnTimeOut>:
 8002040:	b508      	push	{r3, lr}
 8002042:	f7ff ffcf 	bl	8001fe4 <MCP_WaitNextFrame>
 8002046:	bd08      	pop	{r3, pc}

08002048 <MCP_SentFrame>:
 8002048:	b508      	push	{r3, lr}
 800204a:	f7ff ffcb 	bl	8001fe4 <MCP_WaitNextFrame>
 800204e:	bd08      	pop	{r3, pc}

08002050 <MX_MotorControl_Init>:
 8002050:	b530      	push	{r4, r5, lr}
 8002052:	b083      	sub	sp, #12
 8002054:	f002 fee4 	bl	8004e20 <HAL_RCC_GetHCLKFreq>
 8002058:	4b0b      	ldr	r3, [pc, #44]	; (8002088 <MX_MotorControl_Init+0x38>)
 800205a:	4d0c      	ldr	r5, [pc, #48]	; (800208c <MX_MotorControl_Init+0x3c>)
 800205c:	4c0c      	ldr	r4, [pc, #48]	; (8002090 <MX_MotorControl_Init+0x40>)
 800205e:	fba3 3000 	umull	r3, r0, r3, r0
 8002062:	09c0      	lsrs	r0, r0, #7
 8002064:	f002 f9a6 	bl	80043b4 <HAL_SYSTICK_Config>
 8002068:	4629      	mov	r1, r5
 800206a:	4620      	mov	r0, r4
 800206c:	f7ff f850 	bl	8001110 <MCboot>
 8002070:	f7ff fc42 	bl	80018f8 <mc_lock_pins>
 8002074:	4b07      	ldr	r3, [pc, #28]	; (8002094 <MX_MotorControl_Init+0x44>)
 8002076:	9300      	str	r3, [sp, #0]
 8002078:	4622      	mov	r2, r4
 800207a:	462b      	mov	r3, r5
 800207c:	2101      	movs	r1, #1
 800207e:	4806      	ldr	r0, [pc, #24]	; (8002098 <MX_MotorControl_Init+0x48>)
 8002080:	f000 fc82 	bl	8002988 <UI_TaskInit>
 8002084:	b003      	add	sp, #12
 8002086:	bd30      	pop	{r4, r5, pc}
 8002088:	10624dd3 	.word	0x10624dd3
 800208c:	20000ae4 	.word	0x20000ae4
 8002090:	20000ae0 	.word	0x20000ae0
 8002094:	08008c04 	.word	0x08008c04
 8002098:	200006c8 	.word	0x200006c8

0800209c <RCM_RegisterRegConv>:
 800209c:	496a      	ldr	r1, [pc, #424]	; (8002248 <RCM_RegisterRegConv+0x1ac>)
 800209e:	680a      	ldr	r2, [r1, #0]
 80020a0:	b4f0      	push	{r4, r5, r6, r7}
 80020a2:	2a00      	cmp	r2, #0
 80020a4:	f000 808d 	beq.w	80021c2 <RCM_RegisterRegConv+0x126>
 80020a8:	7913      	ldrb	r3, [r2, #4]
 80020aa:	7904      	ldrb	r4, [r0, #4]
 80020ac:	42a3      	cmp	r3, r4
 80020ae:	d021      	beq.n	80020f4 <RCM_RegisterRegConv+0x58>
 80020b0:	684b      	ldr	r3, [r1, #4]
 80020b2:	2b00      	cmp	r3, #0
 80020b4:	f000 809b 	beq.w	80021ee <RCM_RegisterRegConv+0x152>
 80020b8:	791d      	ldrb	r5, [r3, #4]
 80020ba:	42a5      	cmp	r5, r4
 80020bc:	f04f 02ff 	mov.w	r2, #255	; 0xff
 80020c0:	f000 8087 	beq.w	80021d2 <RCM_RegisterRegConv+0x136>
 80020c4:	688d      	ldr	r5, [r1, #8]
 80020c6:	2d00      	cmp	r5, #0
 80020c8:	f000 80b0 	beq.w	800222c <RCM_RegisterRegConv+0x190>
 80020cc:	792b      	ldrb	r3, [r5, #4]
 80020ce:	42a3      	cmp	r3, r4
 80020d0:	f000 8086 	beq.w	80021e0 <RCM_RegisterRegConv+0x144>
 80020d4:	68cb      	ldr	r3, [r1, #12]
 80020d6:	2b00      	cmp	r3, #0
 80020d8:	f000 80a3 	beq.w	8002222 <RCM_RegisterRegConv+0x186>
 80020dc:	791d      	ldrb	r5, [r3, #4]
 80020de:	42a5      	cmp	r5, r4
 80020e0:	f000 8091 	beq.w	8002206 <RCM_RegisterRegConv+0x16a>
 80020e4:	2a03      	cmp	r2, #3
 80020e6:	bf88      	it	hi
 80020e8:	22ff      	movhi	r2, #255	; 0xff
 80020ea:	f240 80a4 	bls.w	8002236 <RCM_RegisterRegConv+0x19a>
 80020ee:	4610      	mov	r0, r2
 80020f0:	bcf0      	pop	{r4, r5, r6, r7}
 80020f2:	4770      	bx	lr
 80020f4:	6812      	ldr	r2, [r2, #0]
 80020f6:	6803      	ldr	r3, [r0, #0]
 80020f8:	429a      	cmp	r2, r3
 80020fa:	d1d9      	bne.n	80020b0 <RCM_RegisterRegConv+0x14>
 80020fc:	2200      	movs	r2, #0
 80020fe:	689c      	ldr	r4, [r3, #8]
 8002100:	4d52      	ldr	r5, [pc, #328]	; (800224c <RCM_RegisterRegConv+0x1b0>)
 8002102:	f841 0022 	str.w	r0, [r1, r2, lsl #2]
 8002106:	2100      	movs	r1, #0
 8002108:	f845 1032 	str.w	r1, [r5, r2, lsl #3]
 800210c:	07e1      	lsls	r1, r4, #31
 800210e:	d41e      	bmi.n	800214e <RCM_RegisterRegConv+0xb2>
 8002110:	6859      	ldr	r1, [r3, #4]
 8002112:	2404      	movs	r4, #4
 8002114:	f021 0104 	bic.w	r1, r1, #4
 8002118:	6059      	str	r1, [r3, #4]
 800211a:	601c      	str	r4, [r3, #0]
 800211c:	6859      	ldr	r1, [r3, #4]
 800211e:	2420      	movs	r4, #32
 8002120:	f021 0120 	bic.w	r1, r1, #32
 8002124:	6059      	str	r1, [r3, #4]
 8002126:	601c      	str	r4, [r3, #0]
 8002128:	6899      	ldr	r1, [r3, #8]
 800212a:	f021 4140 	bic.w	r1, r1, #3221225472	; 0xc0000000
 800212e:	f021 013f 	bic.w	r1, r1, #63	; 0x3f
 8002132:	f041 4100 	orr.w	r1, r1, #2147483648	; 0x80000000
 8002136:	6099      	str	r1, [r3, #8]
 8002138:	6899      	ldr	r1, [r3, #8]
 800213a:	2900      	cmp	r1, #0
 800213c:	dbfc      	blt.n	8002138 <RCM_RegisterRegConv+0x9c>
 800213e:	6899      	ldr	r1, [r3, #8]
 8002140:	f021 4100 	bic.w	r1, r1, #2147483648	; 0x80000000
 8002144:	f021 013f 	bic.w	r1, r1, #63	; 0x3f
 8002148:	f041 0101 	orr.w	r1, r1, #1
 800214c:	6099      	str	r1, [r3, #8]
 800214e:	6b19      	ldr	r1, [r3, #48]	; 0x30
 8002150:	f021 010f 	bic.w	r1, r1, #15
 8002154:	6319      	str	r1, [r3, #48]	; 0x30
 8002156:	7904      	ldrb	r4, [r0, #4]
 8002158:	2102      	movs	r1, #2
 800215a:	2c09      	cmp	r4, #9
 800215c:	ea4f 6684 	mov.w	r6, r4, lsl #26
 8002160:	fa01 f104 	lsl.w	r1, r1, r4
 8002164:	eb04 0544 	add.w	r5, r4, r4, lsl #1
 8002168:	d854      	bhi.n	8002214 <RCM_RegisterRegConv+0x178>
 800216a:	ea46 5505 	orr.w	r5, r6, r5, lsl #20
 800216e:	4329      	orrs	r1, r5
 8002170:	f04f 7700 	mov.w	r7, #33554432	; 0x2000000
 8002174:	fa97 f7a7 	rbit	r7, r7
 8002178:	fab7 f487 	clz	r4, r7
 800217c:	f001 7700 	and.w	r7, r1, #33554432	; 0x2000000
 8002180:	40e7      	lsrs	r7, r4
 8002182:	3314      	adds	r3, #20
 8002184:	f001 71f8 	and.w	r1, r1, #32505856	; 0x1f00000
 8002188:	f853 5027 	ldr.w	r5, [r3, r7, lsl #2]
 800218c:	f04f 74f8 	mov.w	r4, #32505856	; 0x1f00000
 8002190:	fa94 f6a4 	rbit	r6, r4
 8002194:	fab6 f686 	clz	r6, r6
 8002198:	fa94 f4a4 	rbit	r4, r4
 800219c:	f04f 0c07 	mov.w	ip, #7
 80021a0:	fab4 f484 	clz	r4, r4
 80021a4:	fa21 f606 	lsr.w	r6, r1, r6
 80021a8:	6880      	ldr	r0, [r0, #8]
 80021aa:	40e1      	lsrs	r1, r4
 80021ac:	fa0c f606 	lsl.w	r6, ip, r6
 80021b0:	4088      	lsls	r0, r1
 80021b2:	ea25 0106 	bic.w	r1, r5, r6
 80021b6:	4301      	orrs	r1, r0
 80021b8:	f843 1027 	str.w	r1, [r3, r7, lsl #2]
 80021bc:	4610      	mov	r0, r2
 80021be:	bcf0      	pop	{r4, r5, r6, r7}
 80021c0:	4770      	bx	lr
 80021c2:	684b      	ldr	r3, [r1, #4]
 80021c4:	2b00      	cmp	r3, #0
 80021c6:	d038      	beq.n	800223a <RCM_RegisterRegConv+0x19e>
 80021c8:	7904      	ldrb	r4, [r0, #4]
 80021ca:	791d      	ldrb	r5, [r3, #4]
 80021cc:	42a5      	cmp	r5, r4
 80021ce:	f47f af79 	bne.w	80020c4 <RCM_RegisterRegConv+0x28>
 80021d2:	681d      	ldr	r5, [r3, #0]
 80021d4:	6803      	ldr	r3, [r0, #0]
 80021d6:	42ab      	cmp	r3, r5
 80021d8:	f47f af74 	bne.w	80020c4 <RCM_RegisterRegConv+0x28>
 80021dc:	2201      	movs	r2, #1
 80021de:	e78e      	b.n	80020fe <RCM_RegisterRegConv+0x62>
 80021e0:	682d      	ldr	r5, [r5, #0]
 80021e2:	6803      	ldr	r3, [r0, #0]
 80021e4:	429d      	cmp	r5, r3
 80021e6:	f47f af75 	bne.w	80020d4 <RCM_RegisterRegConv+0x38>
 80021ea:	2202      	movs	r2, #2
 80021ec:	e787      	b.n	80020fe <RCM_RegisterRegConv+0x62>
 80021ee:	688d      	ldr	r5, [r1, #8]
 80021f0:	2201      	movs	r2, #1
 80021f2:	2d00      	cmp	r5, #0
 80021f4:	f47f af6a 	bne.w	80020cc <RCM_RegisterRegConv+0x30>
 80021f8:	68cb      	ldr	r3, [r1, #12]
 80021fa:	b1e3      	cbz	r3, 8002236 <RCM_RegisterRegConv+0x19a>
 80021fc:	7904      	ldrb	r4, [r0, #4]
 80021fe:	791d      	ldrb	r5, [r3, #4]
 8002200:	42a5      	cmp	r5, r4
 8002202:	f47f af6f 	bne.w	80020e4 <RCM_RegisterRegConv+0x48>
 8002206:	681c      	ldr	r4, [r3, #0]
 8002208:	6803      	ldr	r3, [r0, #0]
 800220a:	429c      	cmp	r4, r3
 800220c:	f47f af6a 	bne.w	80020e4 <RCM_RegisterRegConv+0x48>
 8002210:	2203      	movs	r2, #3
 8002212:	e774      	b.n	80020fe <RCM_RegisterRegConv+0x62>
 8002214:	f041 7100 	orr.w	r1, r1, #33554432	; 0x2000000
 8002218:	4331      	orrs	r1, r6
 800221a:	3d1e      	subs	r5, #30
 800221c:	ea41 5105 	orr.w	r1, r1, r5, lsl #20
 8002220:	e7a6      	b.n	8002170 <RCM_RegisterRegConv+0xd4>
 8002222:	2a04      	cmp	r2, #4
 8002224:	f67f af5e 	bls.w	80020e4 <RCM_RegisterRegConv+0x48>
 8002228:	6803      	ldr	r3, [r0, #0]
 800222a:	e7f1      	b.n	8002210 <RCM_RegisterRegConv+0x174>
 800222c:	2a04      	cmp	r2, #4
 800222e:	bf8c      	ite	hi
 8002230:	2202      	movhi	r2, #2
 8002232:	2200      	movls	r2, #0
 8002234:	e7e0      	b.n	80021f8 <RCM_RegisterRegConv+0x15c>
 8002236:	6803      	ldr	r3, [r0, #0]
 8002238:	e761      	b.n	80020fe <RCM_RegisterRegConv+0x62>
 800223a:	688d      	ldr	r5, [r1, #8]
 800223c:	b115      	cbz	r5, 8002244 <RCM_RegisterRegConv+0x1a8>
 800223e:	461a      	mov	r2, r3
 8002240:	7904      	ldrb	r4, [r0, #4]
 8002242:	e743      	b.n	80020cc <RCM_RegisterRegConv+0x30>
 8002244:	462a      	mov	r2, r5
 8002246:	e7d7      	b.n	80021f8 <RCM_RegisterRegConv+0x15c>
 8002248:	20000b10 	.word	0x20000b10
 800224c:	20000aec 	.word	0x20000aec

08002250 <RCM_ExecRegularConv>:
 8002250:	b410      	push	{r4}
 8002252:	4b1b      	ldr	r3, [pc, #108]	; (80022c0 <RCM_ExecRegularConv+0x70>)
 8002254:	f853 3020 	ldr.w	r3, [r3, r0, lsl #2]
 8002258:	7919      	ldrb	r1, [r3, #4]
 800225a:	681a      	ldr	r2, [r3, #0]
 800225c:	2909      	cmp	r1, #9
 800225e:	f04f 0302 	mov.w	r3, #2
 8002262:	ea4f 6481 	mov.w	r4, r1, lsl #26
 8002266:	fa03 f301 	lsl.w	r3, r3, r1
 800226a:	eb01 0041 	add.w	r0, r1, r1, lsl #1
 800226e:	d81f      	bhi.n	80022b0 <RCM_ExecRegularConv+0x60>
 8002270:	ea44 5000 	orr.w	r0, r4, r0, lsl #20
 8002274:	4303      	orrs	r3, r0
 8002276:	f44f 7140 	mov.w	r1, #768	; 0x300
 800227a:	fa91 f1a1 	rbit	r1, r1
 800227e:	6b11      	ldr	r1, [r2, #48]	; 0x30
 8002280:	0d1b      	lsrs	r3, r3, #20
 8002282:	f403 63f8 	and.w	r3, r3, #1984	; 0x7c0
 8002286:	f421 61f8 	bic.w	r1, r1, #1984	; 0x7c0
 800228a:	430b      	orrs	r3, r1
 800228c:	6313      	str	r3, [r2, #48]	; 0x30
 800228e:	6c13      	ldr	r3, [r2, #64]	; 0x40
 8002290:	6893      	ldr	r3, [r2, #8]
 8002292:	f023 4300 	bic.w	r3, r3, #2147483648	; 0x80000000
 8002296:	f023 033f 	bic.w	r3, r3, #63	; 0x3f
 800229a:	f043 0304 	orr.w	r3, r3, #4
 800229e:	6093      	str	r3, [r2, #8]
 80022a0:	6813      	ldr	r3, [r2, #0]
 80022a2:	075b      	lsls	r3, r3, #29
 80022a4:	d5fc      	bpl.n	80022a0 <RCM_ExecRegularConv+0x50>
 80022a6:	6c10      	ldr	r0, [r2, #64]	; 0x40
 80022a8:	f85d 4b04 	ldr.w	r4, [sp], #4
 80022ac:	b280      	uxth	r0, r0
 80022ae:	4770      	bx	lr
 80022b0:	f043 7300 	orr.w	r3, r3, #33554432	; 0x2000000
 80022b4:	4323      	orrs	r3, r4
 80022b6:	381e      	subs	r0, #30
 80022b8:	ea43 5300 	orr.w	r3, r3, r0, lsl #20
 80022bc:	e7db      	b.n	8002276 <RCM_ExecRegularConv+0x26>
 80022be:	bf00      	nop
 80022c0:	20000b10 	.word	0x20000b10

080022c4 <RCM_ExecUserConv>:
 80022c4:	b470      	push	{r4, r5, r6}
 80022c6:	4c26      	ldr	r4, [pc, #152]	; (8002360 <RCM_ExecUserConv+0x9c>)
 80022c8:	7823      	ldrb	r3, [r4, #0]
 80022ca:	2b01      	cmp	r3, #1
 80022cc:	d001      	beq.n	80022d2 <RCM_ExecUserConv+0xe>
 80022ce:	bc70      	pop	{r4, r5, r6}
 80022d0:	4770      	bx	lr
 80022d2:	4a24      	ldr	r2, [pc, #144]	; (8002364 <RCM_ExecUserConv+0xa0>)
 80022d4:	4b24      	ldr	r3, [pc, #144]	; (8002368 <RCM_ExecUserConv+0xa4>)
 80022d6:	7810      	ldrb	r0, [r2, #0]
 80022d8:	f853 3020 	ldr.w	r3, [r3, r0, lsl #2]
 80022dc:	7919      	ldrb	r1, [r3, #4]
 80022de:	681a      	ldr	r2, [r3, #0]
 80022e0:	2909      	cmp	r1, #9
 80022e2:	f04f 0302 	mov.w	r3, #2
 80022e6:	ea4f 6681 	mov.w	r6, r1, lsl #26
 80022ea:	fa03 f301 	lsl.w	r3, r3, r1
 80022ee:	eb01 0541 	add.w	r5, r1, r1, lsl #1
 80022f2:	d930      	bls.n	8002356 <RCM_ExecUserConv+0x92>
 80022f4:	f043 7300 	orr.w	r3, r3, #33554432	; 0x2000000
 80022f8:	4333      	orrs	r3, r6
 80022fa:	3d1e      	subs	r5, #30
 80022fc:	ea43 5305 	orr.w	r3, r3, r5, lsl #20
 8002300:	f44f 7140 	mov.w	r1, #768	; 0x300
 8002304:	fa91 f1a1 	rbit	r1, r1
 8002308:	6b11      	ldr	r1, [r2, #48]	; 0x30
 800230a:	0d1b      	lsrs	r3, r3, #20
 800230c:	f403 63f8 	and.w	r3, r3, #1984	; 0x7c0
 8002310:	f421 61f8 	bic.w	r1, r1, #1984	; 0x7c0
 8002314:	430b      	orrs	r3, r1
 8002316:	6313      	str	r3, [r2, #48]	; 0x30
 8002318:	6c13      	ldr	r3, [r2, #64]	; 0x40
 800231a:	6893      	ldr	r3, [r2, #8]
 800231c:	f023 4300 	bic.w	r3, r3, #2147483648	; 0x80000000
 8002320:	f023 033f 	bic.w	r3, r3, #63	; 0x3f
 8002324:	f043 0304 	orr.w	r3, r3, #4
 8002328:	6093      	str	r3, [r2, #8]
 800232a:	6813      	ldr	r3, [r2, #0]
 800232c:	075b      	lsls	r3, r3, #29
 800232e:	d5fc      	bpl.n	800232a <RCM_ExecUserConv+0x66>
 8002330:	4b0e      	ldr	r3, [pc, #56]	; (800236c <RCM_ExecUserConv+0xa8>)
 8002332:	6c11      	ldr	r1, [r2, #64]	; 0x40
 8002334:	4e0e      	ldr	r6, [pc, #56]	; (8002370 <RCM_ExecUserConv+0xac>)
 8002336:	f853 5030 	ldr.w	r5, [r3, r0, lsl #3]
 800233a:	b289      	uxth	r1, r1
 800233c:	2202      	movs	r2, #2
 800233e:	8031      	strh	r1, [r6, #0]
 8002340:	7022      	strb	r2, [r4, #0]
 8002342:	2d00      	cmp	r5, #0
 8002344:	d0c3      	beq.n	80022ce <RCM_ExecUserConv+0xa>
 8002346:	eb03 03c0 	add.w	r3, r3, r0, lsl #3
 800234a:	2600      	movs	r6, #0
 800234c:	685a      	ldr	r2, [r3, #4]
 800234e:	7026      	strb	r6, [r4, #0]
 8002350:	462b      	mov	r3, r5
 8002352:	bc70      	pop	{r4, r5, r6}
 8002354:	4718      	bx	r3
 8002356:	ea46 5505 	orr.w	r5, r6, r5, lsl #20
 800235a:	432b      	orrs	r3, r5
 800235c:	e7d0      	b.n	8002300 <RCM_ExecUserConv+0x3c>
 800235e:	bf00      	nop
 8002360:	20000b0c 	.word	0x20000b0c
 8002364:	20000ae8 	.word	0x20000ae8
 8002368:	20000b10 	.word	0x20000b10
 800236c:	20000aec 	.word	0x20000aec
 8002370:	20000b20 	.word	0x20000b20

08002374 <ADC1_2_IRQHandler>:
 8002374:	f04f 43a0 	mov.w	r3, #1342177280	; 0x50000000
 8002378:	2240      	movs	r2, #64	; 0x40
 800237a:	601a      	str	r2, [r3, #0]
 800237c:	f7ff b97c 	b.w	8001678 <TSK_HighFrequencyTask>

08002380 <TIM1_UP_TIM16_IRQHandler>:
 8002380:	4b03      	ldr	r3, [pc, #12]	; (8002390 <TIM1_UP_TIM16_IRQHandler+0x10>)
 8002382:	4804      	ldr	r0, [pc, #16]	; (8002394 <TIM1_UP_TIM16_IRQHandler+0x14>)
 8002384:	f06f 0201 	mvn.w	r2, #1
 8002388:	611a      	str	r2, [r3, #16]
 800238a:	f005 b837 	b.w	80073fc <R3_1_TIMx_UP_IRQHandler>
 800238e:	bf00      	nop
 8002390:	40012c00 	.word	0x40012c00
 8002394:	2000028c 	.word	0x2000028c

08002398 <TIM1_BRK_TIM15_IRQHandler>:
 8002398:	b508      	push	{r3, lr}
 800239a:	4b0c      	ldr	r3, [pc, #48]	; (80023cc <TIM1_BRK_TIM15_IRQHandler+0x34>)
 800239c:	691a      	ldr	r2, [r3, #16]
 800239e:	0611      	lsls	r1, r2, #24
 80023a0:	d40d      	bmi.n	80023be <TIM1_BRK_TIM15_IRQHandler+0x26>
 80023a2:	4b0a      	ldr	r3, [pc, #40]	; (80023cc <TIM1_BRK_TIM15_IRQHandler+0x34>)
 80023a4:	691a      	ldr	r2, [r3, #16]
 80023a6:	05d2      	lsls	r2, r2, #23
 80023a8:	d505      	bpl.n	80023b6 <TIM1_BRK_TIM15_IRQHandler+0x1e>
 80023aa:	f46f 7280 	mvn.w	r2, #256	; 0x100
 80023ae:	611a      	str	r2, [r3, #16]
 80023b0:	4807      	ldr	r0, [pc, #28]	; (80023d0 <TIM1_BRK_TIM15_IRQHandler+0x38>)
 80023b2:	f005 f83d 	bl	8007430 <R3_1_BRK2_IRQHandler>
 80023b6:	e8bd 4008 	ldmia.w	sp!, {r3, lr}
 80023ba:	f7ff b92f 	b.w	800161c <MC_Scheduler>
 80023be:	f06f 0280 	mvn.w	r2, #128	; 0x80
 80023c2:	611a      	str	r2, [r3, #16]
 80023c4:	4802      	ldr	r0, [pc, #8]	; (80023d0 <TIM1_BRK_TIM15_IRQHandler+0x38>)
 80023c6:	f005 f853 	bl	8007470 <R3_1_BRK_IRQHandler>
 80023ca:	e7ea      	b.n	80023a2 <TIM1_BRK_TIM15_IRQHandler+0xa>
 80023cc:	40012c00 	.word	0x40012c00
 80023d0:	2000028c 	.word	0x2000028c

080023d4 <USART1_IRQHandler>:
 80023d4:	b510      	push	{r4, lr}
 80023d6:	4c19      	ldr	r4, [pc, #100]	; (800243c <USART1_IRQHandler+0x68>)
 80023d8:	f8d4 3120 	ldr.w	r3, [r4, #288]	; 0x120
 80023dc:	69da      	ldr	r2, [r3, #28]
 80023de:	0691      	lsls	r1, r2, #26
 80023e0:	d417      	bmi.n	8002412 <USART1_IRQHandler+0x3e>
 80023e2:	69da      	ldr	r2, [r3, #28]
 80023e4:	0612      	lsls	r2, r2, #24
 80023e6:	d40e      	bmi.n	8002406 <USART1_IRQHandler+0x32>
 80023e8:	69db      	ldr	r3, [r3, #28]
 80023ea:	071b      	lsls	r3, r3, #28
 80023ec:	d400      	bmi.n	80023f0 <USART1_IRQHandler+0x1c>
 80023ee:	bd10      	pop	{r4, pc}
 80023f0:	4812      	ldr	r0, [pc, #72]	; (800243c <USART1_IRQHandler+0x68>)
 80023f2:	f005 fd95 	bl	8007f20 <UFCP_OVR_IRQ_Handler>
 80023f6:	f8d4 3120 	ldr.w	r3, [r4, #288]	; 0x120
 80023fa:	2208      	movs	r2, #8
 80023fc:	621a      	str	r2, [r3, #32]
 80023fe:	e8bd 4010 	ldmia.w	sp!, {r4, lr}
 8002402:	f000 bb2f 	b.w	8002a64 <UI_SerialCommunicationTimeOutStop>
 8002406:	480d      	ldr	r0, [pc, #52]	; (800243c <USART1_IRQHandler+0x68>)
 8002408:	f005 fc54 	bl	8007cb4 <UFCP_TX_IRQ_Handler>
 800240c:	f8d4 3120 	ldr.w	r3, [r4, #288]	; 0x120
 8002410:	e7ea      	b.n	80023e8 <USART1_IRQHandler+0x14>
 8002412:	8c99      	ldrh	r1, [r3, #36]	; 0x24
 8002414:	4620      	mov	r0, r4
 8002416:	b2c9      	uxtb	r1, r1
 8002418:	f005 fd20 	bl	8007e5c <UFCP_RX_IRQ_Handler>
 800241c:	8803      	ldrh	r3, [r0, #0]
 800241e:	2b01      	cmp	r3, #1
 8002420:	d007      	beq.n	8002432 <USART1_IRQHandler+0x5e>
 8002422:	2b02      	cmp	r3, #2
 8002424:	d002      	beq.n	800242c <USART1_IRQHandler+0x58>
 8002426:	f8d4 3120 	ldr.w	r3, [r4, #288]	; 0x120
 800242a:	e7da      	b.n	80023e2 <USART1_IRQHandler+0xe>
 800242c:	f000 fb1a 	bl	8002a64 <UI_SerialCommunicationTimeOutStop>
 8002430:	e7f9      	b.n	8002426 <USART1_IRQHandler+0x52>
 8002432:	f000 fb1d 	bl	8002a70 <UI_SerialCommunicationTimeOutStart>
 8002436:	f8d4 3120 	ldr.w	r3, [r4, #288]	; 0x120
 800243a:	e7d2      	b.n	80023e2 <USART1_IRQHandler+0xe>
 800243c:	2000058c 	.word	0x2000058c

08002440 <HardFault_Handler>:
 8002440:	b570      	push	{r4, r5, r6, lr}
 8002442:	f7ff fa49 	bl	80018d8 <TSK_HardwareFaultTask>
 8002446:	4c1a      	ldr	r4, [pc, #104]	; (80024b0 <HardFault_Handler+0x70>)
 8002448:	2608      	movs	r6, #8
 800244a:	4625      	mov	r5, r4
 800244c:	f8d4 3120 	ldr.w	r3, [r4, #288]	; 0x120
 8002450:	69da      	ldr	r2, [r3, #28]
 8002452:	0712      	lsls	r2, r2, #28
 8002454:	d41d      	bmi.n	8002492 <HardFault_Handler+0x52>
 8002456:	69da      	ldr	r2, [r3, #28]
 8002458:	0610      	lsls	r0, r2, #24
 800245a:	d40f      	bmi.n	800247c <HardFault_Handler+0x3c>
 800245c:	69da      	ldr	r2, [r3, #28]
 800245e:	0692      	lsls	r2, r2, #26
 8002460:	d5f6      	bpl.n	8002450 <HardFault_Handler+0x10>
 8002462:	8c99      	ldrh	r1, [r3, #36]	; 0x24
 8002464:	4628      	mov	r0, r5
 8002466:	b2c9      	uxtb	r1, r1
 8002468:	f005 fcf8 	bl	8007e5c <UFCP_RX_IRQ_Handler>
 800246c:	8803      	ldrh	r3, [r0, #0]
 800246e:	2b01      	cmp	r3, #1
 8002470:	d01a      	beq.n	80024a8 <HardFault_Handler+0x68>
 8002472:	2b02      	cmp	r3, #2
 8002474:	d1ea      	bne.n	800244c <HardFault_Handler+0xc>
 8002476:	f000 faf5 	bl	8002a64 <UI_SerialCommunicationTimeOutStop>
 800247a:	e7e7      	b.n	800244c <HardFault_Handler+0xc>
 800247c:	4628      	mov	r0, r5
 800247e:	f005 fc19 	bl	8007cb4 <UFCP_TX_IRQ_Handler>
 8002482:	f8d4 3120 	ldr.w	r3, [r4, #288]	; 0x120
 8002486:	69da      	ldr	r2, [r3, #28]
 8002488:	0691      	lsls	r1, r2, #26
 800248a:	d4ea      	bmi.n	8002462 <HardFault_Handler+0x22>
 800248c:	69da      	ldr	r2, [r3, #28]
 800248e:	0712      	lsls	r2, r2, #28
 8002490:	d5e1      	bpl.n	8002456 <HardFault_Handler+0x16>
 8002492:	4628      	mov	r0, r5
 8002494:	f005 fd44 	bl	8007f20 <UFCP_OVR_IRQ_Handler>
 8002498:	f8d4 3120 	ldr.w	r3, [r4, #288]	; 0x120
 800249c:	621e      	str	r6, [r3, #32]
 800249e:	f000 fae1 	bl	8002a64 <UI_SerialCommunicationTimeOutStop>
 80024a2:	f8d4 3120 	ldr.w	r3, [r4, #288]	; 0x120
 80024a6:	e7d6      	b.n	8002456 <HardFault_Handler+0x16>
 80024a8:	f000 fae2 	bl	8002a70 <UI_SerialCommunicationTimeOutStart>
 80024ac:	e7ce      	b.n	800244c <HardFault_Handler+0xc>
 80024ae:	bf00      	nop
 80024b0:	2000058c 	.word	0x2000058c

080024b4 <SysTick_Handler>:
 80024b4:	b510      	push	{r4, lr}
 80024b6:	4c0a      	ldr	r4, [pc, #40]	; (80024e0 <SysTick_Handler+0x2c>)
 80024b8:	7823      	ldrb	r3, [r4, #0]
 80024ba:	2b02      	cmp	r3, #2
 80024bc:	d006      	beq.n	80024cc <SysTick_Handler+0x18>
 80024be:	3301      	adds	r3, #1
 80024c0:	b2db      	uxtb	r3, r3
 80024c2:	7023      	strb	r3, [r4, #0]
 80024c4:	e8bd 4010 	ldmia.w	sp!, {r4, lr}
 80024c8:	f7ff b9f6 	b.w	80018b8 <MC_RunMotorControlTasks>
 80024cc:	f001 f834 	bl	8003538 <HAL_IncTick>
 80024d0:	f001 ff8c 	bl	80043ec <HAL_SYSTICK_IRQHandler>
 80024d4:	2301      	movs	r3, #1
 80024d6:	7023      	strb	r3, [r4, #0]
 80024d8:	e8bd 4010 	ldmia.w	sp!, {r4, lr}
 80024dc:	f7ff b9ec 	b.w	80018b8 <MC_RunMotorControlTasks>
 80024e0:	200006cc 	.word	0x200006cc

080024e4 <HAL_MspInit>:
 80024e4:	4b0b      	ldr	r3, [pc, #44]	; (8002514 <HAL_MspInit+0x30>)
 80024e6:	699a      	ldr	r2, [r3, #24]
 80024e8:	f042 0201 	orr.w	r2, r2, #1
 80024ec:	619a      	str	r2, [r3, #24]
 80024ee:	699a      	ldr	r2, [r3, #24]
 80024f0:	b082      	sub	sp, #8
 80024f2:	f002 0201 	and.w	r2, r2, #1
 80024f6:	9200      	str	r2, [sp, #0]
 80024f8:	9a00      	ldr	r2, [sp, #0]
 80024fa:	69da      	ldr	r2, [r3, #28]
 80024fc:	f042 5280 	orr.w	r2, r2, #268435456	; 0x10000000
 8002500:	61da      	str	r2, [r3, #28]
 8002502:	69db      	ldr	r3, [r3, #28]
 8002504:	f003 5380 	and.w	r3, r3, #268435456	; 0x10000000
 8002508:	9301      	str	r3, [sp, #4]
 800250a:	9b01      	ldr	r3, [sp, #4]
 800250c:	2004      	movs	r0, #4
 800250e:	b002      	add	sp, #8
 8002510:	f001 befa 	b.w	8004308 <HAL_NVIC_SetPriorityGrouping>
 8002514:	40021000 	.word	0x40021000

08002518 <HAL_ADC_MspInit>:
 8002518:	b510      	push	{r4, lr}
 800251a:	6802      	ldr	r2, [r0, #0]
 800251c:	b08a      	sub	sp, #40	; 0x28
 800251e:	2300      	movs	r3, #0
 8002520:	f1b2 4fa0 	cmp.w	r2, #1342177280	; 0x50000000
 8002524:	e9cd 3305 	strd	r3, r3, [sp, #20]
 8002528:	e9cd 3307 	strd	r3, r3, [sp, #28]
 800252c:	9309      	str	r3, [sp, #36]	; 0x24
 800252e:	d025      	beq.n	800257c <HAL_ADC_MspInit+0x64>
 8002530:	4b23      	ldr	r3, [pc, #140]	; (80025c0 <HAL_ADC_MspInit+0xa8>)
 8002532:	429a      	cmp	r2, r3
 8002534:	d001      	beq.n	800253a <HAL_ADC_MspInit+0x22>
 8002536:	b00a      	add	sp, #40	; 0x28
 8002538:	bd10      	pop	{r4, pc}
 800253a:	f103 4370 	add.w	r3, r3, #4026531840	; 0xf0000000
 800253e:	f503 3303 	add.w	r3, r3, #134144	; 0x20c00
 8002542:	4820      	ldr	r0, [pc, #128]	; (80025c4 <HAL_ADC_MspInit+0xac>)
 8002544:	695a      	ldr	r2, [r3, #20]
 8002546:	f042 5200 	orr.w	r2, r2, #536870912	; 0x20000000
 800254a:	615a      	str	r2, [r3, #20]
 800254c:	695a      	ldr	r2, [r3, #20]
 800254e:	f002 5200 	and.w	r2, r2, #536870912	; 0x20000000
 8002552:	9203      	str	r2, [sp, #12]
 8002554:	9a03      	ldr	r2, [sp, #12]
 8002556:	695a      	ldr	r2, [r3, #20]
 8002558:	f442 2280 	orr.w	r2, r2, #262144	; 0x40000
 800255c:	615a      	str	r2, [r3, #20]
 800255e:	695b      	ldr	r3, [r3, #20]
 8002560:	f403 2380 	and.w	r3, r3, #262144	; 0x40000
 8002564:	9304      	str	r3, [sp, #16]
 8002566:	f44f 5200 	mov.w	r2, #8192	; 0x2000
 800256a:	2303      	movs	r3, #3
 800256c:	a905      	add	r1, sp, #20
 800256e:	9c04      	ldr	r4, [sp, #16]
 8002570:	e9cd 2305 	strd	r2, r3, [sp, #20]
 8002574:	f001 ff78 	bl	8004468 <HAL_GPIO_Init>
 8002578:	b00a      	add	sp, #40	; 0x28
 800257a:	bd10      	pop	{r4, pc}
 800257c:	f103 4380 	add.w	r3, r3, #1073741824	; 0x40000000
 8002580:	f503 3304 	add.w	r3, r3, #135168	; 0x21000
 8002584:	a905      	add	r1, sp, #20
 8002586:	695a      	ldr	r2, [r3, #20]
 8002588:	f042 5280 	orr.w	r2, r2, #268435456	; 0x10000000
 800258c:	615a      	str	r2, [r3, #20]
 800258e:	695a      	ldr	r2, [r3, #20]
 8002590:	f002 5280 	and.w	r2, r2, #268435456	; 0x10000000
 8002594:	9201      	str	r2, [sp, #4]
 8002596:	9a01      	ldr	r2, [sp, #4]
 8002598:	695a      	ldr	r2, [r3, #20]
 800259a:	f442 3200 	orr.w	r2, r2, #131072	; 0x20000
 800259e:	615a      	str	r2, [r3, #20]
 80025a0:	695b      	ldr	r3, [r3, #20]
 80025a2:	f403 3300 	and.w	r3, r3, #131072	; 0x20000
 80025a6:	9302      	str	r3, [sp, #8]
 80025a8:	2207      	movs	r2, #7
 80025aa:	2303      	movs	r3, #3
 80025ac:	f04f 4090 	mov.w	r0, #1207959552	; 0x48000000
 80025b0:	9c02      	ldr	r4, [sp, #8]
 80025b2:	e9cd 2305 	strd	r2, r3, [sp, #20]
 80025b6:	f001 ff57 	bl	8004468 <HAL_GPIO_Init>
 80025ba:	b00a      	add	sp, #40	; 0x28
 80025bc:	bd10      	pop	{r4, pc}
 80025be:	bf00      	nop
 80025c0:	50000400 	.word	0x50000400
 80025c4:	48000400 	.word	0x48000400

080025c8 <HAL_CAN_MspInit>:
 80025c8:	b570      	push	{r4, r5, r6, lr}
 80025ca:	6801      	ldr	r1, [r0, #0]
 80025cc:	4a18      	ldr	r2, [pc, #96]	; (8002630 <HAL_CAN_MspInit+0x68>)
 80025ce:	b088      	sub	sp, #32
 80025d0:	2300      	movs	r3, #0
 80025d2:	4291      	cmp	r1, r2
 80025d4:	e9cd 3303 	strd	r3, r3, [sp, #12]
 80025d8:	e9cd 3305 	strd	r3, r3, [sp, #20]
 80025dc:	9307      	str	r3, [sp, #28]
 80025de:	d001      	beq.n	80025e4 <HAL_CAN_MspInit+0x1c>
 80025e0:	b008      	add	sp, #32
 80025e2:	bd70      	pop	{r4, r5, r6, pc}
 80025e4:	f103 4380 	add.w	r3, r3, #1073741824	; 0x40000000
 80025e8:	f503 3304 	add.w	r3, r3, #135168	; 0x21000
 80025ec:	4811      	ldr	r0, [pc, #68]	; (8002634 <HAL_CAN_MspInit+0x6c>)
 80025ee:	69da      	ldr	r2, [r3, #28]
 80025f0:	f042 7200 	orr.w	r2, r2, #33554432	; 0x2000000
 80025f4:	61da      	str	r2, [r3, #28]
 80025f6:	69da      	ldr	r2, [r3, #28]
 80025f8:	f002 7200 	and.w	r2, r2, #33554432	; 0x2000000
 80025fc:	9201      	str	r2, [sp, #4]
 80025fe:	9a01      	ldr	r2, [sp, #4]
 8002600:	695a      	ldr	r2, [r3, #20]
 8002602:	f442 2280 	orr.w	r2, r2, #262144	; 0x40000
 8002606:	615a      	str	r2, [r3, #20]
 8002608:	695b      	ldr	r3, [r3, #20]
 800260a:	f403 2380 	and.w	r3, r3, #262144	; 0x40000
 800260e:	9302      	str	r3, [sp, #8]
 8002610:	2203      	movs	r2, #3
 8002612:	2309      	movs	r3, #9
 8002614:	a903      	add	r1, sp, #12
 8002616:	f44f 7540 	mov.w	r5, #768	; 0x300
 800261a:	2402      	movs	r4, #2
 800261c:	9e02      	ldr	r6, [sp, #8]
 800261e:	e9cd 5403 	strd	r5, r4, [sp, #12]
 8002622:	e9cd 2306 	strd	r2, r3, [sp, #24]
 8002626:	f001 ff1f 	bl	8004468 <HAL_GPIO_Init>
 800262a:	b008      	add	sp, #32
 800262c:	bd70      	pop	{r4, r5, r6, pc}
 800262e:	bf00      	nop
 8002630:	40006400 	.word	0x40006400
 8002634:	48000400 	.word	0x48000400

08002638 <HAL_COMP_MspInit>:
 8002638:	b510      	push	{r4, lr}
 800263a:	6802      	ldr	r2, [r0, #0]
 800263c:	492c      	ldr	r1, [pc, #176]	; (80026f0 <HAL_COMP_MspInit+0xb8>)
 800263e:	b088      	sub	sp, #32
 8002640:	2300      	movs	r3, #0
 8002642:	428a      	cmp	r2, r1
 8002644:	e9cd 3303 	strd	r3, r3, [sp, #12]
 8002648:	e9cd 3305 	strd	r3, r3, [sp, #20]
 800264c:	9307      	str	r3, [sp, #28]
 800264e:	d007      	beq.n	8002660 <HAL_COMP_MspInit+0x28>
 8002650:	4b28      	ldr	r3, [pc, #160]	; (80026f4 <HAL_COMP_MspInit+0xbc>)
 8002652:	429a      	cmp	r2, r3
 8002654:	d034      	beq.n	80026c0 <HAL_COMP_MspInit+0x88>
 8002656:	4b28      	ldr	r3, [pc, #160]	; (80026f8 <HAL_COMP_MspInit+0xc0>)
 8002658:	429a      	cmp	r2, r3
 800265a:	d019      	beq.n	8002690 <HAL_COMP_MspInit+0x58>
 800265c:	b008      	add	sp, #32
 800265e:	bd10      	pop	{r4, pc}
 8002660:	f103 4380 	add.w	r3, r3, #1073741824	; 0x40000000
 8002664:	f503 3304 	add.w	r3, r3, #135168	; 0x21000
 8002668:	a903      	add	r1, sp, #12
 800266a:	695a      	ldr	r2, [r3, #20]
 800266c:	f442 3200 	orr.w	r2, r2, #131072	; 0x20000
 8002670:	615a      	str	r2, [r3, #20]
 8002672:	695b      	ldr	r3, [r3, #20]
 8002674:	f403 3300 	and.w	r3, r3, #131072	; 0x20000
 8002678:	9300      	str	r3, [sp, #0]
 800267a:	2280      	movs	r2, #128	; 0x80
 800267c:	2303      	movs	r3, #3
 800267e:	f04f 4090 	mov.w	r0, #1207959552	; 0x48000000
 8002682:	9c00      	ldr	r4, [sp, #0]
 8002684:	e9cd 2303 	strd	r2, r3, [sp, #12]
 8002688:	f001 feee 	bl	8004468 <HAL_GPIO_Init>
 800268c:	b008      	add	sp, #32
 800268e:	bd10      	pop	{r4, pc}
 8002690:	f503 3387 	add.w	r3, r3, #69120	; 0x10e00
 8002694:	f503 73e8 	add.w	r3, r3, #464	; 0x1d0
 8002698:	695a      	ldr	r2, [r3, #20]
 800269a:	4818      	ldr	r0, [pc, #96]	; (80026fc <HAL_COMP_MspInit+0xc4>)
 800269c:	f442 2280 	orr.w	r2, r2, #262144	; 0x40000
 80026a0:	615a      	str	r2, [r3, #20]
 80026a2:	695b      	ldr	r3, [r3, #20]
 80026a4:	f403 2380 	and.w	r3, r3, #262144	; 0x40000
 80026a8:	9302      	str	r3, [sp, #8]
 80026aa:	f44f 6200 	mov.w	r2, #2048	; 0x800
 80026ae:	2303      	movs	r3, #3
 80026b0:	a903      	add	r1, sp, #12
 80026b2:	9c02      	ldr	r4, [sp, #8]
 80026b4:	e9cd 2303 	strd	r2, r3, [sp, #12]
 80026b8:	f001 fed6 	bl	8004468 <HAL_GPIO_Init>
 80026bc:	b008      	add	sp, #32
 80026be:	bd10      	pop	{r4, pc}
 80026c0:	f503 3387 	add.w	r3, r3, #69120	; 0x10e00
 80026c4:	f503 73ec 	add.w	r3, r3, #472	; 0x1d8
 80026c8:	695a      	ldr	r2, [r3, #20]
 80026ca:	480c      	ldr	r0, [pc, #48]	; (80026fc <HAL_COMP_MspInit+0xc4>)
 80026cc:	f442 2280 	orr.w	r2, r2, #262144	; 0x40000
 80026d0:	615a      	str	r2, [r3, #20]
 80026d2:	695b      	ldr	r3, [r3, #20]
 80026d4:	f403 2380 	and.w	r3, r3, #262144	; 0x40000
 80026d8:	9301      	str	r3, [sp, #4]
 80026da:	2201      	movs	r2, #1
 80026dc:	2303      	movs	r3, #3
 80026de:	a903      	add	r1, sp, #12
 80026e0:	9c01      	ldr	r4, [sp, #4]
 80026e2:	e9cd 2303 	strd	r2, r3, [sp, #12]
 80026e6:	f001 febf 	bl	8004468 <HAL_GPIO_Init>
 80026ea:	b008      	add	sp, #32
 80026ec:	bd10      	pop	{r4, pc}
 80026ee:	bf00      	nop
 80026f0:	40010020 	.word	0x40010020
 80026f4:	40010028 	.word	0x40010028
 80026f8:	40010030 	.word	0x40010030
 80026fc:	48000400 	.word	0x48000400

08002700 <HAL_DAC_MspInit>:
 8002700:	b510      	push	{r4, lr}
 8002702:	6801      	ldr	r1, [r0, #0]
 8002704:	4a16      	ldr	r2, [pc, #88]	; (8002760 <HAL_DAC_MspInit+0x60>)
 8002706:	b088      	sub	sp, #32
 8002708:	2300      	movs	r3, #0
 800270a:	4291      	cmp	r1, r2
 800270c:	e9cd 3303 	strd	r3, r3, [sp, #12]
 8002710:	e9cd 3305 	strd	r3, r3, [sp, #20]
 8002714:	9307      	str	r3, [sp, #28]
 8002716:	d001      	beq.n	800271c <HAL_DAC_MspInit+0x1c>
 8002718:	b008      	add	sp, #32
 800271a:	bd10      	pop	{r4, pc}
 800271c:	f103 4380 	add.w	r3, r3, #1073741824	; 0x40000000
 8002720:	f503 3304 	add.w	r3, r3, #135168	; 0x21000
 8002724:	a903      	add	r1, sp, #12
 8002726:	69da      	ldr	r2, [r3, #28]
 8002728:	f042 5200 	orr.w	r2, r2, #536870912	; 0x20000000
 800272c:	61da      	str	r2, [r3, #28]
 800272e:	69da      	ldr	r2, [r3, #28]
 8002730:	f002 5200 	and.w	r2, r2, #536870912	; 0x20000000
 8002734:	9201      	str	r2, [sp, #4]
 8002736:	9a01      	ldr	r2, [sp, #4]
 8002738:	695a      	ldr	r2, [r3, #20]
 800273a:	f442 3200 	orr.w	r2, r2, #131072	; 0x20000
 800273e:	615a      	str	r2, [r3, #20]
 8002740:	695b      	ldr	r3, [r3, #20]
 8002742:	f403 3300 	and.w	r3, r3, #131072	; 0x20000
 8002746:	9302      	str	r3, [sp, #8]
 8002748:	2210      	movs	r2, #16
 800274a:	2303      	movs	r3, #3
 800274c:	f04f 4090 	mov.w	r0, #1207959552	; 0x48000000
 8002750:	9c02      	ldr	r4, [sp, #8]
 8002752:	e9cd 2303 	strd	r2, r3, [sp, #12]
 8002756:	f001 fe87 	bl	8004468 <HAL_GPIO_Init>
 800275a:	b008      	add	sp, #32
 800275c:	bd10      	pop	{r4, pc}
 800275e:	bf00      	nop
 8002760:	40007400 	.word	0x40007400

08002764 <HAL_SPI_MspInit>:
 8002764:	b570      	push	{r4, r5, r6, lr}
 8002766:	6801      	ldr	r1, [r0, #0]
 8002768:	4a18      	ldr	r2, [pc, #96]	; (80027cc <HAL_SPI_MspInit+0x68>)
 800276a:	b088      	sub	sp, #32
 800276c:	2300      	movs	r3, #0
 800276e:	4291      	cmp	r1, r2
 8002770:	e9cd 3303 	strd	r3, r3, [sp, #12]
 8002774:	e9cd 3305 	strd	r3, r3, [sp, #20]
 8002778:	9307      	str	r3, [sp, #28]
 800277a:	d001      	beq.n	8002780 <HAL_SPI_MspInit+0x1c>
 800277c:	b008      	add	sp, #32
 800277e:	bd70      	pop	{r4, r5, r6, pc}
 8002780:	f103 4380 	add.w	r3, r3, #1073741824	; 0x40000000
 8002784:	f503 3304 	add.w	r3, r3, #135168	; 0x21000
 8002788:	4811      	ldr	r0, [pc, #68]	; (80027d0 <HAL_SPI_MspInit+0x6c>)
 800278a:	699a      	ldr	r2, [r3, #24]
 800278c:	f442 5280 	orr.w	r2, r2, #4096	; 0x1000
 8002790:	619a      	str	r2, [r3, #24]
 8002792:	699a      	ldr	r2, [r3, #24]
 8002794:	f402 5280 	and.w	r2, r2, #4096	; 0x1000
 8002798:	9201      	str	r2, [sp, #4]
 800279a:	9a01      	ldr	r2, [sp, #4]
 800279c:	695a      	ldr	r2, [r3, #20]
 800279e:	f442 2280 	orr.w	r2, r2, #262144	; 0x40000
 80027a2:	615a      	str	r2, [r3, #20]
 80027a4:	695b      	ldr	r3, [r3, #20]
 80027a6:	f403 2380 	and.w	r3, r3, #262144	; 0x40000
 80027aa:	9302      	str	r3, [sp, #8]
 80027ac:	2338      	movs	r3, #56	; 0x38
 80027ae:	2203      	movs	r2, #3
 80027b0:	9303      	str	r3, [sp, #12]
 80027b2:	a903      	add	r1, sp, #12
 80027b4:	2305      	movs	r3, #5
 80027b6:	2502      	movs	r5, #2
 80027b8:	2401      	movs	r4, #1
 80027ba:	9e02      	ldr	r6, [sp, #8]
 80027bc:	e9cd 5404 	strd	r5, r4, [sp, #16]
 80027c0:	e9cd 2306 	strd	r2, r3, [sp, #24]
 80027c4:	f001 fe50 	bl	8004468 <HAL_GPIO_Init>
 80027c8:	b008      	add	sp, #32
 80027ca:	bd70      	pop	{r4, r5, r6, pc}
 80027cc:	40013000 	.word	0x40013000
 80027d0:	48000400 	.word	0x48000400

080027d4 <HAL_TIM_Base_MspInit>:
 80027d4:	b570      	push	{r4, r5, r6, lr}
 80027d6:	6802      	ldr	r2, [r0, #0]
 80027d8:	4920      	ldr	r1, [pc, #128]	; (800285c <HAL_TIM_Base_MspInit+0x88>)
 80027da:	b088      	sub	sp, #32
 80027dc:	2300      	movs	r3, #0
 80027de:	428a      	cmp	r2, r1
 80027e0:	e9cd 3303 	strd	r3, r3, [sp, #12]
 80027e4:	e9cd 3305 	strd	r3, r3, [sp, #20]
 80027e8:	9307      	str	r3, [sp, #28]
 80027ea:	d004      	beq.n	80027f6 <HAL_TIM_Base_MspInit+0x22>
 80027ec:	f1b2 4f80 	cmp.w	r2, #1073741824	; 0x40000000
 80027f0:	d010      	beq.n	8002814 <HAL_TIM_Base_MspInit+0x40>
 80027f2:	b008      	add	sp, #32
 80027f4:	bd70      	pop	{r4, r5, r6, pc}
 80027f6:	f103 4380 	add.w	r3, r3, #1073741824	; 0x40000000
 80027fa:	f503 3304 	add.w	r3, r3, #135168	; 0x21000
 80027fe:	699a      	ldr	r2, [r3, #24]
 8002800:	f442 6200 	orr.w	r2, r2, #2048	; 0x800
 8002804:	619a      	str	r2, [r3, #24]
 8002806:	699b      	ldr	r3, [r3, #24]
 8002808:	f403 6300 	and.w	r3, r3, #2048	; 0x800
 800280c:	9300      	str	r3, [sp, #0]
 800280e:	9b00      	ldr	r3, [sp, #0]
 8002810:	b008      	add	sp, #32
 8002812:	bd70      	pop	{r4, r5, r6, pc}
 8002814:	4b12      	ldr	r3, [pc, #72]	; (8002860 <HAL_TIM_Base_MspInit+0x8c>)
 8002816:	69da      	ldr	r2, [r3, #28]
 8002818:	f042 0201 	orr.w	r2, r2, #1
 800281c:	61da      	str	r2, [r3, #28]
 800281e:	69da      	ldr	r2, [r3, #28]
 8002820:	f002 0201 	and.w	r2, r2, #1
 8002824:	9201      	str	r2, [sp, #4]
 8002826:	9a01      	ldr	r2, [sp, #4]
 8002828:	695a      	ldr	r2, [r3, #20]
 800282a:	f442 3200 	orr.w	r2, r2, #131072	; 0x20000
 800282e:	615a      	str	r2, [r3, #20]
 8002830:	695b      	ldr	r3, [r3, #20]
 8002832:	f403 3300 	and.w	r3, r3, #131072	; 0x20000
 8002836:	9302      	str	r3, [sp, #8]
 8002838:	2201      	movs	r2, #1
 800283a:	2302      	movs	r3, #2
 800283c:	a903      	add	r1, sp, #12
 800283e:	2520      	movs	r5, #32
 8002840:	2403      	movs	r4, #3
 8002842:	f04f 4090 	mov.w	r0, #1207959552	; 0x48000000
 8002846:	9e02      	ldr	r6, [sp, #8]
 8002848:	9207      	str	r2, [sp, #28]
 800284a:	e9cd 5303 	strd	r5, r3, [sp, #12]
 800284e:	e9cd 3405 	strd	r3, r4, [sp, #20]
 8002852:	f001 fe09 	bl	8004468 <HAL_GPIO_Init>
 8002856:	b008      	add	sp, #32
 8002858:	bd70      	pop	{r4, r5, r6, pc}
 800285a:	bf00      	nop
 800285c:	40012c00 	.word	0x40012c00
 8002860:	40021000 	.word	0x40021000

08002864 <HAL_TIM_MspPostInit>:
 8002864:	b5f0      	push	{r4, r5, r6, r7, lr}
 8002866:	6801      	ldr	r1, [r0, #0]
 8002868:	4a2b      	ldr	r2, [pc, #172]	; (8002918 <HAL_TIM_MspPostInit+0xb4>)
 800286a:	b089      	sub	sp, #36	; 0x24
 800286c:	2300      	movs	r3, #0
 800286e:	4291      	cmp	r1, r2
 8002870:	e9cd 3303 	strd	r3, r3, [sp, #12]
 8002874:	e9cd 3305 	strd	r3, r3, [sp, #20]
 8002878:	9307      	str	r3, [sp, #28]
 800287a:	d001      	beq.n	8002880 <HAL_TIM_MspPostInit+0x1c>
 800287c:	b009      	add	sp, #36	; 0x24
 800287e:	bdf0      	pop	{r4, r5, r6, r7, pc}
 8002880:	f103 4380 	add.w	r3, r3, #1073741824	; 0x40000000
 8002884:	f503 3304 	add.w	r3, r3, #135168	; 0x21000
 8002888:	2402      	movs	r4, #2
 800288a:	695a      	ldr	r2, [r3, #20]
 800288c:	4823      	ldr	r0, [pc, #140]	; (800291c <HAL_TIM_MspPostInit+0xb8>)
 800288e:	f442 2280 	orr.w	r2, r2, #262144	; 0x40000
 8002892:	615a      	str	r2, [r3, #20]
 8002894:	695a      	ldr	r2, [r3, #20]
 8002896:	f402 2280 	and.w	r2, r2, #262144	; 0x40000
 800289a:	9201      	str	r2, [sp, #4]
 800289c:	9a01      	ldr	r2, [sp, #4]
 800289e:	695a      	ldr	r2, [r3, #20]
 80028a0:	f442 3200 	orr.w	r2, r2, #131072	; 0x20000
 80028a4:	615a      	str	r2, [r3, #20]
 80028a6:	695b      	ldr	r3, [r3, #20]
 80028a8:	f403 3300 	and.w	r3, r3, #131072	; 0x20000
 80028ac:	2503      	movs	r5, #3
 80028ae:	9302      	str	r3, [sp, #8]
 80028b0:	2701      	movs	r7, #1
 80028b2:	2606      	movs	r6, #6
 80028b4:	f44f 4380 	mov.w	r3, #16384	; 0x4000
 80028b8:	a903      	add	r1, sp, #12
 80028ba:	9a02      	ldr	r2, [sp, #8]
 80028bc:	9607      	str	r6, [sp, #28]
 80028be:	e9cd 3403 	strd	r3, r4, [sp, #12]
 80028c2:	e9cd 7505 	strd	r7, r5, [sp, #20]
 80028c6:	f001 fdcf 	bl	8004468 <HAL_GPIO_Init>
 80028ca:	f44f 4200 	mov.w	r2, #32768	; 0x8000
 80028ce:	2304      	movs	r3, #4
 80028d0:	a903      	add	r1, sp, #12
 80028d2:	4812      	ldr	r0, [pc, #72]	; (800291c <HAL_TIM_MspPostInit+0xb8>)
 80028d4:	9203      	str	r2, [sp, #12]
 80028d6:	9307      	str	r3, [sp, #28]
 80028d8:	e9cd 4704 	strd	r4, r7, [sp, #16]
 80028dc:	9506      	str	r5, [sp, #24]
 80028de:	f001 fdc3 	bl	8004468 <HAL_GPIO_Init>
 80028e2:	f44f 63e0 	mov.w	r3, #1792	; 0x700
 80028e6:	a903      	add	r1, sp, #12
 80028e8:	f04f 4090 	mov.w	r0, #1207959552	; 0x48000000
 80028ec:	9303      	str	r3, [sp, #12]
 80028ee:	e9cd 4404 	strd	r4, r4, [sp, #16]
 80028f2:	e9cd 5606 	strd	r5, r6, [sp, #24]
 80028f6:	f001 fdb7 	bl	8004468 <HAL_GPIO_Init>
 80028fa:	f44f 6300 	mov.w	r3, #2048	; 0x800
 80028fe:	a903      	add	r1, sp, #12
 8002900:	f04f 4090 	mov.w	r0, #1207959552	; 0x48000000
 8002904:	e9cd 4704 	strd	r4, r7, [sp, #16]
 8002908:	e9cd 5606 	strd	r5, r6, [sp, #24]
 800290c:	9303      	str	r3, [sp, #12]
 800290e:	f001 fdab 	bl	8004468 <HAL_GPIO_Init>
 8002912:	b009      	add	sp, #36	; 0x24
 8002914:	bdf0      	pop	{r4, r5, r6, r7, pc}
 8002916:	bf00      	nop
 8002918:	40012c00 	.word	0x40012c00
 800291c:	48000400 	.word	0x48000400

08002920 <HAL_UART_MspInit>:
 8002920:	b530      	push	{r4, r5, lr}
 8002922:	6801      	ldr	r1, [r0, #0]
 8002924:	4a16      	ldr	r2, [pc, #88]	; (8002980 <HAL_UART_MspInit+0x60>)
 8002926:	b089      	sub	sp, #36	; 0x24
 8002928:	2300      	movs	r3, #0
 800292a:	4291      	cmp	r1, r2
 800292c:	e9cd 3303 	strd	r3, r3, [sp, #12]
 8002930:	e9cd 3305 	strd	r3, r3, [sp, #20]
 8002934:	9307      	str	r3, [sp, #28]
 8002936:	d001      	beq.n	800293c <HAL_UART_MspInit+0x1c>
 8002938:	b009      	add	sp, #36	; 0x24
 800293a:	bd30      	pop	{r4, r5, pc}
 800293c:	f103 4380 	add.w	r3, r3, #1073741824	; 0x40000000
 8002940:	f503 3304 	add.w	r3, r3, #135168	; 0x21000
 8002944:	480f      	ldr	r0, [pc, #60]	; (8002984 <HAL_UART_MspInit+0x64>)
 8002946:	699a      	ldr	r2, [r3, #24]
 8002948:	f442 4280 	orr.w	r2, r2, #16384	; 0x4000
 800294c:	619a      	str	r2, [r3, #24]
 800294e:	699a      	ldr	r2, [r3, #24]
 8002950:	f402 4280 	and.w	r2, r2, #16384	; 0x4000
 8002954:	9201      	str	r2, [sp, #4]
 8002956:	9a01      	ldr	r2, [sp, #4]
 8002958:	695a      	ldr	r2, [r3, #20]
 800295a:	f442 2280 	orr.w	r2, r2, #262144	; 0x40000
 800295e:	615a      	str	r2, [r3, #20]
 8002960:	695b      	ldr	r3, [r3, #20]
 8002962:	f403 2380 	and.w	r3, r3, #262144	; 0x40000
 8002966:	9302      	str	r3, [sp, #8]
 8002968:	2202      	movs	r2, #2
 800296a:	2307      	movs	r3, #7
 800296c:	a903      	add	r1, sp, #12
 800296e:	24c0      	movs	r4, #192	; 0xc0
 8002970:	9d02      	ldr	r5, [sp, #8]
 8002972:	9307      	str	r3, [sp, #28]
 8002974:	e9cd 4203 	strd	r4, r2, [sp, #12]
 8002978:	f001 fd76 	bl	8004468 <HAL_GPIO_Init>
 800297c:	b009      	add	sp, #36	; 0x24
 800297e:	bd30      	pop	{r4, r5, pc}
 8002980:	40013800 	.word	0x40013800
 8002984:	48000400 	.word	0x48000400

08002988 <UI_TaskInit>:
 8002988:	e92d 4ff0 	stmdb	sp!, {r4, r5, r6, r7, r8, r9, sl, fp, lr}
 800298c:	4d16      	ldr	r5, [pc, #88]	; (80029e8 <UI_TaskInit+0x60>)
 800298e:	f8df c070 	ldr.w	ip, [pc, #112]	; 8002a00 <UI_TaskInit+0x78>
 8002992:	4e16      	ldr	r6, [pc, #88]	; (80029ec <UI_TaskInit+0x64>)
 8002994:	4682      	mov	sl, r0
 8002996:	460f      	mov	r7, r1
 8002998:	4690      	mov	r8, r2
 800299a:	4699      	mov	r9, r3
 800299c:	cd0f      	ldmia	r5!, {r0, r1, r2, r3}
 800299e:	4664      	mov	r4, ip
 80029a0:	c40f      	stmia	r4!, {r0, r1, r2, r3}
 80029a2:	e895 0003 	ldmia.w	r5, {r0, r1}
 80029a6:	b083      	sub	sp, #12
 80029a8:	4d11      	ldr	r5, [pc, #68]	; (80029f0 <UI_TaskInit+0x68>)
 80029aa:	f8dd b030 	ldr.w	fp, [sp, #48]	; 0x30
 80029ae:	f8c5 c000 	str.w	ip, [r5]
 80029b2:	e884 0003 	stmia.w	r4, {r0, r1}
 80029b6:	4630      	mov	r0, r6
 80029b8:	f005 f97a 	bl	8007cb0 <UFCP_Init>
 80029bc:	4b0d      	ldr	r3, [pc, #52]	; (80029f4 <UI_TaskInit+0x6c>)
 80029be:	6828      	ldr	r0, [r5, #0]
 80029c0:	4a0d      	ldr	r2, [pc, #52]	; (80029f8 <UI_TaskInit+0x70>)
 80029c2:	9300      	str	r3, [sp, #0]
 80029c4:	4631      	mov	r1, r6
 80029c6:	f8cd b004 	str.w	fp, [sp, #4]
 80029ca:	4b0c      	ldr	r3, [pc, #48]	; (80029fc <UI_TaskInit+0x74>)
 80029cc:	f7ff fb18 	bl	8002000 <MCP_Init>
 80029d0:	6828      	ldr	r0, [r5, #0]
 80029d2:	f8cd a030 	str.w	sl, [sp, #48]	; 0x30
 80029d6:	464b      	mov	r3, r9
 80029d8:	4642      	mov	r2, r8
 80029da:	4639      	mov	r1, r7
 80029dc:	b003      	add	sp, #12
 80029de:	e8bd 4ff0 	ldmia.w	sp!, {r4, r5, r6, r7, r8, r9, sl, fp, lr}
 80029e2:	f000 b84b 	b.w	8002a7c <UI_Init>
 80029e6:	bf00      	nop
 80029e8:	200006f8 	.word	0x200006f8
 80029ec:	2000058c 	.word	0x2000058c
 80029f0:	20000724 	.word	0x20000724
 80029f4:	08007f3d 	.word	0x08007f3d
 80029f8:	08007d39 	.word	0x08007d39
 80029fc:	08007d15 	.word	0x08007d15
 8002a00:	20000b24 	.word	0x20000b24

08002a04 <UI_Scheduler>:
 8002a04:	4a0c      	ldr	r2, [pc, #48]	; (8002a38 <UI_Scheduler+0x34>)
 8002a06:	8813      	ldrh	r3, [r2, #0]
 8002a08:	b29b      	uxth	r3, r3
 8002a0a:	b11b      	cbz	r3, 8002a14 <UI_Scheduler+0x10>
 8002a0c:	8813      	ldrh	r3, [r2, #0]
 8002a0e:	3b01      	subs	r3, #1
 8002a10:	b29b      	uxth	r3, r3
 8002a12:	8013      	strh	r3, [r2, #0]
 8002a14:	4a09      	ldr	r2, [pc, #36]	; (8002a3c <UI_Scheduler+0x38>)
 8002a16:	8813      	ldrh	r3, [r2, #0]
 8002a18:	2b01      	cmp	r3, #1
 8002a1a:	d903      	bls.n	8002a24 <UI_Scheduler+0x20>
 8002a1c:	8813      	ldrh	r3, [r2, #0]
 8002a1e:	3b01      	subs	r3, #1
 8002a20:	b29b      	uxth	r3, r3
 8002a22:	8013      	strh	r3, [r2, #0]
 8002a24:	4a06      	ldr	r2, [pc, #24]	; (8002a40 <UI_Scheduler+0x3c>)
 8002a26:	8813      	ldrh	r3, [r2, #0]
 8002a28:	2b01      	cmp	r3, #1
 8002a2a:	d903      	bls.n	8002a34 <UI_Scheduler+0x30>
 8002a2c:	8813      	ldrh	r3, [r2, #0]
 8002a2e:	3b01      	subs	r3, #1
 8002a30:	b29b      	uxth	r3, r3
 8002a32:	8013      	strh	r3, [r2, #0]
 8002a34:	4770      	bx	lr
 8002a36:	bf00      	nop
 8002a38:	20000722 	.word	0x20000722
 8002a3c:	20000720 	.word	0x20000720
 8002a40:	200006ce 	.word	0x200006ce

08002a44 <UI_IdleTimeHasElapsed>:
 8002a44:	4b03      	ldr	r3, [pc, #12]	; (8002a54 <UI_IdleTimeHasElapsed+0x10>)
 8002a46:	8818      	ldrh	r0, [r3, #0]
 8002a48:	b280      	uxth	r0, r0
 8002a4a:	fab0 f080 	clz	r0, r0
 8002a4e:	0940      	lsrs	r0, r0, #5
 8002a50:	4770      	bx	lr
 8002a52:	bf00      	nop
 8002a54:	20000722 	.word	0x20000722

08002a58 <UI_SetIdleTime>:
 8002a58:	4b01      	ldr	r3, [pc, #4]	; (8002a60 <UI_SetIdleTime+0x8>)
 8002a5a:	8018      	strh	r0, [r3, #0]
 8002a5c:	4770      	bx	lr
 8002a5e:	bf00      	nop
 8002a60:	20000722 	.word	0x20000722

08002a64 <UI_SerialCommunicationTimeOutStop>:
 8002a64:	4b01      	ldr	r3, [pc, #4]	; (8002a6c <UI_SerialCommunicationTimeOutStop+0x8>)
 8002a66:	2200      	movs	r2, #0
 8002a68:	801a      	strh	r2, [r3, #0]
 8002a6a:	4770      	bx	lr
 8002a6c:	20000720 	.word	0x20000720

08002a70 <UI_SerialCommunicationTimeOutStart>:
 8002a70:	4b01      	ldr	r3, [pc, #4]	; (8002a78 <UI_SerialCommunicationTimeOutStart+0x8>)
 8002a72:	224f      	movs	r2, #79	; 0x4f
 8002a74:	801a      	strh	r2, [r3, #0]
 8002a76:	4770      	bx	lr
 8002a78:	20000720 	.word	0x20000720

08002a7c <UI_Init>:
 8002a7c:	b430      	push	{r4, r5}
 8002a7e:	9c02      	ldr	r4, [sp, #8]
 8002a80:	6104      	str	r4, [r0, #16]
 8002a82:	2500      	movs	r5, #0
 8002a84:	7505      	strb	r5, [r0, #20]
 8002a86:	7101      	strb	r1, [r0, #4]
 8002a88:	e9c0 2302 	strd	r2, r3, [r0, #8]
 8002a8c:	bc30      	pop	{r4, r5}
 8002a8e:	4770      	bx	lr

08002a90 <UI_SelectMC>:
 8002a90:	7903      	ldrb	r3, [r0, #4]
 8002a92:	428b      	cmp	r3, r1
 8002a94:	bf86      	itte	hi
 8002a96:	7501      	strbhi	r1, [r0, #20]
 8002a98:	2001      	movhi	r0, #1
 8002a9a:	2000      	movls	r0, #0
 8002a9c:	4770      	bx	lr
 8002a9e:	bf00      	nop

08002aa0 <UI_GetSelectedMC>:
 8002aa0:	7d00      	ldrb	r0, [r0, #20]
 8002aa2:	4770      	bx	lr

08002aa4 <UI_SetReg>:
 8002aa4:	b530      	push	{r4, r5, lr}
 8002aa6:	4614      	mov	r4, r2
 8002aa8:	e9d0 5202 	ldrd	r5, r2, [r0, #8]
 8002aac:	7d03      	ldrb	r3, [r0, #20]
 8002aae:	b083      	sub	sp, #12
 8002ab0:	f855 5023 	ldr.w	r5, [r5, r3, lsl #2]
 8002ab4:	f852 2023 	ldr.w	r2, [r2, r3, lsl #2]
 8002ab8:	295b      	cmp	r1, #91	; 0x5b
 8002aba:	f200 8139 	bhi.w	8002d30 <UI_SetReg+0x28c>
 8002abe:	e8df f011 	tbh	[pc, r1, lsl #1]
 8002ac2:	0069      	.short	0x0069
 8002ac4:	01370137 	.word	0x01370137
 8002ac8:	0137006d 	.word	0x0137006d
 8002acc:	007d0077 	.word	0x007d0077
 8002ad0:	00890083 	.word	0x00890083
 8002ad4:	009b0095 	.word	0x009b0095
 8002ad8:	00a700a1 	.word	0x00a700a1
 8002adc:	00b900b3 	.word	0x00b900b3
 8002ae0:	00c500bf 	.word	0x00c500bf
 8002ae4:	013700df 	.word	0x013700df
 8002ae8:	00f90137 	.word	0x00f90137
 8002aec:	01370115 	.word	0x01370115
 8002af0:	01370137 	.word	0x01370137
 8002af4:	01370137 	.word	0x01370137
 8002af8:	01370137 	.word	0x01370137
 8002afc:	01370137 	.word	0x01370137
 8002b00:	01370137 	.word	0x01370137
 8002b04:	01370137 	.word	0x01370137
 8002b08:	01370137 	.word	0x01370137
 8002b0c:	01370137 	.word	0x01370137
 8002b10:	01370137 	.word	0x01370137
 8002b14:	01370137 	.word	0x01370137
 8002b18:	01370137 	.word	0x01370137
 8002b1c:	01370137 	.word	0x01370137
 8002b20:	01370137 	.word	0x01370137
 8002b24:	01370137 	.word	0x01370137
 8002b28:	01370137 	.word	0x01370137
 8002b2c:	01370137 	.word	0x01370137
 8002b30:	01370137 	.word	0x01370137
 8002b34:	01370137 	.word	0x01370137
 8002b38:	01370137 	.word	0x01370137
 8002b3c:	01370137 	.word	0x01370137
 8002b40:	01370137 	.word	0x01370137
 8002b44:	01370131 	.word	0x01370131
 8002b48:	01370137 	.word	0x01370137
 8002b4c:	01370137 	.word	0x01370137
 8002b50:	01370137 	.word	0x01370137
 8002b54:	01370137 	.word	0x01370137
 8002b58:	01370137 	.word	0x01370137
 8002b5c:	01370137 	.word	0x01370137
 8002b60:	01370137 	.word	0x01370137
 8002b64:	01370137 	.word	0x01370137
 8002b68:	01370137 	.word	0x01370137
 8002b6c:	01370137 	.word	0x01370137
 8002b70:	01370137 	.word	0x01370137
 8002b74:	01370137 	.word	0x01370137
 8002b78:	005c      	.short	0x005c
 8002b7a:	4980      	ldr	r1, [pc, #512]	; (8002d7c <UI_SetReg+0x2d8>)
 8002b7c:	fb81 3104 	smull	r3, r1, r1, r4
 8002b80:	eba1 71e4 	sub.w	r1, r1, r4, asr #31
 8002b84:	4628      	mov	r0, r5
 8002b86:	b209      	sxth	r1, r1
 8002b88:	2200      	movs	r2, #0
 8002b8a:	f7fe f8c3 	bl	8000d14 <MCI_ExecSpeedRamp>
 8002b8e:	2001      	movs	r0, #1
 8002b90:	b003      	add	sp, #12
 8002b92:	bd30      	pop	{r4, r5, pc}
 8002b94:	b2e1      	uxtb	r1, r4
 8002b96:	f7ff ff7b 	bl	8002a90 <UI_SelectMC>
 8002b9a:	e7f9      	b.n	8002b90 <UI_SetReg+0xec>
 8002b9c:	f014 04ff 	ands.w	r4, r4, #255	; 0xff
 8002ba0:	f000 80d8 	beq.w	8002d54 <UI_SetReg+0x2b0>
 8002ba4:	2c01      	cmp	r4, #1
 8002ba6:	f000 80df 	beq.w	8002d68 <UI_SetReg+0x2c4>
 8002baa:	2001      	movs	r0, #1
 8002bac:	b003      	add	sp, #12
 8002bae:	bd30      	pop	{r4, r5, pc}
 8002bb0:	6810      	ldr	r0, [r2, #0]
 8002bb2:	b221      	sxth	r1, r4
 8002bb4:	f003 fd02 	bl	80065bc <PID_SetKP>
 8002bb8:	2001      	movs	r0, #1
 8002bba:	e7e9      	b.n	8002b90 <UI_SetReg+0xec>
 8002bbc:	6810      	ldr	r0, [r2, #0]
 8002bbe:	b221      	sxth	r1, r4
 8002bc0:	f003 fcfe 	bl	80065c0 <PID_SetKI>
 8002bc4:	2001      	movs	r0, #1
 8002bc6:	e7e3      	b.n	8002b90 <UI_SetReg+0xec>
 8002bc8:	6810      	ldr	r0, [r2, #0]
 8002bca:	b221      	sxth	r1, r4
 8002bcc:	f003 fd08 	bl	80065e0 <PID_SetKD>
 8002bd0:	2001      	movs	r0, #1
 8002bd2:	e7dd      	b.n	8002b90 <UI_SetReg+0xec>
 8002bd4:	4628      	mov	r0, r5
 8002bd6:	f7fe f967 	bl	8000ea8 <MCI_GetIqdref>
 8002bda:	9001      	str	r0, [sp, #4]
 8002bdc:	f8ad 4004 	strh.w	r4, [sp, #4]
 8002be0:	4628      	mov	r0, r5
 8002be2:	9901      	ldr	r1, [sp, #4]
 8002be4:	f7fe f8aa 	bl	8000d3c <MCI_SetCurrentReferences>
 8002be8:	2001      	movs	r0, #1
 8002bea:	e7d1      	b.n	8002b90 <UI_SetReg+0xec>
 8002bec:	6850      	ldr	r0, [r2, #4]
 8002bee:	b221      	sxth	r1, r4
 8002bf0:	f003 fce4 	bl	80065bc <PID_SetKP>
 8002bf4:	2001      	movs	r0, #1
 8002bf6:	e7cb      	b.n	8002b90 <UI_SetReg+0xec>
 8002bf8:	6850      	ldr	r0, [r2, #4]
 8002bfa:	b221      	sxth	r1, r4
 8002bfc:	f003 fce0 	bl	80065c0 <PID_SetKI>
 8002c00:	2001      	movs	r0, #1
 8002c02:	e7c5      	b.n	8002b90 <UI_SetReg+0xec>
 8002c04:	6850      	ldr	r0, [r2, #4]
 8002c06:	b221      	sxth	r1, r4
 8002c08:	f003 fcea 	bl	80065e0 <PID_SetKD>
 8002c0c:	2001      	movs	r0, #1
 8002c0e:	e7bf      	b.n	8002b90 <UI_SetReg+0xec>
 8002c10:	4628      	mov	r0, r5
 8002c12:	f7fe f949 	bl	8000ea8 <MCI_GetIqdref>
 8002c16:	9001      	str	r0, [sp, #4]
 8002c18:	f8ad 4006 	strh.w	r4, [sp, #6]
 8002c1c:	4628      	mov	r0, r5
 8002c1e:	9901      	ldr	r1, [sp, #4]
 8002c20:	f7fe f88c 	bl	8000d3c <MCI_SetCurrentReferences>
 8002c24:	2001      	movs	r0, #1
 8002c26:	e7b3      	b.n	8002b90 <UI_SetReg+0xec>
 8002c28:	6890      	ldr	r0, [r2, #8]
 8002c2a:	b221      	sxth	r1, r4
 8002c2c:	f003 fcc6 	bl	80065bc <PID_SetKP>
 8002c30:	2001      	movs	r0, #1
 8002c32:	e7ad      	b.n	8002b90 <UI_SetReg+0xec>
 8002c34:	6890      	ldr	r0, [r2, #8]
 8002c36:	b221      	sxth	r1, r4
 8002c38:	f003 fcc2 	bl	80065c0 <PID_SetKI>
 8002c3c:	2001      	movs	r0, #1
 8002c3e:	e7a7      	b.n	8002b90 <UI_SetReg+0xec>
 8002c40:	6890      	ldr	r0, [r2, #8]
 8002c42:	b221      	sxth	r1, r4
 8002c44:	f003 fccc 	bl	80065e0 <PID_SetKD>
 8002c48:	2001      	movs	r0, #1
 8002c4a:	e7a1      	b.n	8002b90 <UI_SetReg+0xec>
 8002c4c:	6901      	ldr	r1, [r0, #16]
 8002c4e:	f851 3023 	ldr.w	r3, [r1, r3, lsl #2]
 8002c52:	0f19      	lsrs	r1, r3, #28
 8002c54:	2909      	cmp	r1, #9
 8002c56:	f3c3 6303 	ubfx	r3, r3, #24, #4
 8002c5a:	d06f      	beq.n	8002d3c <UI_SetReg+0x298>
 8002c5c:	2b09      	cmp	r3, #9
 8002c5e:	d1a4      	bne.n	8002baa <UI_SetReg+0x106>
 8002c60:	69d5      	ldr	r5, [r2, #28]
 8002c62:	2d00      	cmp	r5, #0
 8002c64:	d0a1      	beq.n	8002baa <UI_SetReg+0x106>
 8002c66:	aa01      	add	r2, sp, #4
 8002c68:	f10d 0102 	add.w	r1, sp, #2
 8002c6c:	4628      	mov	r0, r5
 8002c6e:	f005 fdef 	bl	8008850 <STO_PLL_GetObserverGains>
 8002c72:	b221      	sxth	r1, r4
 8002c74:	4628      	mov	r0, r5
 8002c76:	f9bd 2004 	ldrsh.w	r2, [sp, #4]
 8002c7a:	f005 fdf1 	bl	8008860 <STO_PLL_SetObserverGains>
 8002c7e:	e794      	b.n	8002baa <UI_SetReg+0x106>
 8002c80:	6901      	ldr	r1, [r0, #16]
 8002c82:	f851 3023 	ldr.w	r3, [r1, r3, lsl #2]
 8002c86:	0f19      	lsrs	r1, r3, #28
 8002c88:	2909      	cmp	r1, #9
 8002c8a:	f3c3 6303 	ubfx	r3, r3, #24, #4
 8002c8e:	d051      	beq.n	8002d34 <UI_SetReg+0x290>
 8002c90:	2b09      	cmp	r3, #9
 8002c92:	d18a      	bne.n	8002baa <UI_SetReg+0x106>
 8002c94:	69d5      	ldr	r5, [r2, #28]
 8002c96:	2d00      	cmp	r5, #0
 8002c98:	d087      	beq.n	8002baa <UI_SetReg+0x106>
 8002c9a:	aa01      	add	r2, sp, #4
 8002c9c:	f10d 0102 	add.w	r1, sp, #2
 8002ca0:	4628      	mov	r0, r5
 8002ca2:	f005 fdd5 	bl	8008850 <STO_PLL_GetObserverGains>
 8002ca6:	b222      	sxth	r2, r4
 8002ca8:	4628      	mov	r0, r5
 8002caa:	f9bd 1002 	ldrsh.w	r1, [sp, #2]
 8002cae:	f005 fdd7 	bl	8008860 <STO_PLL_SetObserverGains>
 8002cb2:	e77a      	b.n	8002baa <UI_SetReg+0x106>
 8002cb4:	6901      	ldr	r1, [r0, #16]
 8002cb6:	f851 3023 	ldr.w	r3, [r1, r3, lsl #2]
 8002cba:	0f19      	lsrs	r1, r3, #28
 8002cbc:	2909      	cmp	r1, #9
 8002cbe:	f3c3 6303 	ubfx	r3, r3, #24, #4
 8002cc2:	d03f      	beq.n	8002d44 <UI_SetReg+0x2a0>
 8002cc4:	2b09      	cmp	r3, #9
 8002cc6:	f47f af70 	bne.w	8002baa <UI_SetReg+0x106>
 8002cca:	69d5      	ldr	r5, [r2, #28]
 8002ccc:	2d00      	cmp	r5, #0
 8002cce:	f43f af6c 	beq.w	8002baa <UI_SetReg+0x106>
 8002cd2:	aa01      	add	r2, sp, #4
 8002cd4:	f10d 0102 	add.w	r1, sp, #2
 8002cd8:	4628      	mov	r0, r5
 8002cda:	f005 fdc5 	bl	8008868 <STO_GetPLLGains>
 8002cde:	b222      	sxth	r2, r4
 8002ce0:	4628      	mov	r0, r5
 8002ce2:	f9bd 1002 	ldrsh.w	r1, [sp, #2]
 8002ce6:	f005 fdcd 	bl	8008884 <STO_SetPLLGains>
 8002cea:	e75e      	b.n	8002baa <UI_SetReg+0x106>
 8002cec:	6901      	ldr	r1, [r0, #16]
 8002cee:	f851 3023 	ldr.w	r3, [r1, r3, lsl #2]
 8002cf2:	0f19      	lsrs	r1, r3, #28
 8002cf4:	2909      	cmp	r1, #9
 8002cf6:	f3c3 6303 	ubfx	r3, r3, #24, #4
 8002cfa:	d027      	beq.n	8002d4c <UI_SetReg+0x2a8>
 8002cfc:	2b09      	cmp	r3, #9
 8002cfe:	f47f af54 	bne.w	8002baa <UI_SetReg+0x106>
 8002d02:	69d5      	ldr	r5, [r2, #28]
 8002d04:	2d00      	cmp	r5, #0
 8002d06:	f43f af50 	beq.w	8002baa <UI_SetReg+0x106>
 8002d0a:	aa01      	add	r2, sp, #4
 8002d0c:	f10d 0102 	add.w	r1, sp, #2
 8002d10:	4628      	mov	r0, r5
 8002d12:	f005 fda9 	bl	8008868 <STO_GetPLLGains>
 8002d16:	b221      	sxth	r1, r4
 8002d18:	4628      	mov	r0, r5
 8002d1a:	f9bd 2004 	ldrsh.w	r2, [sp, #4]
 8002d1e:	f005 fdb1 	bl	8008884 <STO_SetPLLGains>
 8002d22:	e742      	b.n	8002baa <UI_SetReg+0x106>
 8002d24:	4628      	mov	r0, r5
 8002d26:	b221      	sxth	r1, r4
 8002d28:	f7fe f8de 	bl	8000ee8 <MCI_SetIdref>
 8002d2c:	2001      	movs	r0, #1
 8002d2e:	e72f      	b.n	8002b90 <UI_SetReg+0xec>
 8002d30:	2000      	movs	r0, #0
 8002d32:	e72d      	b.n	8002b90 <UI_SetReg+0xec>
 8002d34:	2b09      	cmp	r3, #9
 8002d36:	6995      	ldr	r5, [r2, #24]
 8002d38:	d1ad      	bne.n	8002c96 <UI_SetReg+0x1f2>
 8002d3a:	e7ab      	b.n	8002c94 <UI_SetReg+0x1f0>
 8002d3c:	2b09      	cmp	r3, #9
 8002d3e:	6995      	ldr	r5, [r2, #24]
 8002d40:	d18f      	bne.n	8002c62 <UI_SetReg+0x1be>
 8002d42:	e78d      	b.n	8002c60 <UI_SetReg+0x1bc>
 8002d44:	2b09      	cmp	r3, #9
 8002d46:	6995      	ldr	r5, [r2, #24]
 8002d48:	d1c0      	bne.n	8002ccc <UI_SetReg+0x228>
 8002d4a:	e7be      	b.n	8002cca <UI_SetReg+0x226>
 8002d4c:	2b09      	cmp	r3, #9
 8002d4e:	6995      	ldr	r5, [r2, #24]
 8002d50:	d1d8      	bne.n	8002d04 <UI_SetReg+0x260>
 8002d52:	e7d6      	b.n	8002d02 <UI_SetReg+0x25e>
 8002d54:	4628      	mov	r0, r5
 8002d56:	f7fe f8c3 	bl	8000ee0 <MCI_GetTeref>
 8002d5a:	4622      	mov	r2, r4
 8002d5c:	4601      	mov	r1, r0
 8002d5e:	4628      	mov	r0, r5
 8002d60:	f7fd ffe0 	bl	8000d24 <MCI_ExecTorqueRamp>
 8002d64:	2001      	movs	r0, #1
 8002d66:	e713      	b.n	8002b90 <UI_SetReg+0xec>
 8002d68:	4628      	mov	r0, r5
 8002d6a:	f7fe f881 	bl	8000e70 <MCI_GetMecSpeedRefUnit>
 8002d6e:	2200      	movs	r2, #0
 8002d70:	4601      	mov	r1, r0
 8002d72:	4628      	mov	r0, r5
 8002d74:	f7fd ffce 	bl	8000d14 <MCI_ExecSpeedRamp>
 8002d78:	4620      	mov	r0, r4
 8002d7a:	e709      	b.n	8002b90 <UI_SetReg+0xec>
 8002d7c:	2aaaaaab 	.word	0x2aaaaaab

08002d80 <UI_GetReg>:
 8002d80:	b570      	push	{r4, r5, r6, lr}
 8002d82:	e9d0 4502 	ldrd	r4, r5, [r0, #8]
 8002d86:	7d03      	ldrb	r3, [r0, #20]
 8002d88:	b090      	sub	sp, #64	; 0x40
 8002d8a:	f855 5023 	ldr.w	r5, [r5, r3, lsl #2]
 8002d8e:	f854 6023 	ldr.w	r6, [r4, r3, lsl #2]
 8002d92:	2a00      	cmp	r2, #0
 8002d94:	f000 8089 	beq.w	8002eaa <UI_GetReg+0x12a>
 8002d98:	2401      	movs	r4, #1
 8002d9a:	7014      	strb	r4, [r2, #0]
 8002d9c:	2981      	cmp	r1, #129	; 0x81
 8002d9e:	f200 8297 	bhi.w	80032d0 <UI_GetReg+0x550>
 8002da2:	e8df f011 	tbh	[pc, r1, lsl #1]
 8002da6:	014f      	.short	0x014f
 8002da8:	0147014b 	.word	0x0147014b
 8002dac:	013c0143 	.word	0x013c0143
 8002db0:	01340138 	.word	0x01340138
 8002db4:	01060130 	.word	0x01060130
 8002db8:	012c024f 	.word	0x012c024f
 8002dbc:	00fa0128 	.word	0x00fa0128
 8002dc0:	025b025f 	.word	0x025b025f
 8002dc4:	02770257 	.word	0x02770257
 8002dc8:	02950263 	.word	0x02950263
 8002dcc:	01c90295 	.word	0x01c90295
 8002dd0:	029501ba 	.word	0x029501ba
 8002dd4:	02950295 	.word	0x02950295
 8002dd8:	0116011a 	.word	0x0116011a
 8002ddc:	02950112 	.word	0x02950112
 8002de0:	010b0295 	.word	0x010b0295
 8002de4:	028b0290 	.word	0x028b0290
 8002de8:	023e0295 	.word	0x023e0295
 8002dec:	01230239 	.word	0x01230239
 8002df0:	01e9011e 	.word	0x01e9011e
 8002df4:	028b0290 	.word	0x028b0290
 8002df8:	00fa0106 	.word	0x00fa0106
 8002dfc:	0245024a 	.word	0x0245024a
 8002e00:	01680152 	.word	0x01680152
 8002e04:	02950295 	.word	0x02950295
 8002e08:	01a70157 	.word	0x01a70157
 8002e0c:	017f0193 	.word	0x017f0193
 8002e10:	01fe016d 	.word	0x01fe016d
 8002e14:	02950295 	.word	0x02950295
 8002e18:	02950295 	.word	0x02950295
 8002e1c:	02950295 	.word	0x02950295
 8002e20:	02950295 	.word	0x02950295
 8002e24:	01f001f7 	.word	0x01f001f7
 8002e28:	022500fa 	.word	0x022500fa
 8002e2c:	02950212 	.word	0x02950212
 8002e30:	02950295 	.word	0x02950295
 8002e34:	02950295 	.word	0x02950295
 8002e38:	02950295 	.word	0x02950295
 8002e3c:	02950295 	.word	0x02950295
 8002e40:	02950295 	.word	0x02950295
 8002e44:	02950295 	.word	0x02950295
 8002e48:	02950295 	.word	0x02950295
 8002e4c:	02950295 	.word	0x02950295
 8002e50:	02950295 	.word	0x02950295
 8002e54:	02950295 	.word	0x02950295
 8002e58:	02950295 	.word	0x02950295
 8002e5c:	029501dc 	.word	0x029501dc
 8002e60:	02950295 	.word	0x02950295
 8002e64:	02950295 	.word	0x02950295
 8002e68:	02950295 	.word	0x02950295
 8002e6c:	02950295 	.word	0x02950295
 8002e70:	02950295 	.word	0x02950295
 8002e74:	02950295 	.word	0x02950295
 8002e78:	02950295 	.word	0x02950295
 8002e7c:	02950295 	.word	0x02950295
 8002e80:	01d80295 	.word	0x01d80295
 8002e84:	01ee0253 	.word	0x01ee0253
 8002e88:	01030295 	.word	0x01030295
 8002e8c:	02950103 	.word	0x02950103
 8002e90:	02950295 	.word	0x02950295
 8002e94:	02950295 	.word	0x02950295
 8002e98:	02950295 	.word	0x02950295
 8002e9c:	02950295 	.word	0x02950295
 8002ea0:	02950295 	.word	0x02950295
 8002ea4:	02950295 	.word	0x02950295
 8002ea8:	0100      	.short	0x0100
 8002eaa:	2973      	cmp	r1, #115	; 0x73
 8002eac:	d87b      	bhi.n	8002fa6 <UI_GetReg+0x226>
 8002eae:	e8df f011 	tbh	[pc, r1, lsl #1]
 8002eb2:	00c9      	.short	0x00c9
 8002eb4:	00c100c5 	.word	0x00c100c5
 8002eb8:	00b600bd 	.word	0x00b600bd
 8002ebc:	00ae00b2 	.word	0x00ae00b2
 8002ec0:	008000aa 	.word	0x008000aa
 8002ec4:	00a601c9 	.word	0x00a601c9
 8002ec8:	007400a2 	.word	0x007400a2
 8002ecc:	01d501d9 	.word	0x01d501d9
 8002ed0:	01f101d1 	.word	0x01f101d1
 8002ed4:	007a01dd 	.word	0x007a01dd
 8002ed8:	0143007a 	.word	0x0143007a
 8002edc:	007a0134 	.word	0x007a0134
 8002ee0:	007a007a 	.word	0x007a007a
 8002ee4:	00900094 	.word	0x00900094
 8002ee8:	007a008c 	.word	0x007a008c
 8002eec:	0085007a 	.word	0x0085007a
 8002ef0:	0205020a 	.word	0x0205020a
 8002ef4:	01b8007a 	.word	0x01b8007a
 8002ef8:	009d01b3 	.word	0x009d01b3
 8002efc:	01630098 	.word	0x01630098
 8002f00:	0205020a 	.word	0x0205020a
 8002f04:	00740080 	.word	0x00740080
 8002f08:	01bf01c4 	.word	0x01bf01c4
 8002f0c:	00e200cc 	.word	0x00e200cc
 8002f10:	007a007a 	.word	0x007a007a
 8002f14:	012100d1 	.word	0x012100d1
 8002f18:	00f9010d 	.word	0x00f9010d
 8002f1c:	017800e7 	.word	0x017800e7
 8002f20:	007a007a 	.word	0x007a007a
 8002f24:	007a007a 	.word	0x007a007a
 8002f28:	007a007a 	.word	0x007a007a
 8002f2c:	007a007a 	.word	0x007a007a
 8002f30:	016a0171 	.word	0x016a0171
 8002f34:	019f0074 	.word	0x019f0074
 8002f38:	007a018c 	.word	0x007a018c
 8002f3c:	007a007a 	.word	0x007a007a
 8002f40:	007a007a 	.word	0x007a007a
 8002f44:	007a007a 	.word	0x007a007a
 8002f48:	007a007a 	.word	0x007a007a
 8002f4c:	007a007a 	.word	0x007a007a
 8002f50:	007a007a 	.word	0x007a007a
 8002f54:	007a007a 	.word	0x007a007a
 8002f58:	007a007a 	.word	0x007a007a
 8002f5c:	007a007a 	.word	0x007a007a
 8002f60:	007a007a 	.word	0x007a007a
 8002f64:	007a007a 	.word	0x007a007a
 8002f68:	007a0156 	.word	0x007a0156
 8002f6c:	007a007a 	.word	0x007a007a
 8002f70:	007a007a 	.word	0x007a007a
 8002f74:	007a007a 	.word	0x007a007a
 8002f78:	007a007a 	.word	0x007a007a
 8002f7c:	007a007a 	.word	0x007a007a
 8002f80:	007a007a 	.word	0x007a007a
 8002f84:	007a007a 	.word	0x007a007a
 8002f88:	007a007a 	.word	0x007a007a
 8002f8c:	0152007a 	.word	0x0152007a
 8002f90:	016801cd 	.word	0x016801cd
 8002f94:	007d007a 	.word	0x007d007a
 8002f98:	007d      	.short	0x007d
 8002f9a:	4630      	mov	r0, r6
 8002f9c:	f7fd ff84 	bl	8000ea8 <MCI_GetIqdref>
 8002fa0:	1400      	asrs	r0, r0, #16
 8002fa2:	b010      	add	sp, #64	; 0x40
 8002fa4:	bd70      	pop	{r4, r5, r6, pc}
 8002fa6:	2000      	movs	r0, #0
 8002fa8:	b010      	add	sp, #64	; 0x40
 8002faa:	bd70      	pop	{r4, r5, r6, pc}
 8002fac:	f242 701d 	movw	r0, #10013	; 0x271d
 8002fb0:	e7f7      	b.n	8002fa2 <UI_GetReg+0x222>
 8002fb2:	4630      	mov	r0, r6
 8002fb4:	f7fd ff78 	bl	8000ea8 <MCI_GetIqdref>
 8002fb8:	b200      	sxth	r0, r0
 8002fba:	e7f2      	b.n	8002fa2 <UI_GetReg+0x222>
 8002fbc:	4630      	mov	r0, r6
 8002fbe:	f7fd ff4f 	bl	8000e60 <MCI_GetAvrgMecSpeedUnit>
 8002fc2:	eb00 0040 	add.w	r0, r0, r0, lsl #1
 8002fc6:	0040      	lsls	r0, r0, #1
 8002fc8:	e7eb      	b.n	8002fa2 <UI_GetReg+0x222>
 8002fca:	6be8      	ldr	r0, [r5, #60]	; 0x3c
 8002fcc:	f003 fa92 	bl	80064f4 <MPM_GetAvrgElMotorPowerW>
 8002fd0:	e7e7      	b.n	8002fa2 <UI_GetReg+0x222>
 8002fd2:	6ae8      	ldr	r0, [r5, #44]	; 0x2c
 8002fd4:	f003 fad4 	bl	8006580 <NTC_GetAvTemp_C>
 8002fd8:	e7e3      	b.n	8002fa2 <UI_GetReg+0x222>
 8002fda:	6b28      	ldr	r0, [r5, #48]	; 0x30
 8002fdc:	f003 f9fc 	bl	80063d8 <VBS_GetAvBusVoltage_V>
 8002fe0:	e7df      	b.n	8002fa2 <UI_GetReg+0x222>
 8002fe2:	4630      	mov	r0, r6
 8002fe4:	f7fd ff50 	bl	8000e88 <MCI_GetIalphabeta>
 8002fe8:	b200      	sxth	r0, r0
 8002fea:	e7da      	b.n	8002fa2 <UI_GetReg+0x222>
 8002fec:	4630      	mov	r0, r6
 8002fee:	f7fd ff43 	bl	8000e78 <MCI_GetIab>
 8002ff2:	1400      	asrs	r0, r0, #16
 8002ff4:	e7d5      	b.n	8002fa2 <UI_GetReg+0x222>
 8002ff6:	6868      	ldr	r0, [r5, #4]
 8002ff8:	f003 faf4 	bl	80065e4 <PID_GetKD>
 8002ffc:	e7d1      	b.n	8002fa2 <UI_GetReg+0x222>
 8002ffe:	6868      	ldr	r0, [r5, #4]
 8003000:	f003 fae4 	bl	80065cc <PID_GetKI>
 8003004:	e7cd      	b.n	8002fa2 <UI_GetReg+0x222>
 8003006:	6828      	ldr	r0, [r5, #0]
 8003008:	f003 faec 	bl	80065e4 <PID_GetKD>
 800300c:	e7c9      	b.n	8002fa2 <UI_GetReg+0x222>
 800300e:	6828      	ldr	r0, [r5, #0]
 8003010:	f003 fadc 	bl	80065cc <PID_GetKI>
 8003014:	e7c5      	b.n	8002fa2 <UI_GetReg+0x222>
 8003016:	6828      	ldr	r0, [r5, #0]
 8003018:	f003 fad4 	bl	80065c4 <PID_GetKP>
 800301c:	e7c1      	b.n	8002fa2 <UI_GetReg+0x222>
 800301e:	4630      	mov	r0, r6
 8003020:	f7fd ff26 	bl	8000e70 <MCI_GetMecSpeedRefUnit>
 8003024:	eb00 0040 	add.w	r0, r0, r0, lsl #1
 8003028:	0040      	lsls	r0, r0, #1
 800302a:	e7ba      	b.n	8002fa2 <UI_GetReg+0x222>
 800302c:	4630      	mov	r0, r6
 800302e:	f7fd fee7 	bl	8000e00 <MCI_GetControlMode>
 8003032:	e7b6      	b.n	8002fa2 <UI_GetReg+0x222>
 8003034:	6aa8      	ldr	r0, [r5, #40]	; 0x28
 8003036:	f004 fe27 	bl	8007c88 <STM_GetState>
 800303a:	e7b2      	b.n	8002fa2 <UI_GetReg+0x222>
 800303c:	6aa8      	ldr	r0, [r5, #40]	; 0x28
 800303e:	f004 fe31 	bl	8007ca4 <STM_GetFaultState>
 8003042:	e7ae      	b.n	8002fa2 <UI_GetReg+0x222>
 8003044:	f7ff fd2c 	bl	8002aa0 <UI_GetSelectedMC>
 8003048:	e7ab      	b.n	8002fa2 <UI_GetReg+0x222>
 800304a:	4630      	mov	r0, r6
 800304c:	f7fd ff3e 	bl	8000ecc <MCI_GetValphabeta>
 8003050:	b200      	sxth	r0, r0
 8003052:	e7a6      	b.n	8002fa2 <UI_GetReg+0x222>
 8003054:	6902      	ldr	r2, [r0, #16]
 8003056:	f852 3023 	ldr.w	r3, [r2, r3, lsl #2]
 800305a:	0f1a      	lsrs	r2, r3, #28
 800305c:	2a09      	cmp	r2, #9
 800305e:	f3c3 6303 	ubfx	r3, r3, #24, #4
 8003062:	f000 816c 	beq.w	800333e <UI_GetReg+0x5be>
 8003066:	2b09      	cmp	r3, #9
 8003068:	d19d      	bne.n	8002fa6 <UI_GetReg+0x226>
 800306a:	69e8      	ldr	r0, [r5, #28]
 800306c:	2800      	cmp	r0, #0
 800306e:	d09a      	beq.n	8002fa6 <UI_GetReg+0x226>
 8003070:	f004 fc60 	bl	8007934 <SPD_GetElAngle>
 8003074:	e795      	b.n	8002fa2 <UI_GetReg+0x222>
 8003076:	4630      	mov	r0, r6
 8003078:	f7fd ff28 	bl	8000ecc <MCI_GetValphabeta>
 800307c:	1400      	asrs	r0, r0, #16
 800307e:	e790      	b.n	8002fa2 <UI_GetReg+0x222>
 8003080:	6902      	ldr	r2, [r0, #16]
 8003082:	f852 3023 	ldr.w	r3, [r2, r3, lsl #2]
 8003086:	0f1a      	lsrs	r2, r3, #28
 8003088:	2a09      	cmp	r2, #9
 800308a:	f3c3 6303 	ubfx	r3, r3, #24, #4
 800308e:	f000 814c 	beq.w	800332a <UI_GetReg+0x5aa>
 8003092:	2b09      	cmp	r3, #9
 8003094:	d187      	bne.n	8002fa6 <UI_GetReg+0x226>
 8003096:	69e8      	ldr	r0, [r5, #28]
 8003098:	2800      	cmp	r0, #0
 800309a:	d084      	beq.n	8002fa6 <UI_GetReg+0x226>
 800309c:	f005 fbb8 	bl	8008810 <STO_PLL_GetEstimatedBemf>
 80030a0:	b200      	sxth	r0, r0
 80030a2:	e77e      	b.n	8002fa2 <UI_GetReg+0x222>
 80030a4:	6902      	ldr	r2, [r0, #16]
 80030a6:	f852 3023 	ldr.w	r3, [r2, r3, lsl #2]
 80030aa:	0f1a      	lsrs	r2, r3, #28
 80030ac:	2a09      	cmp	r2, #9
 80030ae:	f3c3 6303 	ubfx	r3, r3, #24, #4
 80030b2:	f000 813f 	beq.w	8003334 <UI_GetReg+0x5b4>
 80030b6:	2b09      	cmp	r3, #9
 80030b8:	f47f af75 	bne.w	8002fa6 <UI_GetReg+0x226>
 80030bc:	69e8      	ldr	r0, [r5, #28]
 80030be:	2800      	cmp	r0, #0
 80030c0:	f43f af71 	beq.w	8002fa6 <UI_GetReg+0x226>
 80030c4:	f005 fbb0 	bl	8008828 <STO_PLL_GetEstimatedCurrent>
 80030c8:	1400      	asrs	r0, r0, #16
 80030ca:	e76a      	b.n	8002fa2 <UI_GetReg+0x222>
 80030cc:	6902      	ldr	r2, [r0, #16]
 80030ce:	f852 3023 	ldr.w	r3, [r2, r3, lsl #2]
 80030d2:	0f1a      	lsrs	r2, r3, #28
 80030d4:	2a09      	cmp	r2, #9
 80030d6:	f3c3 6303 	ubfx	r3, r3, #24, #4
 80030da:	f000 810c 	beq.w	80032f6 <UI_GetReg+0x576>
 80030de:	2b09      	cmp	r3, #9
 80030e0:	f47f af61 	bne.w	8002fa6 <UI_GetReg+0x226>
 80030e4:	69e8      	ldr	r0, [r5, #28]
 80030e6:	2800      	cmp	r0, #0
 80030e8:	f43f af5d 	beq.w	8002fa6 <UI_GetReg+0x226>
 80030ec:	f005 fb9c 	bl	8008828 <STO_PLL_GetEstimatedCurrent>
 80030f0:	b200      	sxth	r0, r0
 80030f2:	e756      	b.n	8002fa2 <UI_GetReg+0x222>
 80030f4:	6902      	ldr	r2, [r0, #16]
 80030f6:	f852 3023 	ldr.w	r3, [r2, r3, lsl #2]
 80030fa:	0f1a      	lsrs	r2, r3, #28
 80030fc:	2a09      	cmp	r2, #9
 80030fe:	f3c3 6303 	ubfx	r3, r3, #24, #4
 8003102:	f000 812b 	beq.w	800335c <UI_GetReg+0x5dc>
 8003106:	2b09      	cmp	r3, #9
 8003108:	f47f af4d 	bne.w	8002fa6 <UI_GetReg+0x226>
 800310c:	69e8      	ldr	r0, [r5, #28]
 800310e:	2800      	cmp	r0, #0
 8003110:	f43f af49 	beq.w	8002fa6 <UI_GetReg+0x226>
 8003114:	f004 fc4a 	bl	80079ac <SPD_GetS16Speed>
 8003118:	e743      	b.n	8002fa2 <UI_GetReg+0x222>
 800311a:	6902      	ldr	r2, [r0, #16]
 800311c:	f852 3023 	ldr.w	r3, [r2, r3, lsl #2]
 8003120:	0f1a      	lsrs	r2, r3, #28
 8003122:	2a09      	cmp	r2, #9
 8003124:	f3c3 6303 	ubfx	r3, r3, #24, #4
 8003128:	f000 80d9 	beq.w	80032de <UI_GetReg+0x55e>
 800312c:	2b09      	cmp	r3, #9
 800312e:	f000 80d9 	beq.w	80032e4 <UI_GetReg+0x564>
 8003132:	f9bd 0038 	ldrsh.w	r0, [sp, #56]	; 0x38
 8003136:	e734      	b.n	8002fa2 <UI_GetReg+0x222>
 8003138:	6902      	ldr	r2, [r0, #16]
 800313a:	f852 3023 	ldr.w	r3, [r2, r3, lsl #2]
 800313e:	0f1a      	lsrs	r2, r3, #28
 8003140:	2a09      	cmp	r2, #9
 8003142:	f3c3 6303 	ubfx	r3, r3, #24, #4
 8003146:	f000 80e0 	beq.w	800330a <UI_GetReg+0x58a>
 800314a:	2b09      	cmp	r3, #9
 800314c:	f000 80e0 	beq.w	8003310 <UI_GetReg+0x590>
 8003150:	f9bd 003c 	ldrsh.w	r0, [sp, #60]	; 0x3c
 8003154:	e725      	b.n	8002fa2 <UI_GetReg+0x222>
 8003156:	6828      	ldr	r0, [r5, #0]
 8003158:	f003 fa3e 	bl	80065d8 <PID_GetKPDivisor>
 800315c:	e721      	b.n	8002fa2 <UI_GetReg+0x222>
 800315e:	4630      	mov	r0, r6
 8003160:	f7fd fe4e 	bl	8000e00 <MCI_GetControlMode>
 8003164:	2801      	cmp	r0, #1
 8003166:	4630      	mov	r0, r6
 8003168:	f000 80ee 	beq.w	8003348 <UI_GetReg+0x5c8>
 800316c:	f7fd fe80 	bl	8000e70 <MCI_GetMecSpeedRefUnit>
 8003170:	eb00 0040 	add.w	r0, r0, r0, lsl #1
 8003174:	0040      	lsls	r0, r0, #1
 8003176:	e714      	b.n	8002fa2 <UI_GetReg+0x222>
 8003178:	4630      	mov	r0, r6
 800317a:	f7fd fe85 	bl	8000e88 <MCI_GetIalphabeta>
 800317e:	1400      	asrs	r0, r0, #16
 8003180:	e70f      	b.n	8002fa2 <UI_GetReg+0x222>
 8003182:	487b      	ldr	r0, [pc, #492]	; (8003370 <UI_GetReg+0x5f0>)
 8003184:	e70d      	b.n	8002fa2 <UI_GetReg+0x222>
 8003186:	6a68      	ldr	r0, [r5, #36]	; 0x24
 8003188:	f004 fcd2 	bl	8007b30 <STC_GetMinAppNegativeMecSpeedUnit>
 800318c:	eb00 0040 	add.w	r0, r0, r0, lsl #1
 8003190:	0040      	lsls	r0, r0, #1
 8003192:	e706      	b.n	8002fa2 <UI_GetReg+0x222>
 8003194:	6a68      	ldr	r0, [r5, #36]	; 0x24
 8003196:	f004 fcc9 	bl	8007b2c <STC_GetMaxAppPositiveMecSpeedUnit>
 800319a:	eb00 0040 	add.w	r0, r0, r0, lsl #1
 800319e:	0040      	lsls	r0, r0, #1
 80031a0:	e6ff      	b.n	8002fa2 <UI_GetReg+0x222>
 80031a2:	6902      	ldr	r2, [r0, #16]
 80031a4:	f852 3023 	ldr.w	r3, [r2, r3, lsl #2]
 80031a8:	0f1a      	lsrs	r2, r3, #28
 80031aa:	2a09      	cmp	r2, #9
 80031ac:	f3c3 6303 	ubfx	r3, r3, #24, #4
 80031b0:	f000 80a6 	beq.w	8003300 <UI_GetReg+0x580>
 80031b4:	2b09      	cmp	r3, #9
 80031b6:	f47f aef6 	bne.w	8002fa6 <UI_GetReg+0x226>
 80031ba:	69e8      	ldr	r0, [r5, #28]
 80031bc:	2800      	cmp	r0, #0
 80031be:	f43f aef2 	beq.w	8002fa6 <UI_GetReg+0x226>
 80031c2:	f005 fb25 	bl	8008810 <STO_PLL_GetEstimatedBemf>
 80031c6:	1400      	asrs	r0, r0, #16
 80031c8:	e6eb      	b.n	8002fa2 <UI_GetReg+0x222>
 80031ca:	6902      	ldr	r2, [r0, #16]
 80031cc:	f852 3023 	ldr.w	r3, [r2, r3, lsl #2]
 80031d0:	0f1a      	lsrs	r2, r3, #28
 80031d2:	2a09      	cmp	r2, #9
 80031d4:	f3c3 6303 	ubfx	r3, r3, #24, #4
 80031d8:	d07d      	beq.n	80032d6 <UI_GetReg+0x556>
 80031da:	2b09      	cmp	r3, #9
 80031dc:	f47f aee3 	bne.w	8002fa6 <UI_GetReg+0x226>
 80031e0:	69e8      	ldr	r0, [r5, #28]
 80031e2:	2800      	cmp	r0, #0
 80031e4:	f43f aedf 	beq.w	8002fa6 <UI_GetReg+0x226>
 80031e8:	f005 fb68 	bl	80088bc <STO_PLL_GetObservedBemfLevel>
 80031ec:	1400      	asrs	r0, r0, #16
 80031ee:	e6d8      	b.n	8002fa2 <UI_GetReg+0x222>
 80031f0:	6902      	ldr	r2, [r0, #16]
 80031f2:	f852 3023 	ldr.w	r3, [r2, r3, lsl #2]
 80031f6:	0f1a      	lsrs	r2, r3, #28
 80031f8:	2a09      	cmp	r2, #9
 80031fa:	f3c3 6303 	ubfx	r3, r3, #24, #4
 80031fe:	f000 80b2 	beq.w	8003366 <UI_GetReg+0x5e6>
 8003202:	2b09      	cmp	r3, #9
 8003204:	f47f aecf 	bne.w	8002fa6 <UI_GetReg+0x226>
 8003208:	69e8      	ldr	r0, [r5, #28]
 800320a:	2800      	cmp	r0, #0
 800320c:	f43f aecb 	beq.w	8002fa6 <UI_GetReg+0x226>
 8003210:	f005 fb50 	bl	80088b4 <STO_PLL_GetEstimatedBemfLevel>
 8003214:	1400      	asrs	r0, r0, #16
 8003216:	e6c4      	b.n	8002fa2 <UI_GetReg+0x222>
 8003218:	4630      	mov	r0, r6
 800321a:	f7fd fe2d 	bl	8000e78 <MCI_GetIab>
 800321e:	b200      	sxth	r0, r0
 8003220:	e6bf      	b.n	8002fa2 <UI_GetReg+0x222>
 8003222:	6968      	ldr	r0, [r5, #20]
 8003224:	2800      	cmp	r0, #0
 8003226:	f43f aebe 	beq.w	8002fa6 <UI_GetReg+0x226>
 800322a:	f005 f87b 	bl	8008324 <RUC_GetNumberOfPhases>
 800322e:	e6b8      	b.n	8002fa2 <UI_GetReg+0x222>
 8003230:	4630      	mov	r0, r6
 8003232:	f7fd fe41 	bl	8000eb8 <MCI_GetVqd>
 8003236:	1400      	asrs	r0, r0, #16
 8003238:	e6b3      	b.n	8002fa2 <UI_GetReg+0x222>
 800323a:	4630      	mov	r0, r6
 800323c:	f7fd fe3c 	bl	8000eb8 <MCI_GetVqd>
 8003240:	b200      	sxth	r0, r0
 8003242:	e6ae      	b.n	8002fa2 <UI_GetReg+0x222>
 8003244:	6868      	ldr	r0, [r5, #4]
 8003246:	f003 f9bd 	bl	80065c4 <PID_GetKP>
 800324a:	e6aa      	b.n	8002fa2 <UI_GetReg+0x222>
 800324c:	6828      	ldr	r0, [r5, #0]
 800324e:	f003 f9c5 	bl	80065dc <PID_GetKIDivisor>
 8003252:	e6a6      	b.n	8002fa2 <UI_GetReg+0x222>
 8003254:	68a8      	ldr	r0, [r5, #8]
 8003256:	f003 f9c5 	bl	80065e4 <PID_GetKD>
 800325a:	e6a2      	b.n	8002fa2 <UI_GetReg+0x222>
 800325c:	68a8      	ldr	r0, [r5, #8]
 800325e:	f003 f9b5 	bl	80065cc <PID_GetKI>
 8003262:	e69e      	b.n	8002fa2 <UI_GetReg+0x222>
 8003264:	68a8      	ldr	r0, [r5, #8]
 8003266:	f003 f9ad 	bl	80065c4 <PID_GetKP>
 800326a:	e69a      	b.n	8002fa2 <UI_GetReg+0x222>
 800326c:	6902      	ldr	r2, [r0, #16]
 800326e:	f852 3023 	ldr.w	r3, [r2, r3, lsl #2]
 8003272:	0f1a      	lsrs	r2, r3, #28
 8003274:	2a09      	cmp	r2, #9
 8003276:	f3c3 6303 	ubfx	r3, r3, #24, #4
 800327a:	d06b      	beq.n	8003354 <UI_GetReg+0x5d4>
 800327c:	2b09      	cmp	r3, #9
 800327e:	f47f af67 	bne.w	8003150 <UI_GetReg+0x3d0>
 8003282:	69e8      	ldr	r0, [r5, #28]
 8003284:	2800      	cmp	r0, #0
 8003286:	f43f af63 	beq.w	8003150 <UI_GetReg+0x3d0>
 800328a:	aa0f      	add	r2, sp, #60	; 0x3c
 800328c:	a90e      	add	r1, sp, #56	; 0x38
 800328e:	f005 fadf 	bl	8008850 <STO_PLL_GetObserverGains>
 8003292:	e75d      	b.n	8003150 <UI_GetReg+0x3d0>
 8003294:	6902      	ldr	r2, [r0, #16]
 8003296:	f852 3023 	ldr.w	r3, [r2, r3, lsl #2]
 800329a:	0f1a      	lsrs	r2, r3, #28
 800329c:	2a09      	cmp	r2, #9
 800329e:	f3c3 6303 	ubfx	r3, r3, #24, #4
 80032a2:	d03e      	beq.n	8003322 <UI_GetReg+0x5a2>
 80032a4:	2b09      	cmp	r3, #9
 80032a6:	f47f af44 	bne.w	8003132 <UI_GetReg+0x3b2>
 80032aa:	69e8      	ldr	r0, [r5, #28]
 80032ac:	2800      	cmp	r0, #0
 80032ae:	f43f af40 	beq.w	8003132 <UI_GetReg+0x3b2>
 80032b2:	aa0f      	add	r2, sp, #60	; 0x3c
 80032b4:	a90e      	add	r1, sp, #56	; 0x38
 80032b6:	f005 facb 	bl	8008850 <STO_PLL_GetObserverGains>
 80032ba:	e73a      	b.n	8003132 <UI_GetReg+0x3b2>
 80032bc:	4630      	mov	r0, r6
 80032be:	f7fd fdeb 	bl	8000e98 <MCI_GetIqd>
 80032c2:	1400      	asrs	r0, r0, #16
 80032c4:	e66d      	b.n	8002fa2 <UI_GetReg+0x222>
 80032c6:	4630      	mov	r0, r6
 80032c8:	f7fd fde6 	bl	8000e98 <MCI_GetIqd>
 80032cc:	b200      	sxth	r0, r0
 80032ce:	e668      	b.n	8002fa2 <UI_GetReg+0x222>
 80032d0:	2000      	movs	r0, #0
 80032d2:	7010      	strb	r0, [r2, #0]
 80032d4:	e665      	b.n	8002fa2 <UI_GetReg+0x222>
 80032d6:	2b09      	cmp	r3, #9
 80032d8:	69a8      	ldr	r0, [r5, #24]
 80032da:	d182      	bne.n	80031e2 <UI_GetReg+0x462>
 80032dc:	e780      	b.n	80031e0 <UI_GetReg+0x460>
 80032de:	2b09      	cmp	r3, #9
 80032e0:	69a8      	ldr	r0, [r5, #24]
 80032e2:	d100      	bne.n	80032e6 <UI_GetReg+0x566>
 80032e4:	69e8      	ldr	r0, [r5, #28]
 80032e6:	2800      	cmp	r0, #0
 80032e8:	f43f af23 	beq.w	8003132 <UI_GetReg+0x3b2>
 80032ec:	aa0f      	add	r2, sp, #60	; 0x3c
 80032ee:	a90e      	add	r1, sp, #56	; 0x38
 80032f0:	f005 faba 	bl	8008868 <STO_GetPLLGains>
 80032f4:	e71d      	b.n	8003132 <UI_GetReg+0x3b2>
 80032f6:	2b09      	cmp	r3, #9
 80032f8:	69a8      	ldr	r0, [r5, #24]
 80032fa:	f47f aef4 	bne.w	80030e6 <UI_GetReg+0x366>
 80032fe:	e6f1      	b.n	80030e4 <UI_GetReg+0x364>
 8003300:	2b09      	cmp	r3, #9
 8003302:	69a8      	ldr	r0, [r5, #24]
 8003304:	f47f af5a 	bne.w	80031bc <UI_GetReg+0x43c>
 8003308:	e757      	b.n	80031ba <UI_GetReg+0x43a>
 800330a:	2b09      	cmp	r3, #9
 800330c:	69a8      	ldr	r0, [r5, #24]
 800330e:	d100      	bne.n	8003312 <UI_GetReg+0x592>
 8003310:	69e8      	ldr	r0, [r5, #28]
 8003312:	2800      	cmp	r0, #0
 8003314:	f43f af1c 	beq.w	8003150 <UI_GetReg+0x3d0>
 8003318:	aa0f      	add	r2, sp, #60	; 0x3c
 800331a:	a90e      	add	r1, sp, #56	; 0x38
 800331c:	f005 faa4 	bl	8008868 <STO_GetPLLGains>
 8003320:	e716      	b.n	8003150 <UI_GetReg+0x3d0>
 8003322:	2b09      	cmp	r3, #9
 8003324:	69a8      	ldr	r0, [r5, #24]
 8003326:	d1c1      	bne.n	80032ac <UI_GetReg+0x52c>
 8003328:	e7bf      	b.n	80032aa <UI_GetReg+0x52a>
 800332a:	2b09      	cmp	r3, #9
 800332c:	69a8      	ldr	r0, [r5, #24]
 800332e:	f47f aeb3 	bne.w	8003098 <UI_GetReg+0x318>
 8003332:	e6b0      	b.n	8003096 <UI_GetReg+0x316>
 8003334:	2b09      	cmp	r3, #9
 8003336:	69a8      	ldr	r0, [r5, #24]
 8003338:	f47f aec1 	bne.w	80030be <UI_GetReg+0x33e>
 800333c:	e6be      	b.n	80030bc <UI_GetReg+0x33c>
 800333e:	2b09      	cmp	r3, #9
 8003340:	69a8      	ldr	r0, [r5, #24]
 8003342:	f47f ae93 	bne.w	800306c <UI_GetReg+0x2ec>
 8003346:	e690      	b.n	800306a <UI_GetReg+0x2ea>
 8003348:	f7fd fd7e 	bl	8000e48 <MCI_GetLastRampFinalSpeed>
 800334c:	eb00 0040 	add.w	r0, r0, r0, lsl #1
 8003350:	0040      	lsls	r0, r0, #1
 8003352:	e626      	b.n	8002fa2 <UI_GetReg+0x222>
 8003354:	2b09      	cmp	r3, #9
 8003356:	69a8      	ldr	r0, [r5, #24]
 8003358:	d194      	bne.n	8003284 <UI_GetReg+0x504>
 800335a:	e792      	b.n	8003282 <UI_GetReg+0x502>
 800335c:	2b09      	cmp	r3, #9
 800335e:	69a8      	ldr	r0, [r5, #24]
 8003360:	f47f aed5 	bne.w	800310e <UI_GetReg+0x38e>
 8003364:	e6d2      	b.n	800310c <UI_GetReg+0x38c>
 8003366:	2b09      	cmp	r3, #9
 8003368:	69a8      	ldr	r0, [r5, #24]
 800336a:	f47f af4e 	bne.w	800320a <UI_GetReg+0x48a>
 800336e:	e74b      	b.n	8003208 <UI_GetReg+0x488>
 8003370:	34a6847a 	.word	0x34a6847a

08003374 <UI_ExecCmd>:
 8003374:	b510      	push	{r4, lr}
 8003376:	6883      	ldr	r3, [r0, #8]
 8003378:	7d02      	ldrb	r2, [r0, #20]
 800337a:	3901      	subs	r1, #1
 800337c:	f853 4022 	ldr.w	r4, [r3, r2, lsl #2]
 8003380:	290d      	cmp	r1, #13
 8003382:	d82c      	bhi.n	80033de <UI_ExecCmd+0x6a>
 8003384:	e8df f001 	tbb	[pc, r1]
 8003388:	0c071217 	.word	0x0c071217
 800338c:	261c0e0c 	.word	0x261c0e0c
 8003390:	2b2b2b21 	.word	0x2b2b2b21
 8003394:	122b      	.short	0x122b
 8003396:	4620      	mov	r0, r4
 8003398:	f7fd fd2e 	bl	8000df8 <MCI_GetSTMState>
 800339c:	2806      	cmp	r0, #6
 800339e:	d020      	beq.n	80033e2 <UI_ExecCmd+0x6e>
 80033a0:	2001      	movs	r0, #1
 80033a2:	bd10      	pop	{r4, pc}
 80033a4:	4620      	mov	r0, r4
 80033a6:	f7fd fd27 	bl	8000df8 <MCI_GetSTMState>
 80033aa:	b120      	cbz	r0, 80033b6 <UI_ExecCmd+0x42>
 80033ac:	4620      	mov	r0, r4
 80033ae:	f7fd fcdd 	bl	8000d6c <MCI_StopMotor>
 80033b2:	2001      	movs	r0, #1
 80033b4:	bd10      	pop	{r4, pc}
 80033b6:	4620      	mov	r0, r4
 80033b8:	f7fd fcce 	bl	8000d58 <MCI_StartMotor>
 80033bc:	2001      	movs	r0, #1
 80033be:	bd10      	pop	{r4, pc}
 80033c0:	4620      	mov	r0, r4
 80033c2:	f7fd fcd7 	bl	8000d74 <MCI_FaultAcknowledged>
 80033c6:	2001      	movs	r0, #1
 80033c8:	bd10      	pop	{r4, pc}
 80033ca:	4620      	mov	r0, r4
 80033cc:	f7fd fd90 	bl	8000ef0 <MCI_Clear_Iqdref>
 80033d0:	2001      	movs	r0, #1
 80033d2:	bd10      	pop	{r4, pc}
 80033d4:	4620      	mov	r0, r4
 80033d6:	f7fd fcd1 	bl	8000d7c <MCI_EncoderAlign>
 80033da:	2001      	movs	r0, #1
 80033dc:	bd10      	pop	{r4, pc}
 80033de:	2000      	movs	r0, #0
 80033e0:	bd10      	pop	{r4, pc}
 80033e2:	4620      	mov	r0, r4
 80033e4:	f7fd fd38 	bl	8000e58 <MCI_StopRamp>
 80033e8:	2001      	movs	r0, #1
 80033ea:	bd10      	pop	{r4, pc}

080033ec <UI_ExecSpeedRamp>:
 80033ec:	b510      	push	{r4, lr}
 80033ee:	4b07      	ldr	r3, [pc, #28]	; (800340c <UI_ExecSpeedRamp+0x20>)
 80033f0:	7d04      	ldrb	r4, [r0, #20]
 80033f2:	6880      	ldr	r0, [r0, #8]
 80033f4:	fb83 c301 	smull	ip, r3, r3, r1
 80033f8:	eba3 71e1 	sub.w	r1, r3, r1, asr #31
 80033fc:	f850 0024 	ldr.w	r0, [r0, r4, lsl #2]
 8003400:	b209      	sxth	r1, r1
 8003402:	f7fd fc87 	bl	8000d14 <MCI_ExecSpeedRamp>
 8003406:	2001      	movs	r0, #1
 8003408:	bd10      	pop	{r4, pc}
 800340a:	bf00      	nop
 800340c:	2aaaaaab 	.word	0x2aaaaaab

08003410 <UI_ExecTorqueRamp>:
 8003410:	b510      	push	{r4, lr}
 8003412:	6883      	ldr	r3, [r0, #8]
 8003414:	7d04      	ldrb	r4, [r0, #20]
 8003416:	f853 0024 	ldr.w	r0, [r3, r4, lsl #2]
 800341a:	f7fd fc83 	bl	8000d24 <MCI_ExecTorqueRamp>
 800341e:	2001      	movs	r0, #1
 8003420:	bd10      	pop	{r4, pc}
 8003422:	bf00      	nop

08003424 <UI_GetRevupData>:
 8003424:	b5f8      	push	{r3, r4, r5, r6, r7, lr}
 8003426:	7d04      	ldrb	r4, [r0, #20]
 8003428:	68c0      	ldr	r0, [r0, #12]
 800342a:	f850 0024 	ldr.w	r0, [r0, r4, lsl #2]
 800342e:	6944      	ldr	r4, [r0, #20]
 8003430:	b194      	cbz	r4, 8003458 <UI_GetRevupData+0x34>
 8003432:	4620      	mov	r0, r4
 8003434:	461e      	mov	r6, r3
 8003436:	4617      	mov	r7, r2
 8003438:	460d      	mov	r5, r1
 800343a:	f004 ff5d 	bl	80082f8 <RUC_GetPhaseDurationms>
 800343e:	4629      	mov	r1, r5
 8003440:	8038      	strh	r0, [r7, #0]
 8003442:	4620      	mov	r0, r4
 8003444:	f004 ff5e 	bl	8008304 <RUC_GetPhaseFinalMecSpeedUnit>
 8003448:	4629      	mov	r1, r5
 800344a:	8030      	strh	r0, [r6, #0]
 800344c:	4620      	mov	r0, r4
 800344e:	f004 ff61 	bl	8008314 <RUC_GetPhaseFinalTorque>
 8003452:	9b06      	ldr	r3, [sp, #24]
 8003454:	2401      	movs	r4, #1
 8003456:	8018      	strh	r0, [r3, #0]
 8003458:	4620      	mov	r0, r4
 800345a:	bdf8      	pop	{r3, r4, r5, r6, r7, pc}

0800345c <UI_SetRevupData>:
 800345c:	b5f8      	push	{r3, r4, r5, r6, r7, lr}
 800345e:	461f      	mov	r7, r3
 8003460:	7d04      	ldrb	r4, [r0, #20]
 8003462:	68c3      	ldr	r3, [r0, #12]
 8003464:	f9bd 6018 	ldrsh.w	r6, [sp, #24]
 8003468:	f853 3024 	ldr.w	r3, [r3, r4, lsl #2]
 800346c:	695c      	ldr	r4, [r3, #20]
 800346e:	460d      	mov	r5, r1
 8003470:	4620      	mov	r0, r4
 8003472:	f004 ff2f 	bl	80082d4 <RUC_SetPhaseDurationms>
 8003476:	463a      	mov	r2, r7
 8003478:	4629      	mov	r1, r5
 800347a:	4620      	mov	r0, r4
 800347c:	f004 ff30 	bl	80082e0 <RUC_SetPhaseFinalMecSpeedUnit>
 8003480:	4620      	mov	r0, r4
 8003482:	4632      	mov	r2, r6
 8003484:	4629      	mov	r1, r5
 8003486:	f004 ff31 	bl	80082ec <RUC_SetPhaseFinalTorque>
 800348a:	2001      	movs	r0, #1
 800348c:	bdf8      	pop	{r3, r4, r5, r6, r7, pc}
 800348e:	bf00      	nop

08003490 <UI_SetCurrentReferences>:
 8003490:	b082      	sub	sp, #8
 8003492:	6883      	ldr	r3, [r0, #8]
 8003494:	f8ad 1004 	strh.w	r1, [sp, #4]
 8003498:	7d01      	ldrb	r1, [r0, #20]
 800349a:	f8ad 2006 	strh.w	r2, [sp, #6]
 800349e:	f853 0021 	ldr.w	r0, [r3, r1, lsl #2]
 80034a2:	9901      	ldr	r1, [sp, #4]
 80034a4:	b002      	add	sp, #8
 80034a6:	f7fd bc49 	b.w	8000d3c <MCI_SetCurrentReferences>
 80034aa:	bf00      	nop

080034ac <UI_GetMPInfo>:
 80034ac:	2000      	movs	r0, #0
 80034ae:	4770      	bx	lr

080034b0 <SystemInit>:
 80034b0:	4b05      	ldr	r3, [pc, #20]	; (80034c8 <SystemInit+0x18>)
 80034b2:	f8d3 2088 	ldr.w	r2, [r3, #136]	; 0x88
 80034b6:	f04f 6100 	mov.w	r1, #134217728	; 0x8000000
 80034ba:	f442 0270 	orr.w	r2, r2, #15728640	; 0xf00000
 80034be:	f8c3 2088 	str.w	r2, [r3, #136]	; 0x88
 80034c2:	6099      	str	r1, [r3, #8]
 80034c4:	4770      	bx	lr
 80034c6:	bf00      	nop
 80034c8:	e000ed00 	.word	0xe000ed00

080034cc <HAL_InitTick>:
 80034cc:	b538      	push	{r3, r4, r5, lr}
 80034ce:	4a0e      	ldr	r2, [pc, #56]	; (8003508 <HAL_InitTick+0x3c>)
 80034d0:	4b0e      	ldr	r3, [pc, #56]	; (800350c <HAL_InitTick+0x40>)
 80034d2:	7812      	ldrb	r2, [r2, #0]
 80034d4:	681b      	ldr	r3, [r3, #0]
 80034d6:	4605      	mov	r5, r0
 80034d8:	f44f 707a 	mov.w	r0, #1000	; 0x3e8
 80034dc:	fbb0 f0f2 	udiv	r0, r0, r2
 80034e0:	fbb3 f0f0 	udiv	r0, r3, r0
 80034e4:	f000 ff66 	bl	80043b4 <HAL_SYSTICK_Config>
 80034e8:	b908      	cbnz	r0, 80034ee <HAL_InitTick+0x22>
 80034ea:	2d0f      	cmp	r5, #15
 80034ec:	d901      	bls.n	80034f2 <HAL_InitTick+0x26>
 80034ee:	2001      	movs	r0, #1
 80034f0:	bd38      	pop	{r3, r4, r5, pc}
 80034f2:	4604      	mov	r4, r0
 80034f4:	4602      	mov	r2, r0
 80034f6:	4629      	mov	r1, r5
 80034f8:	f04f 30ff 	mov.w	r0, #4294967295
 80034fc:	f000 ff16 	bl	800432c <HAL_NVIC_SetPriority>
 8003500:	4b03      	ldr	r3, [pc, #12]	; (8003510 <HAL_InitTick+0x44>)
 8003502:	4620      	mov	r0, r4
 8003504:	601d      	str	r5, [r3, #0]
 8003506:	bd38      	pop	{r3, r4, r5, pc}
 8003508:	200006d4 	.word	0x200006d4
 800350c:	200006d0 	.word	0x200006d0
 8003510:	200006d8 	.word	0x200006d8

08003514 <HAL_Init>:
 8003514:	4a07      	ldr	r2, [pc, #28]	; (8003534 <HAL_Init+0x20>)
 8003516:	b508      	push	{r3, lr}
 8003518:	6813      	ldr	r3, [r2, #0]
 800351a:	f043 0310 	orr.w	r3, r3, #16
 800351e:	6013      	str	r3, [r2, #0]
 8003520:	2003      	movs	r0, #3
 8003522:	f000 fef1 	bl	8004308 <HAL_NVIC_SetPriorityGrouping>
 8003526:	2004      	movs	r0, #4
 8003528:	f7ff ffd0 	bl	80034cc <HAL_InitTick>
 800352c:	f7fe ffda 	bl	80024e4 <HAL_MspInit>
 8003530:	2000      	movs	r0, #0
 8003532:	bd08      	pop	{r3, pc}
 8003534:	40022000 	.word	0x40022000

08003538 <HAL_IncTick>:
 8003538:	4a03      	ldr	r2, [pc, #12]	; (8003548 <HAL_IncTick+0x10>)
 800353a:	4b04      	ldr	r3, [pc, #16]	; (800354c <HAL_IncTick+0x14>)
 800353c:	6811      	ldr	r1, [r2, #0]
 800353e:	781b      	ldrb	r3, [r3, #0]
 8003540:	440b      	add	r3, r1
 8003542:	6013      	str	r3, [r2, #0]
 8003544:	4770      	bx	lr
 8003546:	bf00      	nop
 8003548:	20000bd4 	.word	0x20000bd4
 800354c:	200006d4 	.word	0x200006d4

08003550 <HAL_GetTick>:
 8003550:	4b01      	ldr	r3, [pc, #4]	; (8003558 <HAL_GetTick+0x8>)
 8003552:	6818      	ldr	r0, [r3, #0]
 8003554:	4770      	bx	lr
 8003556:	bf00      	nop
 8003558:	20000bd4 	.word	0x20000bd4

0800355c <HAL_Delay>:
 800355c:	b538      	push	{r3, r4, r5, lr}
 800355e:	4604      	mov	r4, r0
 8003560:	f7ff fff6 	bl	8003550 <HAL_GetTick>
 8003564:	1c63      	adds	r3, r4, #1
 8003566:	4605      	mov	r5, r0
 8003568:	d002      	beq.n	8003570 <HAL_Delay+0x14>
 800356a:	4b04      	ldr	r3, [pc, #16]	; (800357c <HAL_Delay+0x20>)
 800356c:	781b      	ldrb	r3, [r3, #0]
 800356e:	441c      	add	r4, r3
 8003570:	f7ff ffee 	bl	8003550 <HAL_GetTick>
 8003574:	1b40      	subs	r0, r0, r5
 8003576:	42a0      	cmp	r0, r4
 8003578:	d3fa      	bcc.n	8003570 <HAL_Delay+0x14>
 800357a:	bd38      	pop	{r3, r4, r5, pc}
 800357c:	200006d4 	.word	0x200006d4

08003580 <HAL_ADC_Init>:
 8003580:	b570      	push	{r4, r5, r6, lr}
 8003582:	b082      	sub	sp, #8
 8003584:	2300      	movs	r3, #0
 8003586:	9301      	str	r3, [sp, #4]
 8003588:	2800      	cmp	r0, #0
 800358a:	f000 809b 	beq.w	80036c4 <HAL_ADC_Init+0x144>
 800358e:	6c03      	ldr	r3, [r0, #64]	; 0x40
 8003590:	f013 0310 	ands.w	r3, r3, #16
 8003594:	4604      	mov	r4, r0
 8003596:	d118      	bne.n	80035ca <HAL_ADC_Init+0x4a>
 8003598:	6c05      	ldr	r5, [r0, #64]	; 0x40
 800359a:	2d00      	cmp	r5, #0
 800359c:	f000 8095 	beq.w	80036ca <HAL_ADC_Init+0x14a>
 80035a0:	6801      	ldr	r1, [r0, #0]
 80035a2:	688a      	ldr	r2, [r1, #8]
 80035a4:	00d2      	lsls	r2, r2, #3
 80035a6:	f140 8081 	bpl.w	80036ac <HAL_ADC_Init+0x12c>
 80035aa:	688a      	ldr	r2, [r1, #8]
 80035ac:	0096      	lsls	r6, r2, #2
 80035ae:	d47d      	bmi.n	80036ac <HAL_ADC_Init+0x12c>
 80035b0:	6c22      	ldr	r2, [r4, #64]	; 0x40
 80035b2:	06d0      	lsls	r0, r2, #27
 80035b4:	f140 8097 	bpl.w	80036e6 <HAL_ADC_Init+0x166>
 80035b8:	6c23      	ldr	r3, [r4, #64]	; 0x40
 80035ba:	f023 0312 	bic.w	r3, r3, #18
 80035be:	f043 0310 	orr.w	r3, r3, #16
 80035c2:	6423      	str	r3, [r4, #64]	; 0x40
 80035c4:	2001      	movs	r0, #1
 80035c6:	b002      	add	sp, #8
 80035c8:	bd70      	pop	{r4, r5, r6, pc}
 80035ca:	6c03      	ldr	r3, [r0, #64]	; 0x40
 80035cc:	06dd      	lsls	r5, r3, #27
 80035ce:	d4f3      	bmi.n	80035b8 <HAL_ADC_Init+0x38>
 80035d0:	6801      	ldr	r1, [r0, #0]
 80035d2:	688b      	ldr	r3, [r1, #8]
 80035d4:	f013 0304 	ands.w	r3, r3, #4
 80035d8:	d1ee      	bne.n	80035b8 <HAL_ADC_Init+0x38>
 80035da:	6c22      	ldr	r2, [r4, #64]	; 0x40
 80035dc:	f422 7281 	bic.w	r2, r2, #258	; 0x102
 80035e0:	f042 0202 	orr.w	r2, r2, #2
 80035e4:	f1b1 4fa0 	cmp.w	r1, #1342177280	; 0x50000000
 80035e8:	6422      	str	r2, [r4, #64]	; 0x40
 80035ea:	f000 80df 	beq.w	80037ac <HAL_ADC_Init+0x22c>
 80035ee:	4a9b      	ldr	r2, [pc, #620]	; (800385c <HAL_ADC_Init+0x2dc>)
 80035f0:	4291      	cmp	r1, r2
 80035f2:	d07c      	beq.n	80036ee <HAL_ADC_Init+0x16e>
 80035f4:	489a      	ldr	r0, [pc, #616]	; (8003860 <HAL_ADC_Init+0x2e0>)
 80035f6:	4281      	cmp	r1, r0
 80035f8:	f000 80db 	beq.w	80037b2 <HAL_ADC_Init+0x232>
 80035fc:	4a99      	ldr	r2, [pc, #612]	; (8003864 <HAL_ADC_Init+0x2e4>)
 80035fe:	4291      	cmp	r1, r2
 8003600:	f000 80d8 	beq.w	80037b4 <HAL_ADC_Init+0x234>
 8003604:	688a      	ldr	r2, [r1, #8]
 8003606:	f002 0203 	and.w	r2, r2, #3
 800360a:	2a01      	cmp	r2, #1
 800360c:	f000 8120 	beq.w	8003850 <HAL_ADC_Init+0x2d0>
 8003610:	4d95      	ldr	r5, [pc, #596]	; (8003868 <HAL_ADC_Init+0x2e8>)
 8003612:	68aa      	ldr	r2, [r5, #8]
 8003614:	6860      	ldr	r0, [r4, #4]
 8003616:	f422 3240 	bic.w	r2, r2, #196608	; 0x30000
 800361a:	4302      	orrs	r2, r0
 800361c:	60aa      	str	r2, [r5, #8]
 800361e:	e9d4 5202 	ldrd	r5, r2, [r4, #8]
 8003622:	6b66      	ldr	r6, [r4, #52]	; 0x34
 8003624:	7e60      	ldrb	r0, [r4, #25]
 8003626:	432a      	orrs	r2, r5
 8003628:	f894 5020 	ldrb.w	r5, [r4, #32]
 800362c:	2e01      	cmp	r6, #1
 800362e:	bf18      	it	ne
 8003630:	f44f 5380 	movne.w	r3, #4096	; 0x1000
 8003634:	ea42 3240 	orr.w	r2, r2, r0, lsl #13
 8003638:	2d01      	cmp	r5, #1
 800363a:	ea43 0302 	orr.w	r3, r3, r2
 800363e:	f000 8094 	beq.w	800376a <HAL_ADC_Init+0x1ea>
 8003642:	6aa2      	ldr	r2, [r4, #40]	; 0x28
 8003644:	2a01      	cmp	r2, #1
 8003646:	d00b      	beq.n	8003660 <HAL_ADC_Init+0xe0>
 8003648:	4885      	ldr	r0, [pc, #532]	; (8003860 <HAL_ADC_Init+0x2e0>)
 800364a:	4281      	cmp	r1, r0
 800364c:	f000 80a2 	beq.w	8003794 <HAL_ADC_Init+0x214>
 8003650:	f500 7080 	add.w	r0, r0, #256	; 0x100
 8003654:	4281      	cmp	r1, r0
 8003656:	f000 809d 	beq.w	8003794 <HAL_ADC_Init+0x214>
 800365a:	6ae0      	ldr	r0, [r4, #44]	; 0x2c
 800365c:	4303      	orrs	r3, r0
 800365e:	4313      	orrs	r3, r2
 8003660:	688a      	ldr	r2, [r1, #8]
 8003662:	f012 0f0c 	tst.w	r2, #12
 8003666:	d10c      	bne.n	8003682 <HAL_ADC_Init+0x102>
 8003668:	68c8      	ldr	r0, [r1, #12]
 800366a:	f894 2030 	ldrb.w	r2, [r4, #48]	; 0x30
 800366e:	7e25      	ldrb	r5, [r4, #24]
 8003670:	f420 4080 	bic.w	r0, r0, #16384	; 0x4000
 8003674:	0052      	lsls	r2, r2, #1
 8003676:	f020 0002 	bic.w	r0, r0, #2
 800367a:	ea42 3285 	orr.w	r2, r2, r5, lsl #14
 800367e:	60c8      	str	r0, [r1, #12]
 8003680:	4313      	orrs	r3, r2
 8003682:	68cd      	ldr	r5, [r1, #12]
 8003684:	4a79      	ldr	r2, [pc, #484]	; (800386c <HAL_ADC_Init+0x2ec>)
 8003686:	6920      	ldr	r0, [r4, #16]
 8003688:	402a      	ands	r2, r5
 800368a:	4313      	orrs	r3, r2
 800368c:	2801      	cmp	r0, #1
 800368e:	60cb      	str	r3, [r1, #12]
 8003690:	d073      	beq.n	800377a <HAL_ADC_Init+0x1fa>
 8003692:	6b0b      	ldr	r3, [r1, #48]	; 0x30
 8003694:	f023 030f 	bic.w	r3, r3, #15
 8003698:	630b      	str	r3, [r1, #48]	; 0x30
 800369a:	2000      	movs	r0, #0
 800369c:	6460      	str	r0, [r4, #68]	; 0x44
 800369e:	6c23      	ldr	r3, [r4, #64]	; 0x40
 80036a0:	f023 0303 	bic.w	r3, r3, #3
 80036a4:	f043 0301 	orr.w	r3, r3, #1
 80036a8:	6423      	str	r3, [r4, #64]	; 0x40
 80036aa:	e78c      	b.n	80035c6 <HAL_ADC_Init+0x46>
 80036ac:	6c23      	ldr	r3, [r4, #64]	; 0x40
 80036ae:	f023 0312 	bic.w	r3, r3, #18
 80036b2:	f043 0310 	orr.w	r3, r3, #16
 80036b6:	6423      	str	r3, [r4, #64]	; 0x40
 80036b8:	6c63      	ldr	r3, [r4, #68]	; 0x44
 80036ba:	f043 0301 	orr.w	r3, r3, #1
 80036be:	6463      	str	r3, [r4, #68]	; 0x44
 80036c0:	6c23      	ldr	r3, [r4, #64]	; 0x40
 80036c2:	e779      	b.n	80035b8 <HAL_ADC_Init+0x38>
 80036c4:	2001      	movs	r0, #1
 80036c6:	b002      	add	sp, #8
 80036c8:	bd70      	pop	{r4, r5, r6, pc}
 80036ca:	6445      	str	r5, [r0, #68]	; 0x44
 80036cc:	e9c0 5512 	strd	r5, r5, [r0, #72]	; 0x48
 80036d0:	f880 503c 	strb.w	r5, [r0, #60]	; 0x3c
 80036d4:	f7fe ff20 	bl	8002518 <HAL_ADC_MspInit>
 80036d8:	6821      	ldr	r1, [r4, #0]
 80036da:	688a      	ldr	r2, [r1, #8]
 80036dc:	f012 5280 	ands.w	r2, r2, #268435456	; 0x10000000
 80036e0:	d016      	beq.n	8003710 <HAL_ADC_Init+0x190>
 80036e2:	462b      	mov	r3, r5
 80036e4:	e75d      	b.n	80035a2 <HAL_ADC_Init+0x22>
 80036e6:	2b00      	cmp	r3, #0
 80036e8:	f47f af66 	bne.w	80035b8 <HAL_ADC_Init+0x38>
 80036ec:	e771      	b.n	80035d2 <HAL_ADC_Init+0x52>
 80036ee:	4d60      	ldr	r5, [pc, #384]	; (8003870 <HAL_ADC_Init+0x2f0>)
 80036f0:	f04f 40a0 	mov.w	r0, #1342177280	; 0x50000000
 80036f4:	688a      	ldr	r2, [r1, #8]
 80036f6:	f002 0203 	and.w	r2, r2, #3
 80036fa:	2a01      	cmp	r2, #1
 80036fc:	d045      	beq.n	800378a <HAL_ADC_Init+0x20a>
 80036fe:	6882      	ldr	r2, [r0, #8]
 8003700:	f002 0203 	and.w	r2, r2, #3
 8003704:	2a01      	cmp	r2, #1
 8003706:	d184      	bne.n	8003612 <HAL_ADC_Init+0x92>
 8003708:	6802      	ldr	r2, [r0, #0]
 800370a:	07d2      	lsls	r2, r2, #31
 800370c:	d487      	bmi.n	800361e <HAL_ADC_Init+0x9e>
 800370e:	e780      	b.n	8003612 <HAL_ADC_Init+0x92>
 8003710:	6888      	ldr	r0, [r1, #8]
 8003712:	f000 0003 	and.w	r0, r0, #3
 8003716:	2801      	cmp	r0, #1
 8003718:	d059      	beq.n	80037ce <HAL_ADC_Init+0x24e>
 800371a:	6c23      	ldr	r3, [r4, #64]	; 0x40
 800371c:	06dd      	lsls	r5, r3, #27
 800371e:	d46a      	bmi.n	80037f6 <HAL_ADC_Init+0x276>
 8003720:	6c22      	ldr	r2, [r4, #64]	; 0x40
 8003722:	4b54      	ldr	r3, [pc, #336]	; (8003874 <HAL_ADC_Init+0x2f4>)
 8003724:	4854      	ldr	r0, [pc, #336]	; (8003878 <HAL_ADC_Init+0x2f8>)
 8003726:	681b      	ldr	r3, [r3, #0]
 8003728:	f422 5288 	bic.w	r2, r2, #4352	; 0x1100
 800372c:	f022 0202 	bic.w	r2, r2, #2
 8003730:	f042 0202 	orr.w	r2, r2, #2
 8003734:	6422      	str	r2, [r4, #64]	; 0x40
 8003736:	688a      	ldr	r2, [r1, #8]
 8003738:	f022 5240 	bic.w	r2, r2, #805306368	; 0x30000000
 800373c:	608a      	str	r2, [r1, #8]
 800373e:	fba0 2303 	umull	r2, r3, r0, r3
 8003742:	0c9b      	lsrs	r3, r3, #18
 8003744:	688a      	ldr	r2, [r1, #8]
 8003746:	eb03 0383 	add.w	r3, r3, r3, lsl #2
 800374a:	005b      	lsls	r3, r3, #1
 800374c:	f042 5280 	orr.w	r2, r2, #268435456	; 0x10000000
 8003750:	608a      	str	r2, [r1, #8]
 8003752:	9301      	str	r3, [sp, #4]
 8003754:	9b01      	ldr	r3, [sp, #4]
 8003756:	2b00      	cmp	r3, #0
 8003758:	f43f af23 	beq.w	80035a2 <HAL_ADC_Init+0x22>
 800375c:	9b01      	ldr	r3, [sp, #4]
 800375e:	3b01      	subs	r3, #1
 8003760:	9301      	str	r3, [sp, #4]
 8003762:	9b01      	ldr	r3, [sp, #4]
 8003764:	2b00      	cmp	r3, #0
 8003766:	d1f9      	bne.n	800375c <HAL_ADC_Init+0x1dc>
 8003768:	e71b      	b.n	80035a2 <HAL_ADC_Init+0x22>
 800376a:	bb28      	cbnz	r0, 80037b8 <HAL_ADC_Init+0x238>
 800376c:	6a62      	ldr	r2, [r4, #36]	; 0x24
 800376e:	3a01      	subs	r2, #1
 8003770:	ea43 4342 	orr.w	r3, r3, r2, lsl #17
 8003774:	f443 3380 	orr.w	r3, r3, #65536	; 0x10000
 8003778:	e763      	b.n	8003642 <HAL_ADC_Init+0xc2>
 800377a:	6b0a      	ldr	r2, [r1, #48]	; 0x30
 800377c:	69e3      	ldr	r3, [r4, #28]
 800377e:	f022 020f 	bic.w	r2, r2, #15
 8003782:	3b01      	subs	r3, #1
 8003784:	4313      	orrs	r3, r2
 8003786:	630b      	str	r3, [r1, #48]	; 0x30
 8003788:	e787      	b.n	800369a <HAL_ADC_Init+0x11a>
 800378a:	680a      	ldr	r2, [r1, #0]
 800378c:	07d6      	lsls	r6, r2, #31
 800378e:	f53f af46 	bmi.w	800361e <HAL_ADC_Init+0x9e>
 8003792:	e7b4      	b.n	80036fe <HAL_ADC_Init+0x17e>
 8003794:	f5b2 7f30 	cmp.w	r2, #704	; 0x2c0
 8003798:	d02f      	beq.n	80037fa <HAL_ADC_Init+0x27a>
 800379a:	f5b2 7f80 	cmp.w	r2, #256	; 0x100
 800379e:	d048      	beq.n	8003832 <HAL_ADC_Init+0x2b2>
 80037a0:	f5b2 7fe0 	cmp.w	r2, #448	; 0x1c0
 80037a4:	bf08      	it	eq
 80037a6:	f44f 7280 	moveq.w	r2, #256	; 0x100
 80037aa:	e756      	b.n	800365a <HAL_ADC_Init+0xda>
 80037ac:	482b      	ldr	r0, [pc, #172]	; (800385c <HAL_ADC_Init+0x2dc>)
 80037ae:	4d30      	ldr	r5, [pc, #192]	; (8003870 <HAL_ADC_Init+0x2f0>)
 80037b0:	e7a0      	b.n	80036f4 <HAL_ADC_Init+0x174>
 80037b2:	482c      	ldr	r0, [pc, #176]	; (8003864 <HAL_ADC_Init+0x2e4>)
 80037b4:	4d2c      	ldr	r5, [pc, #176]	; (8003868 <HAL_ADC_Init+0x2e8>)
 80037b6:	e79d      	b.n	80036f4 <HAL_ADC_Init+0x174>
 80037b8:	6c22      	ldr	r2, [r4, #64]	; 0x40
 80037ba:	f022 0222 	bic.w	r2, r2, #34	; 0x22
 80037be:	f042 0220 	orr.w	r2, r2, #32
 80037c2:	6422      	str	r2, [r4, #64]	; 0x40
 80037c4:	6c62      	ldr	r2, [r4, #68]	; 0x44
 80037c6:	f042 0201 	orr.w	r2, r2, #1
 80037ca:	6462      	str	r2, [r4, #68]	; 0x44
 80037cc:	e739      	b.n	8003642 <HAL_ADC_Init+0xc2>
 80037ce:	680b      	ldr	r3, [r1, #0]
 80037d0:	f013 0301 	ands.w	r3, r3, #1
 80037d4:	d028      	beq.n	8003828 <HAL_ADC_Init+0x2a8>
 80037d6:	688b      	ldr	r3, [r1, #8]
 80037d8:	f003 030d 	and.w	r3, r3, #13
 80037dc:	2b01      	cmp	r3, #1
 80037de:	d00f      	beq.n	8003800 <HAL_ADC_Init+0x280>
 80037e0:	6c23      	ldr	r3, [r4, #64]	; 0x40
 80037e2:	f043 0310 	orr.w	r3, r3, #16
 80037e6:	6423      	str	r3, [r4, #64]	; 0x40
 80037e8:	6c63      	ldr	r3, [r4, #68]	; 0x44
 80037ea:	f043 0301 	orr.w	r3, r3, #1
 80037ee:	6463      	str	r3, [r4, #68]	; 0x44
 80037f0:	6c22      	ldr	r2, [r4, #64]	; 0x40
 80037f2:	4603      	mov	r3, r0
 80037f4:	e6d5      	b.n	80035a2 <HAL_ADC_Init+0x22>
 80037f6:	4613      	mov	r3, r2
 80037f8:	e6d3      	b.n	80035a2 <HAL_ADC_Init+0x22>
 80037fa:	f44f 72e0 	mov.w	r2, #448	; 0x1c0
 80037fe:	e72c      	b.n	800365a <HAL_ADC_Init+0xda>
 8003800:	688b      	ldr	r3, [r1, #8]
 8003802:	2203      	movs	r2, #3
 8003804:	f043 0302 	orr.w	r3, r3, #2
 8003808:	608b      	str	r3, [r1, #8]
 800380a:	600a      	str	r2, [r1, #0]
 800380c:	f7ff fea0 	bl	8003550 <HAL_GetTick>
 8003810:	4605      	mov	r5, r0
 8003812:	e004      	b.n	800381e <HAL_ADC_Init+0x29e>
 8003814:	f7ff fe9c 	bl	8003550 <HAL_GetTick>
 8003818:	1b40      	subs	r0, r0, r5
 800381a:	2802      	cmp	r0, #2
 800381c:	d80c      	bhi.n	8003838 <HAL_ADC_Init+0x2b8>
 800381e:	6821      	ldr	r1, [r4, #0]
 8003820:	688b      	ldr	r3, [r1, #8]
 8003822:	f013 0301 	ands.w	r3, r3, #1
 8003826:	d1f5      	bne.n	8003814 <HAL_ADC_Init+0x294>
 8003828:	6c22      	ldr	r2, [r4, #64]	; 0x40
 800382a:	06d0      	lsls	r0, r2, #27
 800382c:	f53f aeb9 	bmi.w	80035a2 <HAL_ADC_Init+0x22>
 8003830:	e776      	b.n	8003720 <HAL_ADC_Init+0x1a0>
 8003832:	f44f 7230 	mov.w	r2, #704	; 0x2c0
 8003836:	e710      	b.n	800365a <HAL_ADC_Init+0xda>
 8003838:	6c23      	ldr	r3, [r4, #64]	; 0x40
 800383a:	6821      	ldr	r1, [r4, #0]
 800383c:	f043 0310 	orr.w	r3, r3, #16
 8003840:	6423      	str	r3, [r4, #64]	; 0x40
 8003842:	6c63      	ldr	r3, [r4, #68]	; 0x44
 8003844:	f043 0301 	orr.w	r3, r3, #1
 8003848:	6463      	str	r3, [r4, #68]	; 0x44
 800384a:	6c23      	ldr	r3, [r4, #64]	; 0x40
 800384c:	2301      	movs	r3, #1
 800384e:	e6a8      	b.n	80035a2 <HAL_ADC_Init+0x22>
 8003850:	680a      	ldr	r2, [r1, #0]
 8003852:	07d2      	lsls	r2, r2, #31
 8003854:	f53f aee3 	bmi.w	800361e <HAL_ADC_Init+0x9e>
 8003858:	e6da      	b.n	8003610 <HAL_ADC_Init+0x90>
 800385a:	bf00      	nop
 800385c:	50000100 	.word	0x50000100
 8003860:	50000400 	.word	0x50000400
 8003864:	50000500 	.word	0x50000500
 8003868:	50000700 	.word	0x50000700
 800386c:	fff0c007 	.word	0xfff0c007
 8003870:	50000300 	.word	0x50000300
 8003874:	200006d0 	.word	0x200006d0
 8003878:	431bde83 	.word	0x431bde83

0800387c <HAL_ADC_ConfigChannel>:
 800387c:	b4f0      	push	{r4, r5, r6, r7}
 800387e:	4602      	mov	r2, r0
 8003880:	b082      	sub	sp, #8
 8003882:	f892 303c 	ldrb.w	r3, [r2, #60]	; 0x3c
 8003886:	2000      	movs	r0, #0
 8003888:	2b01      	cmp	r3, #1
 800388a:	9001      	str	r0, [sp, #4]
 800388c:	f000 80de 	beq.w	8003a4c <HAL_ADC_ConfigChannel+0x1d0>
 8003890:	6813      	ldr	r3, [r2, #0]
 8003892:	68cc      	ldr	r4, [r1, #12]
 8003894:	689d      	ldr	r5, [r3, #8]
 8003896:	2001      	movs	r0, #1
 8003898:	076d      	lsls	r5, r5, #29
 800389a:	f882 003c 	strb.w	r0, [r2, #60]	; 0x3c
 800389e:	d437      	bmi.n	8003910 <HAL_ADC_ConfigChannel+0x94>
 80038a0:	e9d1 5600 	ldrd	r5, r6, [r1]
 80038a4:	eb06 0046 	add.w	r0, r6, r6, lsl #1
 80038a8:	2e04      	cmp	r6, #4
 80038aa:	ea4f 0040 	mov.w	r0, r0, lsl #1
 80038ae:	f200 80a3 	bhi.w	80039f8 <HAL_ADC_ConfigChannel+0x17c>
 80038b2:	6b1e      	ldr	r6, [r3, #48]	; 0x30
 80038b4:	271f      	movs	r7, #31
 80038b6:	4087      	lsls	r7, r0
 80038b8:	ea26 0607 	bic.w	r6, r6, r7
 80038bc:	fa05 f000 	lsl.w	r0, r5, r0
 80038c0:	4330      	orrs	r0, r6
 80038c2:	6318      	str	r0, [r3, #48]	; 0x30
 80038c4:	6898      	ldr	r0, [r3, #8]
 80038c6:	f010 0f0c 	tst.w	r0, #12
 80038ca:	d14f      	bne.n	800396c <HAL_ADC_ConfigChannel+0xf0>
 80038cc:	2d09      	cmp	r5, #9
 80038ce:	eb05 0645 	add.w	r6, r5, r5, lsl #1
 80038d2:	6888      	ldr	r0, [r1, #8]
 80038d4:	f200 809f 	bhi.w	8003a16 <HAL_ADC_ConfigChannel+0x19a>
 80038d8:	695f      	ldr	r7, [r3, #20]
 80038da:	f04f 0c07 	mov.w	ip, #7
 80038de:	fa0c fc06 	lsl.w	ip, ip, r6
 80038e2:	40b0      	lsls	r0, r6
 80038e4:	ea27 060c 	bic.w	r6, r7, ip
 80038e8:	4330      	orrs	r0, r6
 80038ea:	6158      	str	r0, [r3, #20]
 80038ec:	e9d1 6704 	ldrd	r6, r7, [r1, #16]
 80038f0:	68d8      	ldr	r0, [r3, #12]
 80038f2:	f3c0 00c1 	ubfx	r0, r0, #3, #2
 80038f6:	0040      	lsls	r0, r0, #1
 80038f8:	3e01      	subs	r6, #1
 80038fa:	fa07 f000 	lsl.w	r0, r7, r0
 80038fe:	06af      	lsls	r7, r5, #26
 8003900:	2e03      	cmp	r6, #3
 8003902:	d80f      	bhi.n	8003924 <HAL_ADC_ConfigChannel+0xa8>
 8003904:	e8df f016 	tbh	[pc, r6, lsl #1]
 8003908:	00f200fd 	.word	0x00f200fd
 800390c:	00dc00e7 	.word	0x00dc00e7
 8003910:	6c13      	ldr	r3, [r2, #64]	; 0x40
 8003912:	f043 0320 	orr.w	r3, r3, #32
 8003916:	6413      	str	r3, [r2, #64]	; 0x40
 8003918:	2300      	movs	r3, #0
 800391a:	f882 303c 	strb.w	r3, [r2, #60]	; 0x3c
 800391e:	b002      	add	sp, #8
 8003920:	bcf0      	pop	{r4, r5, r6, r7}
 8003922:	4770      	bx	lr
 8003924:	6e18      	ldr	r0, [r3, #96]	; 0x60
 8003926:	f000 40f8 	and.w	r0, r0, #2080374784	; 0x7c000000
 800392a:	42b8      	cmp	r0, r7
 800392c:	d103      	bne.n	8003936 <HAL_ADC_ConfigChannel+0xba>
 800392e:	6e18      	ldr	r0, [r3, #96]	; 0x60
 8003930:	f020 4000 	bic.w	r0, r0, #2147483648	; 0x80000000
 8003934:	6618      	str	r0, [r3, #96]	; 0x60
 8003936:	6e58      	ldr	r0, [r3, #100]	; 0x64
 8003938:	f000 40f8 	and.w	r0, r0, #2080374784	; 0x7c000000
 800393c:	42b8      	cmp	r0, r7
 800393e:	d103      	bne.n	8003948 <HAL_ADC_ConfigChannel+0xcc>
 8003940:	6e58      	ldr	r0, [r3, #100]	; 0x64
 8003942:	f020 4000 	bic.w	r0, r0, #2147483648	; 0x80000000
 8003946:	6658      	str	r0, [r3, #100]	; 0x64
 8003948:	6e98      	ldr	r0, [r3, #104]	; 0x68
 800394a:	f000 40f8 	and.w	r0, r0, #2080374784	; 0x7c000000
 800394e:	42b8      	cmp	r0, r7
 8003950:	d103      	bne.n	800395a <HAL_ADC_ConfigChannel+0xde>
 8003952:	6e98      	ldr	r0, [r3, #104]	; 0x68
 8003954:	f020 4000 	bic.w	r0, r0, #2147483648	; 0x80000000
 8003958:	6698      	str	r0, [r3, #104]	; 0x68
 800395a:	6ed8      	ldr	r0, [r3, #108]	; 0x6c
 800395c:	f000 40f8 	and.w	r0, r0, #2080374784	; 0x7c000000
 8003960:	42b8      	cmp	r0, r7
 8003962:	d103      	bne.n	800396c <HAL_ADC_ConfigChannel+0xf0>
 8003964:	6ed8      	ldr	r0, [r3, #108]	; 0x6c
 8003966:	f020 4000 	bic.w	r0, r0, #2147483648	; 0x80000000
 800396a:	66d8      	str	r0, [r3, #108]	; 0x6c
 800396c:	6898      	ldr	r0, [r3, #8]
 800396e:	f000 0003 	and.w	r0, r0, #3
 8003972:	2801      	cmp	r0, #1
 8003974:	d06e      	beq.n	8003a54 <HAL_ADC_ConfigChannel+0x1d8>
 8003976:	2001      	movs	r0, #1
 8003978:	2c01      	cmp	r4, #1
 800397a:	fa00 f005 	lsl.w	r0, r0, r5
 800397e:	d06d      	beq.n	8003a5c <HAL_ADC_ConfigChannel+0x1e0>
 8003980:	f8d3 10b0 	ldr.w	r1, [r3, #176]	; 0xb0
 8003984:	ea21 0000 	bic.w	r0, r1, r0
 8003988:	f8c3 00b0 	str.w	r0, [r3, #176]	; 0xb0
 800398c:	f1b3 4fa0 	cmp.w	r3, #1342177280	; 0x50000000
 8003990:	d07d      	beq.n	8003a8e <HAL_ADC_ConfigChannel+0x212>
 8003992:	4c87      	ldr	r4, [pc, #540]	; (8003bb0 <HAL_ADC_ConfigChannel+0x334>)
 8003994:	4987      	ldr	r1, [pc, #540]	; (8003bb4 <HAL_ADC_ConfigChannel+0x338>)
 8003996:	4888      	ldr	r0, [pc, #544]	; (8003bb8 <HAL_ADC_ConfigChannel+0x33c>)
 8003998:	42a3      	cmp	r3, r4
 800399a:	bf08      	it	eq
 800399c:	4601      	moveq	r1, r0
 800399e:	2d10      	cmp	r5, #16
 80039a0:	d071      	beq.n	8003a86 <HAL_ADC_ConfigChannel+0x20a>
 80039a2:	2d11      	cmp	r5, #17
 80039a4:	d04e      	beq.n	8003a44 <HAL_ADC_ConfigChannel+0x1c8>
 80039a6:	2d12      	cmp	r5, #18
 80039a8:	d124      	bne.n	80039f4 <HAL_ADC_ConfigChannel+0x178>
 80039aa:	6888      	ldr	r0, [r1, #8]
 80039ac:	0240      	lsls	r0, r0, #9
 80039ae:	d421      	bmi.n	80039f4 <HAL_ADC_ConfigChannel+0x178>
 80039b0:	f1b3 4fa0 	cmp.w	r3, #1342177280	; 0x50000000
 80039b4:	f000 80e4 	beq.w	8003b80 <HAL_ADC_ConfigChannel+0x304>
 80039b8:	487d      	ldr	r0, [pc, #500]	; (8003bb0 <HAL_ADC_ConfigChannel+0x334>)
 80039ba:	4283      	cmp	r3, r0
 80039bc:	f000 80ec 	beq.w	8003b98 <HAL_ADC_ConfigChannel+0x31c>
 80039c0:	4c7e      	ldr	r4, [pc, #504]	; (8003bbc <HAL_ADC_ConfigChannel+0x340>)
 80039c2:	42a3      	cmp	r3, r4
 80039c4:	f000 80a8 	beq.w	8003b18 <HAL_ADC_ConfigChannel+0x29c>
 80039c8:	f500 6080 	add.w	r0, r0, #1024	; 0x400
 80039cc:	4283      	cmp	r3, r0
 80039ce:	f000 80a4 	beq.w	8003b1a <HAL_ADC_ConfigChannel+0x29e>
 80039d2:	6898      	ldr	r0, [r3, #8]
 80039d4:	f000 0003 	and.w	r0, r0, #3
 80039d8:	2801      	cmp	r0, #1
 80039da:	f000 80e4 	beq.w	8003ba6 <HAL_ADC_ConfigChannel+0x32a>
 80039de:	2d10      	cmp	r5, #16
 80039e0:	d008      	beq.n	80039f4 <HAL_ADC_ConfigChannel+0x178>
 80039e2:	2d11      	cmp	r5, #17
 80039e4:	f000 80ce 	beq.w	8003b84 <HAL_ADC_ConfigChannel+0x308>
 80039e8:	2d12      	cmp	r5, #18
 80039ea:	d103      	bne.n	80039f4 <HAL_ADC_ConfigChannel+0x178>
 80039ec:	688b      	ldr	r3, [r1, #8]
 80039ee:	f443 0380 	orr.w	r3, r3, #4194304	; 0x400000
 80039f2:	608b      	str	r3, [r1, #8]
 80039f4:	2000      	movs	r0, #0
 80039f6:	e78f      	b.n	8003918 <HAL_ADC_ConfigChannel+0x9c>
 80039f8:	2e09      	cmp	r6, #9
 80039fa:	d918      	bls.n	8003a2e <HAL_ADC_ConfigChannel+0x1b2>
 80039fc:	2e0e      	cmp	r6, #14
 80039fe:	d854      	bhi.n	8003aaa <HAL_ADC_ConfigChannel+0x22e>
 8003a00:	383c      	subs	r0, #60	; 0x3c
 8003a02:	6b9e      	ldr	r6, [r3, #56]	; 0x38
 8003a04:	271f      	movs	r7, #31
 8003a06:	4087      	lsls	r7, r0
 8003a08:	ea26 0607 	bic.w	r6, r6, r7
 8003a0c:	fa05 f000 	lsl.w	r0, r5, r0
 8003a10:	4330      	orrs	r0, r6
 8003a12:	6398      	str	r0, [r3, #56]	; 0x38
 8003a14:	e756      	b.n	80038c4 <HAL_ADC_ConfigChannel+0x48>
 8003a16:	3e1e      	subs	r6, #30
 8003a18:	699f      	ldr	r7, [r3, #24]
 8003a1a:	f04f 0c07 	mov.w	ip, #7
 8003a1e:	fa0c fc06 	lsl.w	ip, ip, r6
 8003a22:	40b0      	lsls	r0, r6
 8003a24:	ea27 060c 	bic.w	r6, r7, ip
 8003a28:	4330      	orrs	r0, r6
 8003a2a:	6198      	str	r0, [r3, #24]
 8003a2c:	e75e      	b.n	80038ec <HAL_ADC_ConfigChannel+0x70>
 8003a2e:	381e      	subs	r0, #30
 8003a30:	6b5e      	ldr	r6, [r3, #52]	; 0x34
 8003a32:	271f      	movs	r7, #31
 8003a34:	4087      	lsls	r7, r0
 8003a36:	ea26 0607 	bic.w	r6, r6, r7
 8003a3a:	fa05 f000 	lsl.w	r0, r5, r0
 8003a3e:	4330      	orrs	r0, r6
 8003a40:	6358      	str	r0, [r3, #52]	; 0x34
 8003a42:	e73f      	b.n	80038c4 <HAL_ADC_ConfigChannel+0x48>
 8003a44:	6888      	ldr	r0, [r1, #8]
 8003a46:	01c4      	lsls	r4, r0, #7
 8003a48:	d5b2      	bpl.n	80039b0 <HAL_ADC_ConfigChannel+0x134>
 8003a4a:	e7d3      	b.n	80039f4 <HAL_ADC_ConfigChannel+0x178>
 8003a4c:	2002      	movs	r0, #2
 8003a4e:	b002      	add	sp, #8
 8003a50:	bcf0      	pop	{r4, r5, r6, r7}
 8003a52:	4770      	bx	lr
 8003a54:	6818      	ldr	r0, [r3, #0]
 8003a56:	07c7      	lsls	r7, r0, #31
 8003a58:	d58d      	bpl.n	8003976 <HAL_ADC_ConfigChannel+0xfa>
 8003a5a:	e7cb      	b.n	80039f4 <HAL_ADC_ConfigChannel+0x178>
 8003a5c:	f8d3 40b0 	ldr.w	r4, [r3, #176]	; 0xb0
 8003a60:	688e      	ldr	r6, [r1, #8]
 8003a62:	4320      	orrs	r0, r4
 8003a64:	2d09      	cmp	r5, #9
 8003a66:	f8c3 00b0 	str.w	r0, [r3, #176]	; 0xb0
 8003a6a:	d912      	bls.n	8003a92 <HAL_ADC_ConfigChannel+0x216>
 8003a6c:	eb05 0145 	add.w	r1, r5, r5, lsl #1
 8003a70:	391b      	subs	r1, #27
 8003a72:	6998      	ldr	r0, [r3, #24]
 8003a74:	2407      	movs	r4, #7
 8003a76:	408c      	lsls	r4, r1
 8003a78:	ea20 0004 	bic.w	r0, r0, r4
 8003a7c:	fa06 f101 	lsl.w	r1, r6, r1
 8003a80:	4301      	orrs	r1, r0
 8003a82:	6199      	str	r1, [r3, #24]
 8003a84:	e782      	b.n	800398c <HAL_ADC_ConfigChannel+0x110>
 8003a86:	6888      	ldr	r0, [r1, #8]
 8003a88:	0206      	lsls	r6, r0, #8
 8003a8a:	d591      	bpl.n	80039b0 <HAL_ADC_ConfigChannel+0x134>
 8003a8c:	e7b2      	b.n	80039f4 <HAL_ADC_ConfigChannel+0x178>
 8003a8e:	494a      	ldr	r1, [pc, #296]	; (8003bb8 <HAL_ADC_ConfigChannel+0x33c>)
 8003a90:	e785      	b.n	800399e <HAL_ADC_ConfigChannel+0x122>
 8003a92:	1c68      	adds	r0, r5, #1
 8003a94:	eb00 0040 	add.w	r0, r0, r0, lsl #1
 8003a98:	6959      	ldr	r1, [r3, #20]
 8003a9a:	2407      	movs	r4, #7
 8003a9c:	4084      	lsls	r4, r0
 8003a9e:	4086      	lsls	r6, r0
 8003aa0:	ea21 0104 	bic.w	r1, r1, r4
 8003aa4:	4331      	orrs	r1, r6
 8003aa6:	6159      	str	r1, [r3, #20]
 8003aa8:	e770      	b.n	800398c <HAL_ADC_ConfigChannel+0x110>
 8003aaa:	385a      	subs	r0, #90	; 0x5a
 8003aac:	6bde      	ldr	r6, [r3, #60]	; 0x3c
 8003aae:	271f      	movs	r7, #31
 8003ab0:	4087      	lsls	r7, r0
 8003ab2:	ea26 0607 	bic.w	r6, r6, r7
 8003ab6:	fa05 f000 	lsl.w	r0, r5, r0
 8003aba:	4330      	orrs	r0, r6
 8003abc:	63d8      	str	r0, [r3, #60]	; 0x3c
 8003abe:	e701      	b.n	80038c4 <HAL_ADC_ConfigChannel+0x48>
 8003ac0:	f8d3 c06c 	ldr.w	ip, [r3, #108]	; 0x6c
 8003ac4:	4e3e      	ldr	r6, [pc, #248]	; (8003bc0 <HAL_ADC_ConfigChannel+0x344>)
 8003ac6:	ea0c 0606 	and.w	r6, ip, r6
 8003aca:	4337      	orrs	r7, r6
 8003acc:	f047 4700 	orr.w	r7, r7, #2147483648	; 0x80000000
 8003ad0:	4338      	orrs	r0, r7
 8003ad2:	66d8      	str	r0, [r3, #108]	; 0x6c
 8003ad4:	e74a      	b.n	800396c <HAL_ADC_ConfigChannel+0xf0>
 8003ad6:	f8d3 c068 	ldr.w	ip, [r3, #104]	; 0x68
 8003ada:	4e39      	ldr	r6, [pc, #228]	; (8003bc0 <HAL_ADC_ConfigChannel+0x344>)
 8003adc:	ea0c 0606 	and.w	r6, ip, r6
 8003ae0:	4337      	orrs	r7, r6
 8003ae2:	f047 4700 	orr.w	r7, r7, #2147483648	; 0x80000000
 8003ae6:	4338      	orrs	r0, r7
 8003ae8:	6698      	str	r0, [r3, #104]	; 0x68
 8003aea:	e73f      	b.n	800396c <HAL_ADC_ConfigChannel+0xf0>
 8003aec:	f8d3 c064 	ldr.w	ip, [r3, #100]	; 0x64
 8003af0:	4e33      	ldr	r6, [pc, #204]	; (8003bc0 <HAL_ADC_ConfigChannel+0x344>)
 8003af2:	ea0c 0606 	and.w	r6, ip, r6
 8003af6:	4337      	orrs	r7, r6
 8003af8:	f047 4700 	orr.w	r7, r7, #2147483648	; 0x80000000
 8003afc:	4338      	orrs	r0, r7
 8003afe:	6658      	str	r0, [r3, #100]	; 0x64
 8003b00:	e734      	b.n	800396c <HAL_ADC_ConfigChannel+0xf0>
 8003b02:	f8d3 c060 	ldr.w	ip, [r3, #96]	; 0x60
 8003b06:	4e2e      	ldr	r6, [pc, #184]	; (8003bc0 <HAL_ADC_ConfigChannel+0x344>)
 8003b08:	ea0c 0606 	and.w	r6, ip, r6
 8003b0c:	4337      	orrs	r7, r6
 8003b0e:	f047 4700 	orr.w	r7, r7, #2147483648	; 0x80000000
 8003b12:	4338      	orrs	r0, r7
 8003b14:	6618      	str	r0, [r3, #96]	; 0x60
 8003b16:	e729      	b.n	800396c <HAL_ADC_ConfigChannel+0xf0>
 8003b18:	4c2a      	ldr	r4, [pc, #168]	; (8003bc4 <HAL_ADC_ConfigChannel+0x348>)
 8003b1a:	6898      	ldr	r0, [r3, #8]
 8003b1c:	f000 0003 	and.w	r0, r0, #3
 8003b20:	2801      	cmp	r0, #1
 8003b22:	d024      	beq.n	8003b6e <HAL_ADC_ConfigChannel+0x2f2>
 8003b24:	68a0      	ldr	r0, [r4, #8]
 8003b26:	f000 0003 	and.w	r0, r0, #3
 8003b2a:	2801      	cmp	r0, #1
 8003b2c:	d037      	beq.n	8003b9e <HAL_ADC_ConfigChannel+0x322>
 8003b2e:	2d10      	cmp	r5, #16
 8003b30:	f47f af57 	bne.w	80039e2 <HAL_ADC_ConfigChannel+0x166>
 8003b34:	f1b3 4fa0 	cmp.w	r3, #1342177280	; 0x50000000
 8003b38:	f47f af5c 	bne.w	80039f4 <HAL_ADC_ConfigChannel+0x178>
 8003b3c:	4b22      	ldr	r3, [pc, #136]	; (8003bc8 <HAL_ADC_ConfigChannel+0x34c>)
 8003b3e:	4c23      	ldr	r4, [pc, #140]	; (8003bcc <HAL_ADC_ConfigChannel+0x350>)
 8003b40:	681b      	ldr	r3, [r3, #0]
 8003b42:	6888      	ldr	r0, [r1, #8]
 8003b44:	fba4 4303 	umull	r4, r3, r4, r3
 8003b48:	0c9b      	lsrs	r3, r3, #18
 8003b4a:	eb03 0383 	add.w	r3, r3, r3, lsl #2
 8003b4e:	005b      	lsls	r3, r3, #1
 8003b50:	f440 0000 	orr.w	r0, r0, #8388608	; 0x800000
 8003b54:	6088      	str	r0, [r1, #8]
 8003b56:	9301      	str	r3, [sp, #4]
 8003b58:	9b01      	ldr	r3, [sp, #4]
 8003b5a:	2b00      	cmp	r3, #0
 8003b5c:	f43f af4a 	beq.w	80039f4 <HAL_ADC_ConfigChannel+0x178>
 8003b60:	9b01      	ldr	r3, [sp, #4]
 8003b62:	3b01      	subs	r3, #1
 8003b64:	9301      	str	r3, [sp, #4]
 8003b66:	9b01      	ldr	r3, [sp, #4]
 8003b68:	2b00      	cmp	r3, #0
 8003b6a:	d1f9      	bne.n	8003b60 <HAL_ADC_ConfigChannel+0x2e4>
 8003b6c:	e742      	b.n	80039f4 <HAL_ADC_ConfigChannel+0x178>
 8003b6e:	6818      	ldr	r0, [r3, #0]
 8003b70:	07c6      	lsls	r6, r0, #31
 8003b72:	d5d7      	bpl.n	8003b24 <HAL_ADC_ConfigChannel+0x2a8>
 8003b74:	6c13      	ldr	r3, [r2, #64]	; 0x40
 8003b76:	f043 0320 	orr.w	r3, r3, #32
 8003b7a:	6413      	str	r3, [r2, #64]	; 0x40
 8003b7c:	2001      	movs	r0, #1
 8003b7e:	e6cb      	b.n	8003918 <HAL_ADC_ConfigChannel+0x9c>
 8003b80:	4c0b      	ldr	r4, [pc, #44]	; (8003bb0 <HAL_ADC_ConfigChannel+0x334>)
 8003b82:	e7ca      	b.n	8003b1a <HAL_ADC_ConfigChannel+0x29e>
 8003b84:	f1b3 4fa0 	cmp.w	r3, #1342177280	; 0x50000000
 8003b88:	f47f af34 	bne.w	80039f4 <HAL_ADC_ConfigChannel+0x178>
 8003b8c:	688b      	ldr	r3, [r1, #8]
 8003b8e:	f043 7380 	orr.w	r3, r3, #16777216	; 0x1000000
 8003b92:	608b      	str	r3, [r1, #8]
 8003b94:	2000      	movs	r0, #0
 8003b96:	e6bf      	b.n	8003918 <HAL_ADC_ConfigChannel+0x9c>
 8003b98:	f04f 44a0 	mov.w	r4, #1342177280	; 0x50000000
 8003b9c:	e7bd      	b.n	8003b1a <HAL_ADC_ConfigChannel+0x29e>
 8003b9e:	6820      	ldr	r0, [r4, #0]
 8003ba0:	07c0      	lsls	r0, r0, #31
 8003ba2:	d4e7      	bmi.n	8003b74 <HAL_ADC_ConfigChannel+0x2f8>
 8003ba4:	e7c3      	b.n	8003b2e <HAL_ADC_ConfigChannel+0x2b2>
 8003ba6:	6818      	ldr	r0, [r3, #0]
 8003ba8:	07c7      	lsls	r7, r0, #31
 8003baa:	d4e3      	bmi.n	8003b74 <HAL_ADC_ConfigChannel+0x2f8>
 8003bac:	e717      	b.n	80039de <HAL_ADC_ConfigChannel+0x162>
 8003bae:	bf00      	nop
 8003bb0:	50000100 	.word	0x50000100
 8003bb4:	50000700 	.word	0x50000700
 8003bb8:	50000300 	.word	0x50000300
 8003bbc:	50000400 	.word	0x50000400
 8003bc0:	83fff000 	.word	0x83fff000
 8003bc4:	50000500 	.word	0x50000500
 8003bc8:	200006d0 	.word	0x200006d0
 8003bcc:	431bde83 	.word	0x431bde83

08003bd0 <HAL_ADCEx_InjectedConfigChannel>:
 8003bd0:	b4f0      	push	{r4, r5, r6, r7}
 8003bd2:	f890 303c 	ldrb.w	r3, [r0, #60]	; 0x3c
 8003bd6:	b082      	sub	sp, #8
 8003bd8:	2400      	movs	r4, #0
 8003bda:	2b01      	cmp	r3, #1
 8003bdc:	9401      	str	r4, [sp, #4]
 8003bde:	f000 8199 	beq.w	8003f14 <HAL_ADCEx_InjectedConfigChannel+0x344>
 8003be2:	4602      	mov	r2, r0
 8003be4:	6900      	ldr	r0, [r0, #16]
 8003be6:	6813      	ldr	r3, [r2, #0]
 8003be8:	2501      	movs	r5, #1
 8003bea:	f882 503c 	strb.w	r5, [r2, #60]	; 0x3c
 8003bee:	b358      	cbz	r0, 8003c48 <HAL_ADCEx_InjectedConfigChannel+0x78>
 8003bf0:	698d      	ldr	r5, [r1, #24]
 8003bf2:	2d01      	cmp	r5, #1
 8003bf4:	d028      	beq.n	8003c48 <HAL_ADCEx_InjectedConfigChannel+0x78>
 8003bf6:	6cd0      	ldr	r0, [r2, #76]	; 0x4c
 8003bf8:	2800      	cmp	r0, #0
 8003bfa:	f040 8119 	bne.w	8003e30 <HAL_ADCEx_InjectedConfigChannel+0x260>
 8003bfe:	6a0e      	ldr	r6, [r1, #32]
 8003c00:	2e01      	cmp	r6, #1
 8003c02:	e9c2 0512 	strd	r0, r5, [r2, #72]	; 0x48
 8003c06:	f105 35ff 	add.w	r5, r5, #4294967295
 8003c0a:	f000 81f8 	beq.w	8003ffe <HAL_ADCEx_InjectedConfigChannel+0x42e>
 8003c0e:	48bb      	ldr	r0, [pc, #748]	; (8003efc <HAL_ADCEx_InjectedConfigChannel+0x32c>)
 8003c10:	4283      	cmp	r3, r0
 8003c12:	f000 81ec 	beq.w	8003fee <HAL_ADCEx_InjectedConfigChannel+0x41e>
 8003c16:	f500 7080 	add.w	r0, r0, #256	; 0x100
 8003c1a:	4283      	cmp	r3, r0
 8003c1c:	f000 81e7 	beq.w	8003fee <HAL_ADCEx_InjectedConfigChannel+0x41e>
 8003c20:	6a4c      	ldr	r4, [r1, #36]	; 0x24
 8003c22:	432c      	orrs	r4, r5
 8003c24:	4326      	orrs	r6, r4
 8003c26:	e9d1 7400 	ldrd	r7, r4, [r1]
 8003c2a:	eb04 0444 	add.w	r4, r4, r4, lsl #1
 8003c2e:	0060      	lsls	r0, r4, #1
 8003c30:	3002      	adds	r0, #2
 8003c32:	241f      	movs	r4, #31
 8003c34:	4084      	lsls	r4, r0
 8003c36:	ea26 0404 	bic.w	r4, r6, r4
 8003c3a:	fa07 f000 	lsl.w	r0, r7, r0
 8003c3e:	4320      	orrs	r0, r4
 8003c40:	64d5      	str	r5, [r2, #76]	; 0x4c
 8003c42:	6490      	str	r0, [r2, #72]	; 0x48
 8003c44:	2000      	movs	r0, #0
 8003c46:	e008      	b.n	8003c5a <HAL_ADCEx_InjectedConfigChannel+0x8a>
 8003c48:	6848      	ldr	r0, [r1, #4]
 8003c4a:	2801      	cmp	r0, #1
 8003c4c:	f000 80d6 	beq.w	8003dfc <HAL_ADCEx_InjectedConfigChannel+0x22c>
 8003c50:	6c10      	ldr	r0, [r2, #64]	; 0x40
 8003c52:	f040 0020 	orr.w	r0, r0, #32
 8003c56:	6410      	str	r0, [r2, #64]	; 0x40
 8003c58:	2001      	movs	r0, #1
 8003c5a:	689c      	ldr	r4, [r3, #8]
 8003c5c:	0727      	lsls	r7, r4, #28
 8003c5e:	d40d      	bmi.n	8003c7c <HAL_ADCEx_InjectedConfigChannel+0xac>
 8003c60:	7f8c      	ldrb	r4, [r1, #30]
 8003c62:	7f4d      	ldrb	r5, [r1, #29]
 8003c64:	7f0e      	ldrb	r6, [r1, #28]
 8003c66:	0564      	lsls	r4, r4, #21
 8003c68:	2d00      	cmp	r5, #0
 8003c6a:	f040 80b9 	bne.w	8003de0 <HAL_ADCEx_InjectedConfigChannel+0x210>
 8003c6e:	68dd      	ldr	r5, [r3, #12]
 8003c70:	ea44 5406 	orr.w	r4, r4, r6, lsl #20
 8003c74:	f425 1540 	bic.w	r5, r5, #3145728	; 0x300000
 8003c78:	432c      	orrs	r4, r5
 8003c7a:	60dc      	str	r4, [r3, #12]
 8003c7c:	689c      	ldr	r4, [r3, #8]
 8003c7e:	f014 0f0c 	tst.w	r4, #12
 8003c82:	d138      	bne.n	8003cf6 <HAL_ADCEx_InjectedConfigChannel+0x126>
 8003c84:	6a0c      	ldr	r4, [r1, #32]
 8003c86:	7f4d      	ldrb	r5, [r1, #29]
 8003c88:	2c01      	cmp	r4, #1
 8003c8a:	68dc      	ldr	r4, [r3, #12]
 8003c8c:	f024 7400 	bic.w	r4, r4, #33554432	; 0x2000000
 8003c90:	f000 8144 	beq.w	8003f1c <HAL_ADCEx_InjectedConfigChannel+0x34c>
 8003c94:	2d01      	cmp	r5, #1
 8003c96:	60dc      	str	r4, [r3, #12]
 8003c98:	f000 810c 	beq.w	8003eb4 <HAL_ADCEx_InjectedConfigChannel+0x2e4>
 8003c9c:	680c      	ldr	r4, [r1, #0]
 8003c9e:	688d      	ldr	r5, [r1, #8]
 8003ca0:	2c09      	cmp	r4, #9
 8003ca2:	eb04 0644 	add.w	r6, r4, r4, lsl #1
 8003ca6:	f240 8090 	bls.w	8003dca <HAL_ADCEx_InjectedConfigChannel+0x1fa>
 8003caa:	3e1e      	subs	r6, #30
 8003cac:	699f      	ldr	r7, [r3, #24]
 8003cae:	f04f 0c07 	mov.w	ip, #7
 8003cb2:	fa0c fc06 	lsl.w	ip, ip, r6
 8003cb6:	40b5      	lsls	r5, r6
 8003cb8:	ea27 060c 	bic.w	r6, r7, ip
 8003cbc:	4335      	orrs	r5, r6
 8003cbe:	619d      	str	r5, [r3, #24]
 8003cc0:	e9d1 6704 	ldrd	r6, r7, [r1, #16]
 8003cc4:	68dd      	ldr	r5, [r3, #12]
 8003cc6:	f3c5 05c1 	ubfx	r5, r5, #3, #2
 8003cca:	006d      	lsls	r5, r5, #1
 8003ccc:	3e01      	subs	r6, #1
 8003cce:	06a4      	lsls	r4, r4, #26
 8003cd0:	fa07 f505 	lsl.w	r5, r7, r5
 8003cd4:	2e03      	cmp	r6, #3
 8003cd6:	f200 8127 	bhi.w	8003f28 <HAL_ADCEx_InjectedConfigChannel+0x358>
 8003cda:	e8df f016 	tbh	[pc, r6, lsl #1]
 8003cde:	0004      	.short	0x0004
 8003ce0:	00d000d9 	.word	0x00d000d9
 8003ce4:	00e2      	.short	0x00e2
 8003ce6:	6e1e      	ldr	r6, [r3, #96]	; 0x60
 8003ce8:	4f85      	ldr	r7, [pc, #532]	; (8003f00 <HAL_ADCEx_InjectedConfigChannel+0x330>)
 8003cea:	f044 4400 	orr.w	r4, r4, #2147483648	; 0x80000000
 8003cee:	4037      	ands	r7, r6
 8003cf0:	4327      	orrs	r7, r4
 8003cf2:	433d      	orrs	r5, r7
 8003cf4:	661d      	str	r5, [r3, #96]	; 0x60
 8003cf6:	689c      	ldr	r4, [r3, #8]
 8003cf8:	f004 0403 	and.w	r4, r4, #3
 8003cfc:	2c01      	cmp	r4, #1
 8003cfe:	d042      	beq.n	8003d86 <HAL_ADCEx_InjectedConfigChannel+0x1b6>
 8003d00:	68ce      	ldr	r6, [r1, #12]
 8003d02:	680c      	ldr	r4, [r1, #0]
 8003d04:	2501      	movs	r5, #1
 8003d06:	2e01      	cmp	r6, #1
 8003d08:	fa05 f504 	lsl.w	r5, r5, r4
 8003d0c:	d03f      	beq.n	8003d8e <HAL_ADCEx_InjectedConfigChannel+0x1be>
 8003d0e:	f8d3 10b0 	ldr.w	r1, [r3, #176]	; 0xb0
 8003d12:	ea21 0505 	bic.w	r5, r1, r5
 8003d16:	f8c3 50b0 	str.w	r5, [r3, #176]	; 0xb0
 8003d1a:	f1b3 4fa0 	cmp.w	r3, #1342177280	; 0x50000000
 8003d1e:	d04d      	beq.n	8003dbc <HAL_ADCEx_InjectedConfigChannel+0x1ec>
 8003d20:	4e78      	ldr	r6, [pc, #480]	; (8003f04 <HAL_ADCEx_InjectedConfigChannel+0x334>)
 8003d22:	4979      	ldr	r1, [pc, #484]	; (8003f08 <HAL_ADCEx_InjectedConfigChannel+0x338>)
 8003d24:	4d79      	ldr	r5, [pc, #484]	; (8003f0c <HAL_ADCEx_InjectedConfigChannel+0x33c>)
 8003d26:	42b3      	cmp	r3, r6
 8003d28:	bf08      	it	eq
 8003d2a:	4629      	moveq	r1, r5
 8003d2c:	2c10      	cmp	r4, #16
 8003d2e:	d048      	beq.n	8003dc2 <HAL_ADCEx_InjectedConfigChannel+0x1f2>
 8003d30:	2c11      	cmp	r4, #17
 8003d32:	f000 80de 	beq.w	8003ef2 <HAL_ADCEx_InjectedConfigChannel+0x322>
 8003d36:	2c12      	cmp	r4, #18
 8003d38:	d11f      	bne.n	8003d7a <HAL_ADCEx_InjectedConfigChannel+0x1aa>
 8003d3a:	688d      	ldr	r5, [r1, #8]
 8003d3c:	026e      	lsls	r6, r5, #9
 8003d3e:	d41c      	bmi.n	8003d7a <HAL_ADCEx_InjectedConfigChannel+0x1aa>
 8003d40:	f1b3 4fa0 	cmp.w	r3, #1342177280	; 0x50000000
 8003d44:	f000 80ee 	beq.w	8003f24 <HAL_ADCEx_InjectedConfigChannel+0x354>
 8003d48:	4d6e      	ldr	r5, [pc, #440]	; (8003f04 <HAL_ADCEx_InjectedConfigChannel+0x334>)
 8003d4a:	42ab      	cmp	r3, r5
 8003d4c:	f000 80b8 	beq.w	8003ec0 <HAL_ADCEx_InjectedConfigChannel+0x2f0>
 8003d50:	4e6a      	ldr	r6, [pc, #424]	; (8003efc <HAL_ADCEx_InjectedConfigChannel+0x32c>)
 8003d52:	42b3      	cmp	r3, r6
 8003d54:	f000 8155 	beq.w	8004002 <HAL_ADCEx_InjectedConfigChannel+0x432>
 8003d58:	f505 6580 	add.w	r5, r5, #1024	; 0x400
 8003d5c:	42ab      	cmp	r3, r5
 8003d5e:	f000 80b1 	beq.w	8003ec4 <HAL_ADCEx_InjectedConfigChannel+0x2f4>
 8003d62:	689d      	ldr	r5, [r3, #8]
 8003d64:	f005 0503 	and.w	r5, r5, #3
 8003d68:	2d01      	cmp	r5, #1
 8003d6a:	d103      	bne.n	8003d74 <HAL_ADCEx_InjectedConfigChannel+0x1a4>
 8003d6c:	681d      	ldr	r5, [r3, #0]
 8003d6e:	07ed      	lsls	r5, r5, #31
 8003d70:	f100 8114 	bmi.w	8003f9c <HAL_ADCEx_InjectedConfigChannel+0x3cc>
 8003d74:	2c10      	cmp	r4, #16
 8003d76:	f040 80b2 	bne.w	8003ede <HAL_ADCEx_InjectedConfigChannel+0x30e>
 8003d7a:	2300      	movs	r3, #0
 8003d7c:	f882 303c 	strb.w	r3, [r2, #60]	; 0x3c
 8003d80:	b002      	add	sp, #8
 8003d82:	bcf0      	pop	{r4, r5, r6, r7}
 8003d84:	4770      	bx	lr
 8003d86:	681c      	ldr	r4, [r3, #0]
 8003d88:	07e6      	lsls	r6, r4, #31
 8003d8a:	d4f6      	bmi.n	8003d7a <HAL_ADCEx_InjectedConfigChannel+0x1aa>
 8003d8c:	e7b8      	b.n	8003d00 <HAL_ADCEx_InjectedConfigChannel+0x130>
 8003d8e:	f8d3 60b0 	ldr.w	r6, [r3, #176]	; 0xb0
 8003d92:	688f      	ldr	r7, [r1, #8]
 8003d94:	4335      	orrs	r5, r6
 8003d96:	2c09      	cmp	r4, #9
 8003d98:	f8c3 50b0 	str.w	r5, [r3, #176]	; 0xb0
 8003d9c:	d962      	bls.n	8003e64 <HAL_ADCEx_InjectedConfigChannel+0x294>
 8003d9e:	eb04 0144 	add.w	r1, r4, r4, lsl #1
 8003da2:	391b      	subs	r1, #27
 8003da4:	699d      	ldr	r5, [r3, #24]
 8003da6:	2607      	movs	r6, #7
 8003da8:	408e      	lsls	r6, r1
 8003daa:	ea25 0506 	bic.w	r5, r5, r6
 8003dae:	fa07 f101 	lsl.w	r1, r7, r1
 8003db2:	4329      	orrs	r1, r5
 8003db4:	f1b3 4fa0 	cmp.w	r3, #1342177280	; 0x50000000
 8003db8:	6199      	str	r1, [r3, #24]
 8003dba:	d1b1      	bne.n	8003d20 <HAL_ADCEx_InjectedConfigChannel+0x150>
 8003dbc:	2c10      	cmp	r4, #16
 8003dbe:	4953      	ldr	r1, [pc, #332]	; (8003f0c <HAL_ADCEx_InjectedConfigChannel+0x33c>)
 8003dc0:	d1b6      	bne.n	8003d30 <HAL_ADCEx_InjectedConfigChannel+0x160>
 8003dc2:	688d      	ldr	r5, [r1, #8]
 8003dc4:	022d      	lsls	r5, r5, #8
 8003dc6:	d5bb      	bpl.n	8003d40 <HAL_ADCEx_InjectedConfigChannel+0x170>
 8003dc8:	e7d7      	b.n	8003d7a <HAL_ADCEx_InjectedConfigChannel+0x1aa>
 8003dca:	695f      	ldr	r7, [r3, #20]
 8003dcc:	f04f 0c07 	mov.w	ip, #7
 8003dd0:	fa0c fc06 	lsl.w	ip, ip, r6
 8003dd4:	40b5      	lsls	r5, r6
 8003dd6:	ea27 060c 	bic.w	r6, r7, ip
 8003dda:	4335      	orrs	r5, r6
 8003ddc:	615d      	str	r5, [r3, #20]
 8003dde:	e76f      	b.n	8003cc0 <HAL_ADCEx_InjectedConfigChannel+0xf0>
 8003de0:	68dd      	ldr	r5, [r3, #12]
 8003de2:	f425 1540 	bic.w	r5, r5, #3145728	; 0x300000
 8003de6:	432c      	orrs	r4, r5
 8003de8:	2e01      	cmp	r6, #1
 8003dea:	60dc      	str	r4, [r3, #12]
 8003dec:	f47f af46 	bne.w	8003c7c <HAL_ADCEx_InjectedConfigChannel+0xac>
 8003df0:	6c14      	ldr	r4, [r2, #64]	; 0x40
 8003df2:	f044 0420 	orr.w	r4, r4, #32
 8003df6:	4630      	mov	r0, r6
 8003df8:	6414      	str	r4, [r2, #64]	; 0x40
 8003dfa:	e73f      	b.n	8003c7c <HAL_ADCEx_InjectedConfigChannel+0xac>
 8003dfc:	6a08      	ldr	r0, [r1, #32]
 8003dfe:	680c      	ldr	r4, [r1, #0]
 8003e00:	2801      	cmp	r0, #1
 8003e02:	ea4f 2404 	mov.w	r4, r4, lsl #8
 8003e06:	d00b      	beq.n	8003e20 <HAL_ADCEx_InjectedConfigChannel+0x250>
 8003e08:	4d3c      	ldr	r5, [pc, #240]	; (8003efc <HAL_ADCEx_InjectedConfigChannel+0x32c>)
 8003e0a:	42ab      	cmp	r3, r5
 8003e0c:	f000 80bb 	beq.w	8003f86 <HAL_ADCEx_InjectedConfigChannel+0x3b6>
 8003e10:	f505 7580 	add.w	r5, r5, #256	; 0x100
 8003e14:	42ab      	cmp	r3, r5
 8003e16:	f000 80b6 	beq.w	8003f86 <HAL_ADCEx_InjectedConfigChannel+0x3b6>
 8003e1a:	6a4d      	ldr	r5, [r1, #36]	; 0x24
 8003e1c:	432c      	orrs	r4, r5
 8003e1e:	4304      	orrs	r4, r0
 8003e20:	6cd8      	ldr	r0, [r3, #76]	; 0x4c
 8003e22:	4d3b      	ldr	r5, [pc, #236]	; (8003f10 <HAL_ADCEx_InjectedConfigChannel+0x340>)
 8003e24:	4028      	ands	r0, r5
 8003e26:	4320      	orrs	r0, r4
 8003e28:	64d8      	str	r0, [r3, #76]	; 0x4c
 8003e2a:	2000      	movs	r0, #0
 8003e2c:	6494      	str	r4, [r2, #72]	; 0x48
 8003e2e:	e714      	b.n	8003c5a <HAL_ADCEx_InjectedConfigChannel+0x8a>
 8003e30:	684d      	ldr	r5, [r1, #4]
 8003e32:	6c97      	ldr	r7, [r2, #72]	; 0x48
 8003e34:	eb05 0545 	add.w	r5, r5, r5, lsl #1
 8003e38:	006d      	lsls	r5, r5, #1
 8003e3a:	3502      	adds	r5, #2
 8003e3c:	261f      	movs	r6, #31
 8003e3e:	40ae      	lsls	r6, r5
 8003e40:	ea27 0706 	bic.w	r7, r7, r6
 8003e44:	680e      	ldr	r6, [r1, #0]
 8003e46:	fa06 f505 	lsl.w	r5, r6, r5
 8003e4a:	3801      	subs	r0, #1
 8003e4c:	433d      	orrs	r5, r7
 8003e4e:	e9c2 5012 	strd	r5, r0, [r2, #72]	; 0x48
 8003e52:	2800      	cmp	r0, #0
 8003e54:	f47f aef6 	bne.w	8003c44 <HAL_ADCEx_InjectedConfigChannel+0x74>
 8003e58:	6cdf      	ldr	r7, [r3, #76]	; 0x4c
 8003e5a:	4c2d      	ldr	r4, [pc, #180]	; (8003f10 <HAL_ADCEx_InjectedConfigChannel+0x340>)
 8003e5c:	4027      	ands	r7, r4
 8003e5e:	433d      	orrs	r5, r7
 8003e60:	64dd      	str	r5, [r3, #76]	; 0x4c
 8003e62:	e6fa      	b.n	8003c5a <HAL_ADCEx_InjectedConfigChannel+0x8a>
 8003e64:	1c61      	adds	r1, r4, #1
 8003e66:	eb01 0141 	add.w	r1, r1, r1, lsl #1
 8003e6a:	695d      	ldr	r5, [r3, #20]
 8003e6c:	2607      	movs	r6, #7
 8003e6e:	408e      	lsls	r6, r1
 8003e70:	fa07 f101 	lsl.w	r1, r7, r1
 8003e74:	ea25 0706 	bic.w	r7, r5, r6
 8003e78:	4339      	orrs	r1, r7
 8003e7a:	6159      	str	r1, [r3, #20]
 8003e7c:	e74d      	b.n	8003d1a <HAL_ADCEx_InjectedConfigChannel+0x14a>
 8003e7e:	6e9e      	ldr	r6, [r3, #104]	; 0x68
 8003e80:	4f1f      	ldr	r7, [pc, #124]	; (8003f00 <HAL_ADCEx_InjectedConfigChannel+0x330>)
 8003e82:	f044 4400 	orr.w	r4, r4, #2147483648	; 0x80000000
 8003e86:	4037      	ands	r7, r6
 8003e88:	4327      	orrs	r7, r4
 8003e8a:	433d      	orrs	r5, r7
 8003e8c:	669d      	str	r5, [r3, #104]	; 0x68
 8003e8e:	e732      	b.n	8003cf6 <HAL_ADCEx_InjectedConfigChannel+0x126>
 8003e90:	6e5e      	ldr	r6, [r3, #100]	; 0x64
 8003e92:	4f1b      	ldr	r7, [pc, #108]	; (8003f00 <HAL_ADCEx_InjectedConfigChannel+0x330>)
 8003e94:	f044 4400 	orr.w	r4, r4, #2147483648	; 0x80000000
 8003e98:	4037      	ands	r7, r6
 8003e9a:	4327      	orrs	r7, r4
 8003e9c:	433d      	orrs	r5, r7
 8003e9e:	665d      	str	r5, [r3, #100]	; 0x64
 8003ea0:	e729      	b.n	8003cf6 <HAL_ADCEx_InjectedConfigChannel+0x126>
 8003ea2:	6ede      	ldr	r6, [r3, #108]	; 0x6c
 8003ea4:	4f16      	ldr	r7, [pc, #88]	; (8003f00 <HAL_ADCEx_InjectedConfigChannel+0x330>)
 8003ea6:	f044 4400 	orr.w	r4, r4, #2147483648	; 0x80000000
 8003eaa:	4037      	ands	r7, r6
 8003eac:	4327      	orrs	r7, r4
 8003eae:	433d      	orrs	r5, r7
 8003eb0:	66dd      	str	r5, [r3, #108]	; 0x6c
 8003eb2:	e720      	b.n	8003cf6 <HAL_ADCEx_InjectedConfigChannel+0x126>
 8003eb4:	6c14      	ldr	r4, [r2, #64]	; 0x40
 8003eb6:	f044 0420 	orr.w	r4, r4, #32
 8003eba:	4628      	mov	r0, r5
 8003ebc:	6414      	str	r4, [r2, #64]	; 0x40
 8003ebe:	e6ed      	b.n	8003c9c <HAL_ADCEx_InjectedConfigChannel+0xcc>
 8003ec0:	f04f 46a0 	mov.w	r6, #1342177280	; 0x50000000
 8003ec4:	689d      	ldr	r5, [r3, #8]
 8003ec6:	f005 0503 	and.w	r5, r5, #3
 8003eca:	2d01      	cmp	r5, #1
 8003ecc:	f000 8089 	beq.w	8003fe2 <HAL_ADCEx_InjectedConfigChannel+0x412>
 8003ed0:	68b5      	ldr	r5, [r6, #8]
 8003ed2:	f005 0503 	and.w	r5, r5, #3
 8003ed6:	2d01      	cmp	r5, #1
 8003ed8:	d05d      	beq.n	8003f96 <HAL_ADCEx_InjectedConfigChannel+0x3c6>
 8003eda:	2c10      	cmp	r4, #16
 8003edc:	d064      	beq.n	8003fa8 <HAL_ADCEx_InjectedConfigChannel+0x3d8>
 8003ede:	2c11      	cmp	r4, #17
 8003ee0:	d048      	beq.n	8003f74 <HAL_ADCEx_InjectedConfigChannel+0x3a4>
 8003ee2:	2c12      	cmp	r4, #18
 8003ee4:	f47f af49 	bne.w	8003d7a <HAL_ADCEx_InjectedConfigChannel+0x1aa>
 8003ee8:	688b      	ldr	r3, [r1, #8]
 8003eea:	f443 0380 	orr.w	r3, r3, #4194304	; 0x400000
 8003eee:	608b      	str	r3, [r1, #8]
 8003ef0:	e743      	b.n	8003d7a <HAL_ADCEx_InjectedConfigChannel+0x1aa>
 8003ef2:	688d      	ldr	r5, [r1, #8]
 8003ef4:	01ef      	lsls	r7, r5, #7
 8003ef6:	f57f af23 	bpl.w	8003d40 <HAL_ADCEx_InjectedConfigChannel+0x170>
 8003efa:	e73e      	b.n	8003d7a <HAL_ADCEx_InjectedConfigChannel+0x1aa>
 8003efc:	50000400 	.word	0x50000400
 8003f00:	83fff000 	.word	0x83fff000
 8003f04:	50000100 	.word	0x50000100
 8003f08:	50000700 	.word	0x50000700
 8003f0c:	50000300 	.word	0x50000300
 8003f10:	82082000 	.word	0x82082000
 8003f14:	2002      	movs	r0, #2
 8003f16:	b002      	add	sp, #8
 8003f18:	bcf0      	pop	{r4, r5, r6, r7}
 8003f1a:	4770      	bx	lr
 8003f1c:	ea44 6545 	orr.w	r5, r4, r5, lsl #25
 8003f20:	60dd      	str	r5, [r3, #12]
 8003f22:	e6bb      	b.n	8003c9c <HAL_ADCEx_InjectedConfigChannel+0xcc>
 8003f24:	4e3b      	ldr	r6, [pc, #236]	; (8004014 <HAL_ADCEx_InjectedConfigChannel+0x444>)
 8003f26:	e7cd      	b.n	8003ec4 <HAL_ADCEx_InjectedConfigChannel+0x2f4>
 8003f28:	6e1d      	ldr	r5, [r3, #96]	; 0x60
 8003f2a:	f005 45f8 	and.w	r5, r5, #2080374784	; 0x7c000000
 8003f2e:	42a5      	cmp	r5, r4
 8003f30:	d103      	bne.n	8003f3a <HAL_ADCEx_InjectedConfigChannel+0x36a>
 8003f32:	6e1d      	ldr	r5, [r3, #96]	; 0x60
 8003f34:	f025 4500 	bic.w	r5, r5, #2147483648	; 0x80000000
 8003f38:	661d      	str	r5, [r3, #96]	; 0x60
 8003f3a:	6e5d      	ldr	r5, [r3, #100]	; 0x64
 8003f3c:	f005 45f8 	and.w	r5, r5, #2080374784	; 0x7c000000
 8003f40:	42a5      	cmp	r5, r4
 8003f42:	d103      	bne.n	8003f4c <HAL_ADCEx_InjectedConfigChannel+0x37c>
 8003f44:	6e5d      	ldr	r5, [r3, #100]	; 0x64
 8003f46:	f025 4500 	bic.w	r5, r5, #2147483648	; 0x80000000
 8003f4a:	665d      	str	r5, [r3, #100]	; 0x64
 8003f4c:	6e9d      	ldr	r5, [r3, #104]	; 0x68
 8003f4e:	f005 45f8 	and.w	r5, r5, #2080374784	; 0x7c000000
 8003f52:	42a5      	cmp	r5, r4
 8003f54:	d103      	bne.n	8003f5e <HAL_ADCEx_InjectedConfigChannel+0x38e>
 8003f56:	6e9d      	ldr	r5, [r3, #104]	; 0x68
 8003f58:	f025 4500 	bic.w	r5, r5, #2147483648	; 0x80000000
 8003f5c:	669d      	str	r5, [r3, #104]	; 0x68
 8003f5e:	6edd      	ldr	r5, [r3, #108]	; 0x6c
 8003f60:	f005 45f8 	and.w	r5, r5, #2080374784	; 0x7c000000
 8003f64:	42a5      	cmp	r5, r4
 8003f66:	f47f aec6 	bne.w	8003cf6 <HAL_ADCEx_InjectedConfigChannel+0x126>
 8003f6a:	6edc      	ldr	r4, [r3, #108]	; 0x6c
 8003f6c:	f024 4400 	bic.w	r4, r4, #2147483648	; 0x80000000
 8003f70:	66dc      	str	r4, [r3, #108]	; 0x6c
 8003f72:	e6c0      	b.n	8003cf6 <HAL_ADCEx_InjectedConfigChannel+0x126>
 8003f74:	f1b3 4fa0 	cmp.w	r3, #1342177280	; 0x50000000
 8003f78:	f47f aeff 	bne.w	8003d7a <HAL_ADCEx_InjectedConfigChannel+0x1aa>
 8003f7c:	688b      	ldr	r3, [r1, #8]
 8003f7e:	f043 7380 	orr.w	r3, r3, #16777216	; 0x1000000
 8003f82:	608b      	str	r3, [r1, #8]
 8003f84:	e6f9      	b.n	8003d7a <HAL_ADCEx_InjectedConfigChannel+0x1aa>
 8003f86:	2808      	cmp	r0, #8
 8003f88:	d02f      	beq.n	8003fea <HAL_ADCEx_InjectedConfigChannel+0x41a>
 8003f8a:	2814      	cmp	r0, #20
 8003f8c:	d03d      	beq.n	800400a <HAL_ADCEx_InjectedConfigChannel+0x43a>
 8003f8e:	281c      	cmp	r0, #28
 8003f90:	bf08      	it	eq
 8003f92:	2010      	moveq	r0, #16
 8003f94:	e741      	b.n	8003e1a <HAL_ADCEx_InjectedConfigChannel+0x24a>
 8003f96:	6835      	ldr	r5, [r6, #0]
 8003f98:	07ed      	lsls	r5, r5, #31
 8003f9a:	d59e      	bpl.n	8003eda <HAL_ADCEx_InjectedConfigChannel+0x30a>
 8003f9c:	6c13      	ldr	r3, [r2, #64]	; 0x40
 8003f9e:	f043 0320 	orr.w	r3, r3, #32
 8003fa2:	6413      	str	r3, [r2, #64]	; 0x40
 8003fa4:	2001      	movs	r0, #1
 8003fa6:	e6e8      	b.n	8003d7a <HAL_ADCEx_InjectedConfigChannel+0x1aa>
 8003fa8:	f1b3 4fa0 	cmp.w	r3, #1342177280	; 0x50000000
 8003fac:	f47f aee5 	bne.w	8003d7a <HAL_ADCEx_InjectedConfigChannel+0x1aa>
 8003fb0:	4b19      	ldr	r3, [pc, #100]	; (8004018 <HAL_ADCEx_InjectedConfigChannel+0x448>)
 8003fb2:	4d1a      	ldr	r5, [pc, #104]	; (800401c <HAL_ADCEx_InjectedConfigChannel+0x44c>)
 8003fb4:	681b      	ldr	r3, [r3, #0]
 8003fb6:	688c      	ldr	r4, [r1, #8]
 8003fb8:	fba5 5303 	umull	r5, r3, r5, r3
 8003fbc:	0c9b      	lsrs	r3, r3, #18
 8003fbe:	eb03 0383 	add.w	r3, r3, r3, lsl #2
 8003fc2:	005b      	lsls	r3, r3, #1
 8003fc4:	f444 0400 	orr.w	r4, r4, #8388608	; 0x800000
 8003fc8:	608c      	str	r4, [r1, #8]
 8003fca:	9301      	str	r3, [sp, #4]
 8003fcc:	9b01      	ldr	r3, [sp, #4]
 8003fce:	2b00      	cmp	r3, #0
 8003fd0:	f43f aed3 	beq.w	8003d7a <HAL_ADCEx_InjectedConfigChannel+0x1aa>
 8003fd4:	9b01      	ldr	r3, [sp, #4]
 8003fd6:	3b01      	subs	r3, #1
 8003fd8:	9301      	str	r3, [sp, #4]
 8003fda:	9b01      	ldr	r3, [sp, #4]
 8003fdc:	2b00      	cmp	r3, #0
 8003fde:	d1f9      	bne.n	8003fd4 <HAL_ADCEx_InjectedConfigChannel+0x404>
 8003fe0:	e6cb      	b.n	8003d7a <HAL_ADCEx_InjectedConfigChannel+0x1aa>
 8003fe2:	681d      	ldr	r5, [r3, #0]
 8003fe4:	07ef      	lsls	r7, r5, #31
 8003fe6:	d4d9      	bmi.n	8003f9c <HAL_ADCEx_InjectedConfigChannel+0x3cc>
 8003fe8:	e772      	b.n	8003ed0 <HAL_ADCEx_InjectedConfigChannel+0x300>
 8003fea:	2034      	movs	r0, #52	; 0x34
 8003fec:	e715      	b.n	8003e1a <HAL_ADCEx_InjectedConfigChannel+0x24a>
 8003fee:	2e08      	cmp	r6, #8
 8003ff0:	d009      	beq.n	8004006 <HAL_ADCEx_InjectedConfigChannel+0x436>
 8003ff2:	2e14      	cmp	r6, #20
 8003ff4:	d00b      	beq.n	800400e <HAL_ADCEx_InjectedConfigChannel+0x43e>
 8003ff6:	2e1c      	cmp	r6, #28
 8003ff8:	bf08      	it	eq
 8003ffa:	2610      	moveq	r6, #16
 8003ffc:	e610      	b.n	8003c20 <HAL_ADCEx_InjectedConfigChannel+0x50>
 8003ffe:	462e      	mov	r6, r5
 8004000:	e611      	b.n	8003c26 <HAL_ADCEx_InjectedConfigChannel+0x56>
 8004002:	4e07      	ldr	r6, [pc, #28]	; (8004020 <HAL_ADCEx_InjectedConfigChannel+0x450>)
 8004004:	e75e      	b.n	8003ec4 <HAL_ADCEx_InjectedConfigChannel+0x2f4>
 8004006:	2634      	movs	r6, #52	; 0x34
 8004008:	e60a      	b.n	8003c20 <HAL_ADCEx_InjectedConfigChannel+0x50>
 800400a:	201c      	movs	r0, #28
 800400c:	e705      	b.n	8003e1a <HAL_ADCEx_InjectedConfigChannel+0x24a>
 800400e:	261c      	movs	r6, #28
 8004010:	e606      	b.n	8003c20 <HAL_ADCEx_InjectedConfigChannel+0x50>
 8004012:	bf00      	nop
 8004014:	50000100 	.word	0x50000100
 8004018:	200006d0 	.word	0x200006d0
 800401c:	431bde83 	.word	0x431bde83
 8004020:	50000500 	.word	0x50000500

08004024 <HAL_ADCEx_MultiModeConfigChannel>:
 8004024:	6802      	ldr	r2, [r0, #0]
 8004026:	f1b2 4fa0 	cmp.w	r2, #1342177280	; 0x50000000
 800402a:	4603      	mov	r3, r0
 800402c:	b4f0      	push	{r4, r5, r6, r7}
 800402e:	4840      	ldr	r0, [pc, #256]	; (8004130 <HAL_ADCEx_MultiModeConfigChannel+0x10c>)
 8004030:	d00d      	beq.n	800404e <HAL_ADCEx_MultiModeConfigChannel+0x2a>
 8004032:	4282      	cmp	r2, r0
 8004034:	d009      	beq.n	800404a <HAL_ADCEx_MultiModeConfigChannel+0x26>
 8004036:	f500 7040 	add.w	r0, r0, #768	; 0x300
 800403a:	4282      	cmp	r2, r0
 800403c:	d048      	beq.n	80040d0 <HAL_ADCEx_MultiModeConfigChannel+0xac>
 800403e:	4c3d      	ldr	r4, [pc, #244]	; (8004134 <HAL_ADCEx_MultiModeConfigChannel+0x110>)
 8004040:	42a2      	cmp	r2, r4
 8004042:	d004      	beq.n	800404e <HAL_ADCEx_MultiModeConfigChannel+0x2a>
 8004044:	2001      	movs	r0, #1
 8004046:	bcf0      	pop	{r4, r5, r6, r7}
 8004048:	4770      	bx	lr
 800404a:	f04f 40a0 	mov.w	r0, #1342177280	; 0x50000000
 800404e:	f893 403c 	ldrb.w	r4, [r3, #60]	; 0x3c
 8004052:	2c01      	cmp	r4, #1
 8004054:	d041      	beq.n	80040da <HAL_ADCEx_MultiModeConfigChannel+0xb6>
 8004056:	6894      	ldr	r4, [r2, #8]
 8004058:	2501      	movs	r5, #1
 800405a:	0764      	lsls	r4, r4, #29
 800405c:	f883 503c 	strb.w	r5, [r3, #60]	; 0x3c
 8004060:	d509      	bpl.n	8004076 <HAL_ADCEx_MultiModeConfigChannel+0x52>
 8004062:	6c1a      	ldr	r2, [r3, #64]	; 0x40
 8004064:	f042 0220 	orr.w	r2, r2, #32
 8004068:	641a      	str	r2, [r3, #64]	; 0x40
 800406a:	2001      	movs	r0, #1
 800406c:	2200      	movs	r2, #0
 800406e:	f883 203c 	strb.w	r2, [r3, #60]	; 0x3c
 8004072:	bcf0      	pop	{r4, r5, r6, r7}
 8004074:	4770      	bx	lr
 8004076:	6884      	ldr	r4, [r0, #8]
 8004078:	0767      	lsls	r7, r4, #29
 800407a:	d4f2      	bmi.n	8004062 <HAL_ADCEx_MultiModeConfigChannel+0x3e>
 800407c:	f1b2 4fa0 	cmp.w	r2, #1342177280	; 0x50000000
 8004080:	d054      	beq.n	800412c <HAL_ADCEx_MultiModeConfigChannel+0x108>
 8004082:	4e2b      	ldr	r6, [pc, #172]	; (8004130 <HAL_ADCEx_MultiModeConfigChannel+0x10c>)
 8004084:	4c2c      	ldr	r4, [pc, #176]	; (8004138 <HAL_ADCEx_MultiModeConfigChannel+0x114>)
 8004086:	4d2d      	ldr	r5, [pc, #180]	; (800413c <HAL_ADCEx_MultiModeConfigChannel+0x118>)
 8004088:	42b2      	cmp	r2, r6
 800408a:	bf08      	it	eq
 800408c:	462c      	moveq	r4, r5
 800408e:	680d      	ldr	r5, [r1, #0]
 8004090:	b335      	cbz	r5, 80040e0 <HAL_ADCEx_MultiModeConfigChannel+0xbc>
 8004092:	68a7      	ldr	r7, [r4, #8]
 8004094:	f893 c030 	ldrb.w	ip, [r3, #48]	; 0x30
 8004098:	684e      	ldr	r6, [r1, #4]
 800409a:	f427 4760 	bic.w	r7, r7, #57344	; 0xe000
 800409e:	ea46 364c 	orr.w	r6, r6, ip, lsl #13
 80040a2:	433e      	orrs	r6, r7
 80040a4:	60a6      	str	r6, [r4, #8]
 80040a6:	6896      	ldr	r6, [r2, #8]
 80040a8:	f006 0603 	and.w	r6, r6, #3
 80040ac:	2e01      	cmp	r6, #1
 80040ae:	d031      	beq.n	8004114 <HAL_ADCEx_MultiModeConfigChannel+0xf0>
 80040b0:	6882      	ldr	r2, [r0, #8]
 80040b2:	f002 0203 	and.w	r2, r2, #3
 80040b6:	2a01      	cmp	r2, #1
 80040b8:	d030      	beq.n	800411c <HAL_ADCEx_MultiModeConfigChannel+0xf8>
 80040ba:	68a2      	ldr	r2, [r4, #8]
 80040bc:	6889      	ldr	r1, [r1, #8]
 80040be:	f422 6271 	bic.w	r2, r2, #3856	; 0xf10
 80040c2:	430d      	orrs	r5, r1
 80040c4:	f022 020f 	bic.w	r2, r2, #15
 80040c8:	4315      	orrs	r5, r2
 80040ca:	60a5      	str	r5, [r4, #8]
 80040cc:	2000      	movs	r0, #0
 80040ce:	e7cd      	b.n	800406c <HAL_ADCEx_MultiModeConfigChannel+0x48>
 80040d0:	f893 403c 	ldrb.w	r4, [r3, #60]	; 0x3c
 80040d4:	4817      	ldr	r0, [pc, #92]	; (8004134 <HAL_ADCEx_MultiModeConfigChannel+0x110>)
 80040d6:	2c01      	cmp	r4, #1
 80040d8:	d1bd      	bne.n	8004056 <HAL_ADCEx_MultiModeConfigChannel+0x32>
 80040da:	2002      	movs	r0, #2
 80040dc:	bcf0      	pop	{r4, r5, r6, r7}
 80040de:	4770      	bx	lr
 80040e0:	68a1      	ldr	r1, [r4, #8]
 80040e2:	f421 4160 	bic.w	r1, r1, #57344	; 0xe000
 80040e6:	60a1      	str	r1, [r4, #8]
 80040e8:	6891      	ldr	r1, [r2, #8]
 80040ea:	f001 0103 	and.w	r1, r1, #3
 80040ee:	2901      	cmp	r1, #1
 80040f0:	d00c      	beq.n	800410c <HAL_ADCEx_MultiModeConfigChannel+0xe8>
 80040f2:	6882      	ldr	r2, [r0, #8]
 80040f4:	f002 0203 	and.w	r2, r2, #3
 80040f8:	2a01      	cmp	r2, #1
 80040fa:	d013      	beq.n	8004124 <HAL_ADCEx_MultiModeConfigChannel+0x100>
 80040fc:	68a2      	ldr	r2, [r4, #8]
 80040fe:	f422 6271 	bic.w	r2, r2, #3856	; 0xf10
 8004102:	f022 020f 	bic.w	r2, r2, #15
 8004106:	60a2      	str	r2, [r4, #8]
 8004108:	2000      	movs	r0, #0
 800410a:	e7af      	b.n	800406c <HAL_ADCEx_MultiModeConfigChannel+0x48>
 800410c:	6812      	ldr	r2, [r2, #0]
 800410e:	07d1      	lsls	r1, r2, #31
 8004110:	d4dc      	bmi.n	80040cc <HAL_ADCEx_MultiModeConfigChannel+0xa8>
 8004112:	e7ee      	b.n	80040f2 <HAL_ADCEx_MultiModeConfigChannel+0xce>
 8004114:	6812      	ldr	r2, [r2, #0]
 8004116:	07d6      	lsls	r6, r2, #31
 8004118:	d5ca      	bpl.n	80040b0 <HAL_ADCEx_MultiModeConfigChannel+0x8c>
 800411a:	e7d7      	b.n	80040cc <HAL_ADCEx_MultiModeConfigChannel+0xa8>
 800411c:	6802      	ldr	r2, [r0, #0]
 800411e:	07d0      	lsls	r0, r2, #31
 8004120:	d4d4      	bmi.n	80040cc <HAL_ADCEx_MultiModeConfigChannel+0xa8>
 8004122:	e7ca      	b.n	80040ba <HAL_ADCEx_MultiModeConfigChannel+0x96>
 8004124:	6802      	ldr	r2, [r0, #0]
 8004126:	07d2      	lsls	r2, r2, #31
 8004128:	d4d0      	bmi.n	80040cc <HAL_ADCEx_MultiModeConfigChannel+0xa8>
 800412a:	e7e7      	b.n	80040fc <HAL_ADCEx_MultiModeConfigChannel+0xd8>
 800412c:	4c03      	ldr	r4, [pc, #12]	; (800413c <HAL_ADCEx_MultiModeConfigChannel+0x118>)
 800412e:	e7ae      	b.n	800408e <HAL_ADCEx_MultiModeConfigChannel+0x6a>
 8004130:	50000100 	.word	0x50000100
 8004134:	50000500 	.word	0x50000500
 8004138:	50000700 	.word	0x50000700
 800413c:	50000300 	.word	0x50000300

08004140 <HAL_CAN_Init>:
 8004140:	2800      	cmp	r0, #0
 8004142:	d07c      	beq.n	800423e <HAL_CAN_Init+0xfe>
 8004144:	b538      	push	{r3, r4, r5, lr}
 8004146:	f890 3020 	ldrb.w	r3, [r0, #32]
 800414a:	4604      	mov	r4, r0
 800414c:	2b00      	cmp	r3, #0
 800414e:	d073      	beq.n	8004238 <HAL_CAN_Init+0xf8>
 8004150:	6822      	ldr	r2, [r4, #0]
 8004152:	6813      	ldr	r3, [r2, #0]
 8004154:	f023 0302 	bic.w	r3, r3, #2
 8004158:	6013      	str	r3, [r2, #0]
 800415a:	f7ff f9f9 	bl	8003550 <HAL_GetTick>
 800415e:	4605      	mov	r5, r0
 8004160:	e004      	b.n	800416c <HAL_CAN_Init+0x2c>
 8004162:	f7ff f9f5 	bl	8003550 <HAL_GetTick>
 8004166:	1b40      	subs	r0, r0, r5
 8004168:	280a      	cmp	r0, #10
 800416a:	d85c      	bhi.n	8004226 <HAL_CAN_Init+0xe6>
 800416c:	6823      	ldr	r3, [r4, #0]
 800416e:	685a      	ldr	r2, [r3, #4]
 8004170:	0791      	lsls	r1, r2, #30
 8004172:	d4f6      	bmi.n	8004162 <HAL_CAN_Init+0x22>
 8004174:	681a      	ldr	r2, [r3, #0]
 8004176:	f042 0201 	orr.w	r2, r2, #1
 800417a:	601a      	str	r2, [r3, #0]
 800417c:	f7ff f9e8 	bl	8003550 <HAL_GetTick>
 8004180:	4605      	mov	r5, r0
 8004182:	e004      	b.n	800418e <HAL_CAN_Init+0x4e>
 8004184:	f7ff f9e4 	bl	8003550 <HAL_GetTick>
 8004188:	1b40      	subs	r0, r0, r5
 800418a:	280a      	cmp	r0, #10
 800418c:	d84b      	bhi.n	8004226 <HAL_CAN_Init+0xe6>
 800418e:	6823      	ldr	r3, [r4, #0]
 8004190:	685a      	ldr	r2, [r3, #4]
 8004192:	07d2      	lsls	r2, r2, #31
 8004194:	d5f6      	bpl.n	8004184 <HAL_CAN_Init+0x44>
 8004196:	7e22      	ldrb	r2, [r4, #24]
 8004198:	2a01      	cmp	r2, #1
 800419a:	681a      	ldr	r2, [r3, #0]
 800419c:	bf0c      	ite	eq
 800419e:	f042 0280 	orreq.w	r2, r2, #128	; 0x80
 80041a2:	f022 0280 	bicne.w	r2, r2, #128	; 0x80
 80041a6:	601a      	str	r2, [r3, #0]
 80041a8:	7e62      	ldrb	r2, [r4, #25]
 80041aa:	2a01      	cmp	r2, #1
 80041ac:	681a      	ldr	r2, [r3, #0]
 80041ae:	bf0c      	ite	eq
 80041b0:	f042 0240 	orreq.w	r2, r2, #64	; 0x40
 80041b4:	f022 0240 	bicne.w	r2, r2, #64	; 0x40
 80041b8:	601a      	str	r2, [r3, #0]
 80041ba:	7ea2      	ldrb	r2, [r4, #26]
 80041bc:	2a01      	cmp	r2, #1
 80041be:	681a      	ldr	r2, [r3, #0]
 80041c0:	bf0c      	ite	eq
 80041c2:	f042 0220 	orreq.w	r2, r2, #32
 80041c6:	f022 0220 	bicne.w	r2, r2, #32
 80041ca:	601a      	str	r2, [r3, #0]
 80041cc:	7ee2      	ldrb	r2, [r4, #27]
 80041ce:	2a01      	cmp	r2, #1
 80041d0:	681a      	ldr	r2, [r3, #0]
 80041d2:	bf0c      	ite	eq
 80041d4:	f022 0210 	biceq.w	r2, r2, #16
 80041d8:	f042 0210 	orrne.w	r2, r2, #16
 80041dc:	601a      	str	r2, [r3, #0]
 80041de:	7f22      	ldrb	r2, [r4, #28]
 80041e0:	2a01      	cmp	r2, #1
 80041e2:	681a      	ldr	r2, [r3, #0]
 80041e4:	bf0c      	ite	eq
 80041e6:	f042 0208 	orreq.w	r2, r2, #8
 80041ea:	f022 0208 	bicne.w	r2, r2, #8
 80041ee:	601a      	str	r2, [r3, #0]
 80041f0:	7f62      	ldrb	r2, [r4, #29]
 80041f2:	2a01      	cmp	r2, #1
 80041f4:	681a      	ldr	r2, [r3, #0]
 80041f6:	bf0c      	ite	eq
 80041f8:	f042 0204 	orreq.w	r2, r2, #4
 80041fc:	f022 0204 	bicne.w	r2, r2, #4
 8004200:	601a      	str	r2, [r3, #0]
 8004202:	e9d4 2102 	ldrd	r2, r1, [r4, #8]
 8004206:	e9d4 5004 	ldrd	r5, r0, [r4, #16]
 800420a:	430a      	orrs	r2, r1
 800420c:	6861      	ldr	r1, [r4, #4]
 800420e:	432a      	orrs	r2, r5
 8004210:	4302      	orrs	r2, r0
 8004212:	3901      	subs	r1, #1
 8004214:	430a      	orrs	r2, r1
 8004216:	2501      	movs	r5, #1
 8004218:	2100      	movs	r1, #0
 800421a:	61da      	str	r2, [r3, #28]
 800421c:	4608      	mov	r0, r1
 800421e:	6261      	str	r1, [r4, #36]	; 0x24
 8004220:	f884 5020 	strb.w	r5, [r4, #32]
 8004224:	bd38      	pop	{r3, r4, r5, pc}
 8004226:	6a63      	ldr	r3, [r4, #36]	; 0x24
 8004228:	2205      	movs	r2, #5
 800422a:	f443 3300 	orr.w	r3, r3, #131072	; 0x20000
 800422e:	6263      	str	r3, [r4, #36]	; 0x24
 8004230:	2001      	movs	r0, #1
 8004232:	f884 2020 	strb.w	r2, [r4, #32]
 8004236:	bd38      	pop	{r3, r4, r5, pc}
 8004238:	f7fe f9c6 	bl	80025c8 <HAL_CAN_MspInit>
 800423c:	e788      	b.n	8004150 <HAL_CAN_Init+0x10>
 800423e:	2001      	movs	r0, #1
 8004240:	4770      	bx	lr
 8004242:	bf00      	nop

08004244 <HAL_COMP_Init>:
 8004244:	2800      	cmp	r0, #0
 8004246:	d05a      	beq.n	80042fe <HAL_COMP_Init+0xba>
 8004248:	b570      	push	{r4, r5, r6, lr}
 800424a:	f890 3029 	ldrb.w	r3, [r0, #41]	; 0x29
 800424e:	06db      	lsls	r3, r3, #27
 8004250:	b082      	sub	sp, #8
 8004252:	4604      	mov	r4, r0
 8004254:	d502      	bpl.n	800425c <HAL_COMP_Init+0x18>
 8004256:	2001      	movs	r0, #1
 8004258:	b002      	add	sp, #8
 800425a:	bd70      	pop	{r4, r5, r6, pc}
 800425c:	4b29      	ldr	r3, [pc, #164]	; (8004304 <HAL_COMP_Init+0xc0>)
 800425e:	699a      	ldr	r2, [r3, #24]
 8004260:	f042 0201 	orr.w	r2, r2, #1
 8004264:	619a      	str	r2, [r3, #24]
 8004266:	699b      	ldr	r3, [r3, #24]
 8004268:	f003 0301 	and.w	r3, r3, #1
 800426c:	9300      	str	r3, [sp, #0]
 800426e:	9b00      	ldr	r3, [sp, #0]
 8004270:	f7fe f9e2 	bl	8002638 <HAL_COMP_MspInit>
 8004274:	f894 3029 	ldrb.w	r3, [r4, #41]	; 0x29
 8004278:	f003 02ff 	and.w	r2, r3, #255	; 0xff
 800427c:	b90b      	cbnz	r3, 8004282 <HAL_COMP_Init+0x3e>
 800427e:	f884 2028 	strb.w	r2, [r4, #40]	; 0x28
 8004282:	2000      	movs	r0, #0
 8004284:	6826      	ldr	r6, [r4, #0]
 8004286:	9001      	str	r0, [sp, #4]
 8004288:	6833      	ldr	r3, [r6, #0]
 800428a:	9301      	str	r3, [sp, #4]
 800428c:	9a01      	ldr	r2, [sp, #4]
 800428e:	69a1      	ldr	r1, [r4, #24]
 8004290:	e9d4 3501 	ldrd	r3, r5, [r4, #4]
 8004294:	f022 0270 	bic.w	r2, r2, #112	; 0x70
 8004298:	431a      	orrs	r2, r3
 800429a:	9201      	str	r2, [sp, #4]
 800429c:	9b01      	ldr	r3, [sp, #4]
 800429e:	f023 0382 	bic.w	r3, r3, #130	; 0x82
 80042a2:	432b      	orrs	r3, r5
 80042a4:	9301      	str	r3, [sp, #4]
 80042a6:	9a01      	ldr	r2, [sp, #4]
 80042a8:	68e3      	ldr	r3, [r4, #12]
 80042aa:	6925      	ldr	r5, [r4, #16]
 80042ac:	f422 2240 	bic.w	r2, r2, #786432	; 0xc0000
 80042b0:	430a      	orrs	r2, r1
 80042b2:	9201      	str	r2, [sp, #4]
 80042b4:	9a01      	ldr	r2, [sp, #4]
 80042b6:	6961      	ldr	r1, [r4, #20]
 80042b8:	f422 5270 	bic.w	r2, r2, #15360	; 0x3c00
 80042bc:	f403 5370 	and.w	r3, r3, #15360	; 0x3c00
 80042c0:	4313      	orrs	r3, r2
 80042c2:	9301      	str	r3, [sp, #4]
 80042c4:	9a01      	ldr	r2, [sp, #4]
 80042c6:	f422 4200 	bic.w	r2, r2, #32768	; 0x8000
 80042ca:	432a      	orrs	r2, r5
 80042cc:	9201      	str	r2, [sp, #4]
 80042ce:	9b01      	ldr	r3, [sp, #4]
 80042d0:	69e5      	ldr	r5, [r4, #28]
 80042d2:	f423 3340 	bic.w	r3, r3, #196608	; 0x30000
 80042d6:	430b      	orrs	r3, r1
 80042d8:	9301      	str	r3, [sp, #4]
 80042da:	9a01      	ldr	r2, [sp, #4]
 80042dc:	6a21      	ldr	r1, [r4, #32]
 80042de:	f022 020c 	bic.w	r2, r2, #12
 80042e2:	432a      	orrs	r2, r5
 80042e4:	9201      	str	r2, [sp, #4]
 80042e6:	9b01      	ldr	r3, [sp, #4]
 80042e8:	f423 7300 	bic.w	r3, r3, #512	; 0x200
 80042ec:	430b      	orrs	r3, r1
 80042ee:	9301      	str	r3, [sp, #4]
 80042f0:	9b01      	ldr	r3, [sp, #4]
 80042f2:	6033      	str	r3, [r6, #0]
 80042f4:	2301      	movs	r3, #1
 80042f6:	f884 3029 	strb.w	r3, [r4, #41]	; 0x29
 80042fa:	b002      	add	sp, #8
 80042fc:	bd70      	pop	{r4, r5, r6, pc}
 80042fe:	2001      	movs	r0, #1
 8004300:	4770      	bx	lr
 8004302:	bf00      	nop
 8004304:	40021000 	.word	0x40021000

08004308 <HAL_NVIC_SetPriorityGrouping>:
 8004308:	4a07      	ldr	r2, [pc, #28]	; (8004328 <HAL_NVIC_SetPriorityGrouping+0x20>)
 800430a:	68d3      	ldr	r3, [r2, #12]
 800430c:	f64f 01ff 	movw	r1, #63743	; 0xf8ff
 8004310:	400b      	ands	r3, r1
 8004312:	0200      	lsls	r0, r0, #8
 8004314:	f043 63bf 	orr.w	r3, r3, #100139008	; 0x5f80000
 8004318:	f400 60e0 	and.w	r0, r0, #1792	; 0x700
 800431c:	f443 3300 	orr.w	r3, r3, #131072	; 0x20000
 8004320:	4303      	orrs	r3, r0
 8004322:	60d3      	str	r3, [r2, #12]
 8004324:	4770      	bx	lr
 8004326:	bf00      	nop
 8004328:	e000ed00 	.word	0xe000ed00

0800432c <HAL_NVIC_SetPriority>:
 800432c:	4b18      	ldr	r3, [pc, #96]	; (8004390 <HAL_NVIC_SetPriority+0x64>)
 800432e:	68db      	ldr	r3, [r3, #12]
 8004330:	f3c3 2302 	ubfx	r3, r3, #8, #3
 8004334:	b430      	push	{r4, r5}
 8004336:	f1c3 0507 	rsb	r5, r3, #7
 800433a:	2d04      	cmp	r5, #4
 800433c:	f103 0404 	add.w	r4, r3, #4
 8004340:	bf28      	it	cs
 8004342:	2504      	movcs	r5, #4
 8004344:	2c06      	cmp	r4, #6
 8004346:	d919      	bls.n	800437c <HAL_NVIC_SetPriority+0x50>
 8004348:	3b03      	subs	r3, #3
 800434a:	f04f 34ff 	mov.w	r4, #4294967295
 800434e:	409c      	lsls	r4, r3
 8004350:	ea22 0404 	bic.w	r4, r2, r4
 8004354:	f04f 32ff 	mov.w	r2, #4294967295
 8004358:	40aa      	lsls	r2, r5
 800435a:	ea21 0102 	bic.w	r1, r1, r2
 800435e:	fa01 f203 	lsl.w	r2, r1, r3
 8004362:	4322      	orrs	r2, r4
 8004364:	0112      	lsls	r2, r2, #4
 8004366:	2800      	cmp	r0, #0
 8004368:	b2d2      	uxtb	r2, r2
 800436a:	db0a      	blt.n	8004382 <HAL_NVIC_SetPriority+0x56>
 800436c:	f100 4060 	add.w	r0, r0, #3758096384	; 0xe0000000
 8004370:	f500 4061 	add.w	r0, r0, #57600	; 0xe100
 8004374:	f880 2300 	strb.w	r2, [r0, #768]	; 0x300
 8004378:	bc30      	pop	{r4, r5}
 800437a:	4770      	bx	lr
 800437c:	2400      	movs	r4, #0
 800437e:	4623      	mov	r3, r4
 8004380:	e7e8      	b.n	8004354 <HAL_NVIC_SetPriority+0x28>
 8004382:	4b04      	ldr	r3, [pc, #16]	; (8004394 <HAL_NVIC_SetPriority+0x68>)
 8004384:	f000 000f 	and.w	r0, r0, #15
 8004388:	4403      	add	r3, r0
 800438a:	761a      	strb	r2, [r3, #24]
 800438c:	bc30      	pop	{r4, r5}
 800438e:	4770      	bx	lr
 8004390:	e000ed00 	.word	0xe000ed00
 8004394:	e000ecfc 	.word	0xe000ecfc

08004398 <HAL_NVIC_EnableIRQ>:
 8004398:	2800      	cmp	r0, #0
 800439a:	db07      	blt.n	80043ac <HAL_NVIC_EnableIRQ+0x14>
 800439c:	f000 011f 	and.w	r1, r0, #31
 80043a0:	2301      	movs	r3, #1
 80043a2:	0940      	lsrs	r0, r0, #5
 80043a4:	4a02      	ldr	r2, [pc, #8]	; (80043b0 <HAL_NVIC_EnableIRQ+0x18>)
 80043a6:	408b      	lsls	r3, r1
 80043a8:	f842 3020 	str.w	r3, [r2, r0, lsl #2]
 80043ac:	4770      	bx	lr
 80043ae:	bf00      	nop
 80043b0:	e000e100 	.word	0xe000e100

080043b4 <HAL_SYSTICK_Config>:
 80043b4:	3801      	subs	r0, #1
 80043b6:	f1b0 7f80 	cmp.w	r0, #16777216	; 0x1000000
 80043ba:	d20e      	bcs.n	80043da <HAL_SYSTICK_Config+0x26>
 80043bc:	4b08      	ldr	r3, [pc, #32]	; (80043e0 <HAL_SYSTICK_Config+0x2c>)
 80043be:	b410      	push	{r4}
 80043c0:	4c08      	ldr	r4, [pc, #32]	; (80043e4 <HAL_SYSTICK_Config+0x30>)
 80043c2:	6058      	str	r0, [r3, #4]
 80043c4:	20f0      	movs	r0, #240	; 0xf0
 80043c6:	f884 0023 	strb.w	r0, [r4, #35]	; 0x23
 80043ca:	2200      	movs	r2, #0
 80043cc:	2107      	movs	r1, #7
 80043ce:	4610      	mov	r0, r2
 80043d0:	609a      	str	r2, [r3, #8]
 80043d2:	6019      	str	r1, [r3, #0]
 80043d4:	f85d 4b04 	ldr.w	r4, [sp], #4
 80043d8:	4770      	bx	lr
 80043da:	2001      	movs	r0, #1
 80043dc:	4770      	bx	lr
 80043de:	bf00      	nop
 80043e0:	e000e010 	.word	0xe000e010
 80043e4:	e000ed00 	.word	0xe000ed00

080043e8 <HAL_SYSTICK_Callback>:
 80043e8:	4770      	bx	lr
 80043ea:	bf00      	nop

080043ec <HAL_SYSTICK_IRQHandler>:
 80043ec:	b508      	push	{r3, lr}
 80043ee:	f7ff fffb 	bl	80043e8 <HAL_SYSTICK_Callback>
 80043f2:	bd08      	pop	{r3, pc}

080043f4 <HAL_DAC_Init>:
 80043f4:	b188      	cbz	r0, 800441a <HAL_DAC_Init+0x26>
 80043f6:	7903      	ldrb	r3, [r0, #4]
 80043f8:	b510      	push	{r4, lr}
 80043fa:	f003 02ff 	and.w	r2, r3, #255	; 0xff
 80043fe:	4604      	mov	r4, r0
 8004400:	b13b      	cbz	r3, 8004412 <HAL_DAC_Init+0x1e>
 8004402:	2300      	movs	r3, #0
 8004404:	2102      	movs	r1, #2
 8004406:	2201      	movs	r2, #1
 8004408:	7121      	strb	r1, [r4, #4]
 800440a:	4618      	mov	r0, r3
 800440c:	6123      	str	r3, [r4, #16]
 800440e:	7122      	strb	r2, [r4, #4]
 8004410:	bd10      	pop	{r4, pc}
 8004412:	7142      	strb	r2, [r0, #5]
 8004414:	f7fe f974 	bl	8002700 <HAL_DAC_MspInit>
 8004418:	e7f3      	b.n	8004402 <HAL_DAC_Init+0xe>
 800441a:	2001      	movs	r0, #1
 800441c:	4770      	bx	lr
 800441e:	bf00      	nop

08004420 <HAL_DAC_ConfigChannel>:
 8004420:	7943      	ldrb	r3, [r0, #5]
 8004422:	2b01      	cmp	r3, #1
 8004424:	d01d      	beq.n	8004462 <HAL_DAC_ConfigChannel+0x42>
 8004426:	2302      	movs	r3, #2
 8004428:	b470      	push	{r4, r5, r6}
 800442a:	7103      	strb	r3, [r0, #4]
 800442c:	6804      	ldr	r4, [r0, #0]
 800442e:	e9d1 3600 	ldrd	r3, r6, [r1]
 8004432:	f640 75fe 	movw	r5, #4094	; 0xffe
 8004436:	6821      	ldr	r1, [r4, #0]
 8004438:	4095      	lsls	r5, r2
 800443a:	4333      	orrs	r3, r6
 800443c:	ea21 0105 	bic.w	r1, r1, r5
 8004440:	4093      	lsls	r3, r2
 8004442:	430b      	orrs	r3, r1
 8004444:	6023      	str	r3, [r4, #0]
 8004446:	6823      	ldr	r3, [r4, #0]
 8004448:	21c0      	movs	r1, #192	; 0xc0
 800444a:	fa01 f202 	lsl.w	r2, r1, r2
 800444e:	ea23 0202 	bic.w	r2, r3, r2
 8004452:	2101      	movs	r1, #1
 8004454:	2300      	movs	r3, #0
 8004456:	6022      	str	r2, [r4, #0]
 8004458:	7101      	strb	r1, [r0, #4]
 800445a:	7143      	strb	r3, [r0, #5]
 800445c:	bc70      	pop	{r4, r5, r6}
 800445e:	4618      	mov	r0, r3
 8004460:	4770      	bx	lr
 8004462:	2202      	movs	r2, #2
 8004464:	4610      	mov	r0, r2
 8004466:	4770      	bx	lr

08004468 <HAL_GPIO_Init>:
 8004468:	f8d1 c000 	ldr.w	ip, [r1]
 800446c:	f1bc 0f00 	cmp.w	ip, #0
 8004470:	f000 80c3 	beq.w	80045fa <HAL_GPIO_Init+0x192>
 8004474:	e92d 4ff0 	stmdb	sp!, {r4, r5, r6, r7, r8, r9, sl, fp, lr}
 8004478:	f8df e1a0 	ldr.w	lr, [pc, #416]	; 800461c <HAL_GPIO_Init+0x1b4>
 800447c:	b083      	sub	sp, #12
 800447e:	4688      	mov	r8, r1
 8004480:	2500      	movs	r5, #0
 8004482:	f04f 0901 	mov.w	r9, #1
 8004486:	fa09 f205 	lsl.w	r2, r9, r5
 800448a:	ea12 060c 	ands.w	r6, r2, ip
 800448e:	d070      	beq.n	8004572 <HAL_GPIO_Init+0x10a>
 8004490:	f8d8 1004 	ldr.w	r1, [r8, #4]
 8004494:	f021 0a10 	bic.w	sl, r1, #16
 8004498:	f1ba 0f02 	cmp.w	sl, #2
 800449c:	d070      	beq.n	8004580 <HAL_GPIO_Init+0x118>
 800449e:	006f      	lsls	r7, r5, #1
 80044a0:	2303      	movs	r3, #3
 80044a2:	f8d0 b000 	ldr.w	fp, [r0]
 80044a6:	40bb      	lsls	r3, r7
 80044a8:	43db      	mvns	r3, r3
 80044aa:	f001 0403 	and.w	r4, r1, #3
 80044ae:	ea03 0b0b 	and.w	fp, r3, fp
 80044b2:	40bc      	lsls	r4, r7
 80044b4:	f10a 3aff 	add.w	sl, sl, #4294967295
 80044b8:	ea44 040b 	orr.w	r4, r4, fp
 80044bc:	f1ba 0f01 	cmp.w	sl, #1
 80044c0:	6004      	str	r4, [r0, #0]
 80044c2:	d97e      	bls.n	80045c2 <HAL_GPIO_Init+0x15a>
 80044c4:	68c4      	ldr	r4, [r0, #12]
 80044c6:	f8d8 2008 	ldr.w	r2, [r8, #8]
 80044ca:	4023      	ands	r3, r4
 80044cc:	40ba      	lsls	r2, r7
 80044ce:	431a      	orrs	r2, r3
 80044d0:	00cf      	lsls	r7, r1, #3
 80044d2:	60c2      	str	r2, [r0, #12]
 80044d4:	d54d      	bpl.n	8004572 <HAL_GPIO_Init+0x10a>
 80044d6:	4a4c      	ldr	r2, [pc, #304]	; (8004608 <HAL_GPIO_Init+0x1a0>)
 80044d8:	6993      	ldr	r3, [r2, #24]
 80044da:	f043 0301 	orr.w	r3, r3, #1
 80044de:	6193      	str	r3, [r2, #24]
 80044e0:	6993      	ldr	r3, [r2, #24]
 80044e2:	f025 0203 	bic.w	r2, r5, #3
 80044e6:	f102 4280 	add.w	r2, r2, #1073741824	; 0x40000000
 80044ea:	f003 0301 	and.w	r3, r3, #1
 80044ee:	f502 3280 	add.w	r2, r2, #65536	; 0x10000
 80044f2:	9301      	str	r3, [sp, #4]
 80044f4:	f005 0303 	and.w	r3, r5, #3
 80044f8:	9c01      	ldr	r4, [sp, #4]
 80044fa:	6894      	ldr	r4, [r2, #8]
 80044fc:	009b      	lsls	r3, r3, #2
 80044fe:	270f      	movs	r7, #15
 8004500:	409f      	lsls	r7, r3
 8004502:	f1b0 4f90 	cmp.w	r0, #1207959552	; 0x48000000
 8004506:	ea24 0407 	bic.w	r4, r4, r7
 800450a:	d010      	beq.n	800452e <HAL_GPIO_Init+0xc6>
 800450c:	4f3f      	ldr	r7, [pc, #252]	; (800460c <HAL_GPIO_Init+0x1a4>)
 800450e:	42b8      	cmp	r0, r7
 8004510:	d06f      	beq.n	80045f2 <HAL_GPIO_Init+0x18a>
 8004512:	4f3f      	ldr	r7, [pc, #252]	; (8004610 <HAL_GPIO_Init+0x1a8>)
 8004514:	42b8      	cmp	r0, r7
 8004516:	d067      	beq.n	80045e8 <HAL_GPIO_Init+0x180>
 8004518:	4f3e      	ldr	r7, [pc, #248]	; (8004614 <HAL_GPIO_Init+0x1ac>)
 800451a:	42b8      	cmp	r0, r7
 800451c:	d06e      	beq.n	80045fc <HAL_GPIO_Init+0x194>
 800451e:	4f3e      	ldr	r7, [pc, #248]	; (8004618 <HAL_GPIO_Init+0x1b0>)
 8004520:	42b8      	cmp	r0, r7
 8004522:	bf0c      	ite	eq
 8004524:	2704      	moveq	r7, #4
 8004526:	2705      	movne	r7, #5
 8004528:	fa07 f303 	lsl.w	r3, r7, r3
 800452c:	431c      	orrs	r4, r3
 800452e:	6094      	str	r4, [r2, #8]
 8004530:	f8de 3000 	ldr.w	r3, [lr]
 8004534:	43f2      	mvns	r2, r6
 8004536:	03cc      	lsls	r4, r1, #15
 8004538:	bf54      	ite	pl
 800453a:	4013      	andpl	r3, r2
 800453c:	4333      	orrmi	r3, r6
 800453e:	f8ce 3000 	str.w	r3, [lr]
 8004542:	f8de 3004 	ldr.w	r3, [lr, #4]
 8004546:	038f      	lsls	r7, r1, #14
 8004548:	bf54      	ite	pl
 800454a:	4013      	andpl	r3, r2
 800454c:	4333      	orrmi	r3, r6
 800454e:	f8ce 3004 	str.w	r3, [lr, #4]
 8004552:	f8de 3008 	ldr.w	r3, [lr, #8]
 8004556:	02cc      	lsls	r4, r1, #11
 8004558:	bf54      	ite	pl
 800455a:	4013      	andpl	r3, r2
 800455c:	4333      	orrmi	r3, r6
 800455e:	f8ce 3008 	str.w	r3, [lr, #8]
 8004562:	f8de 300c 	ldr.w	r3, [lr, #12]
 8004566:	0289      	lsls	r1, r1, #10
 8004568:	bf54      	ite	pl
 800456a:	4013      	andpl	r3, r2
 800456c:	4333      	orrmi	r3, r6
 800456e:	f8ce 300c 	str.w	r3, [lr, #12]
 8004572:	3501      	adds	r5, #1
 8004574:	fa3c f305 	lsrs.w	r3, ip, r5
 8004578:	d185      	bne.n	8004486 <HAL_GPIO_Init+0x1e>
 800457a:	b003      	add	sp, #12
 800457c:	e8bd 8ff0 	ldmia.w	sp!, {r4, r5, r6, r7, r8, r9, sl, fp, pc}
 8004580:	08ef      	lsrs	r7, r5, #3
 8004582:	eb00 0787 	add.w	r7, r0, r7, lsl #2
 8004586:	f005 0407 	and.w	r4, r5, #7
 800458a:	6a3b      	ldr	r3, [r7, #32]
 800458c:	00a4      	lsls	r4, r4, #2
 800458e:	f04f 0a0f 	mov.w	sl, #15
 8004592:	fa0a fb04 	lsl.w	fp, sl, r4
 8004596:	ea23 0a0b 	bic.w	sl, r3, fp
 800459a:	f8d8 3010 	ldr.w	r3, [r8, #16]
 800459e:	40a3      	lsls	r3, r4
 80045a0:	ea43 030a 	orr.w	r3, r3, sl
 80045a4:	623b      	str	r3, [r7, #32]
 80045a6:	006f      	lsls	r7, r5, #1
 80045a8:	2303      	movs	r3, #3
 80045aa:	f8d0 a000 	ldr.w	sl, [r0]
 80045ae:	40bb      	lsls	r3, r7
 80045b0:	43db      	mvns	r3, r3
 80045b2:	f001 0403 	and.w	r4, r1, #3
 80045b6:	ea03 0a0a 	and.w	sl, r3, sl
 80045ba:	40bc      	lsls	r4, r7
 80045bc:	ea44 040a 	orr.w	r4, r4, sl
 80045c0:	6004      	str	r4, [r0, #0]
 80045c2:	6884      	ldr	r4, [r0, #8]
 80045c4:	ea04 0a03 	and.w	sl, r4, r3
 80045c8:	f8d8 400c 	ldr.w	r4, [r8, #12]
 80045cc:	40bc      	lsls	r4, r7
 80045ce:	ea44 040a 	orr.w	r4, r4, sl
 80045d2:	6084      	str	r4, [r0, #8]
 80045d4:	f8d0 a004 	ldr.w	sl, [r0, #4]
 80045d8:	f3c1 1400 	ubfx	r4, r1, #4, #1
 80045dc:	ea2a 0202 	bic.w	r2, sl, r2
 80045e0:	40ac      	lsls	r4, r5
 80045e2:	4314      	orrs	r4, r2
 80045e4:	6044      	str	r4, [r0, #4]
 80045e6:	e76d      	b.n	80044c4 <HAL_GPIO_Init+0x5c>
 80045e8:	2702      	movs	r7, #2
 80045ea:	fa07 f303 	lsl.w	r3, r7, r3
 80045ee:	431c      	orrs	r4, r3
 80045f0:	e79d      	b.n	800452e <HAL_GPIO_Init+0xc6>
 80045f2:	fa09 f303 	lsl.w	r3, r9, r3
 80045f6:	431c      	orrs	r4, r3
 80045f8:	e799      	b.n	800452e <HAL_GPIO_Init+0xc6>
 80045fa:	4770      	bx	lr
 80045fc:	2703      	movs	r7, #3
 80045fe:	fa07 f303 	lsl.w	r3, r7, r3
 8004602:	431c      	orrs	r4, r3
 8004604:	e793      	b.n	800452e <HAL_GPIO_Init+0xc6>
 8004606:	bf00      	nop
 8004608:	40021000 	.word	0x40021000
 800460c:	48000400 	.word	0x48000400
 8004610:	48000800 	.word	0x48000800
 8004614:	48000c00 	.word	0x48000c00
 8004618:	48001000 	.word	0x48001000
 800461c:	40010400 	.word	0x40010400

08004620 <HAL_GPIO_ReadPin>:
 8004620:	6903      	ldr	r3, [r0, #16]
 8004622:	4219      	tst	r1, r3
 8004624:	bf14      	ite	ne
 8004626:	2001      	movne	r0, #1
 8004628:	2000      	moveq	r0, #0
 800462a:	4770      	bx	lr

0800462c <HAL_GPIO_WritePin>:
 800462c:	b90a      	cbnz	r2, 8004632 <HAL_GPIO_WritePin+0x6>
 800462e:	6281      	str	r1, [r0, #40]	; 0x28
 8004630:	4770      	bx	lr
 8004632:	6181      	str	r1, [r0, #24]
 8004634:	4770      	bx	lr
 8004636:	bf00      	nop

08004638 <HAL_RCC_OscConfig>:
 8004638:	2800      	cmp	r0, #0
 800463a:	f000 81dc 	beq.w	80049f6 <HAL_RCC_OscConfig+0x3be>
 800463e:	e92d 43f0 	stmdb	sp!, {r4, r5, r6, r7, r8, r9, lr}
 8004642:	6803      	ldr	r3, [r0, #0]
 8004644:	07d9      	lsls	r1, r3, #31
 8004646:	b083      	sub	sp, #12
 8004648:	4604      	mov	r4, r0
 800464a:	d548      	bpl.n	80046de <HAL_RCC_OscConfig+0xa6>
 800464c:	49c1      	ldr	r1, [pc, #772]	; (8004954 <HAL_RCC_OscConfig+0x31c>)
 800464e:	684a      	ldr	r2, [r1, #4]
 8004650:	f002 020c 	and.w	r2, r2, #12
 8004654:	2a04      	cmp	r2, #4
 8004656:	f000 8165 	beq.w	8004924 <HAL_RCC_OscConfig+0x2ec>
 800465a:	684a      	ldr	r2, [r1, #4]
 800465c:	f002 020c 	and.w	r2, r2, #12
 8004660:	2a08      	cmp	r2, #8
 8004662:	f000 815b 	beq.w	800491c <HAL_RCC_OscConfig+0x2e4>
 8004666:	6863      	ldr	r3, [r4, #4]
 8004668:	f5b3 3f80 	cmp.w	r3, #65536	; 0x10000
 800466c:	d010      	beq.n	8004690 <HAL_RCC_OscConfig+0x58>
 800466e:	2b00      	cmp	r3, #0
 8004670:	f000 8198 	beq.w	80049a4 <HAL_RCC_OscConfig+0x36c>
 8004674:	f5b3 2fa0 	cmp.w	r3, #327680	; 0x50000
 8004678:	f000 8241 	beq.w	8004afe <HAL_RCC_OscConfig+0x4c6>
 800467c:	4bb5      	ldr	r3, [pc, #724]	; (8004954 <HAL_RCC_OscConfig+0x31c>)
 800467e:	681a      	ldr	r2, [r3, #0]
 8004680:	f422 3280 	bic.w	r2, r2, #65536	; 0x10000
 8004684:	601a      	str	r2, [r3, #0]
 8004686:	681a      	ldr	r2, [r3, #0]
 8004688:	f422 2280 	bic.w	r2, r2, #262144	; 0x40000
 800468c:	601a      	str	r2, [r3, #0]
 800468e:	e004      	b.n	800469a <HAL_RCC_OscConfig+0x62>
 8004690:	4ab0      	ldr	r2, [pc, #704]	; (8004954 <HAL_RCC_OscConfig+0x31c>)
 8004692:	6813      	ldr	r3, [r2, #0]
 8004694:	f443 3380 	orr.w	r3, r3, #65536	; 0x10000
 8004698:	6013      	str	r3, [r2, #0]
 800469a:	4dae      	ldr	r5, [pc, #696]	; (8004954 <HAL_RCC_OscConfig+0x31c>)
 800469c:	68a2      	ldr	r2, [r4, #8]
 800469e:	6aeb      	ldr	r3, [r5, #44]	; 0x2c
 80046a0:	f023 030f 	bic.w	r3, r3, #15
 80046a4:	4313      	orrs	r3, r2
 80046a6:	62eb      	str	r3, [r5, #44]	; 0x2c
 80046a8:	f7fe ff52 	bl	8003550 <HAL_GetTick>
 80046ac:	f44f 3800 	mov.w	r8, #131072	; 0x20000
 80046b0:	4607      	mov	r7, r0
 80046b2:	2601      	movs	r6, #1
 80046b4:	e005      	b.n	80046c2 <HAL_RCC_OscConfig+0x8a>
 80046b6:	f7fe ff4b 	bl	8003550 <HAL_GetTick>
 80046ba:	1bc0      	subs	r0, r0, r7
 80046bc:	2864      	cmp	r0, #100	; 0x64
 80046be:	f200 815f 	bhi.w	8004980 <HAL_RCC_OscConfig+0x348>
 80046c2:	fa98 f3a8 	rbit	r3, r8
 80046c6:	682a      	ldr	r2, [r5, #0]
 80046c8:	fa98 f3a8 	rbit	r3, r8
 80046cc:	fab3 f383 	clz	r3, r3
 80046d0:	f003 031f 	and.w	r3, r3, #31
 80046d4:	fa06 f303 	lsl.w	r3, r6, r3
 80046d8:	4213      	tst	r3, r2
 80046da:	d0ec      	beq.n	80046b6 <HAL_RCC_OscConfig+0x7e>
 80046dc:	6823      	ldr	r3, [r4, #0]
 80046de:	079f      	lsls	r7, r3, #30
 80046e0:	d459      	bmi.n	8004796 <HAL_RCC_OscConfig+0x15e>
 80046e2:	071d      	lsls	r5, r3, #28
 80046e4:	d52c      	bpl.n	8004740 <HAL_RCC_OscConfig+0x108>
 80046e6:	69a2      	ldr	r2, [r4, #24]
 80046e8:	2a00      	cmp	r2, #0
 80046ea:	f000 80f0 	beq.w	80048ce <HAL_RCC_OscConfig+0x296>
 80046ee:	2201      	movs	r2, #1
 80046f0:	fa92 f1a2 	rbit	r1, r2
 80046f4:	4b98      	ldr	r3, [pc, #608]	; (8004958 <HAL_RCC_OscConfig+0x320>)
 80046f6:	4e97      	ldr	r6, [pc, #604]	; (8004954 <HAL_RCC_OscConfig+0x31c>)
 80046f8:	fab1 f181 	clz	r1, r1
 80046fc:	440b      	add	r3, r1
 80046fe:	009b      	lsls	r3, r3, #2
 8004700:	4615      	mov	r5, r2
 8004702:	601a      	str	r2, [r3, #0]
 8004704:	f7fe ff24 	bl	8003550 <HAL_GetTick>
 8004708:	f04f 0802 	mov.w	r8, #2
 800470c:	4607      	mov	r7, r0
 800470e:	e005      	b.n	800471c <HAL_RCC_OscConfig+0xe4>
 8004710:	f7fe ff1e 	bl	8003550 <HAL_GetTick>
 8004714:	1bc0      	subs	r0, r0, r7
 8004716:	2802      	cmp	r0, #2
 8004718:	f200 8132 	bhi.w	8004980 <HAL_RCC_OscConfig+0x348>
 800471c:	fa98 f3a8 	rbit	r3, r8
 8004720:	fa98 f3a8 	rbit	r3, r8
 8004724:	fa98 f3a8 	rbit	r3, r8
 8004728:	6a72      	ldr	r2, [r6, #36]	; 0x24
 800472a:	fa98 f3a8 	rbit	r3, r8
 800472e:	fab3 f383 	clz	r3, r3
 8004732:	f003 031f 	and.w	r3, r3, #31
 8004736:	fa05 f303 	lsl.w	r3, r5, r3
 800473a:	4213      	tst	r3, r2
 800473c:	d0e8      	beq.n	8004710 <HAL_RCC_OscConfig+0xd8>
 800473e:	6823      	ldr	r3, [r4, #0]
 8004740:	0758      	lsls	r0, r3, #29
 8004742:	d572      	bpl.n	800482a <HAL_RCC_OscConfig+0x1f2>
 8004744:	4b83      	ldr	r3, [pc, #524]	; (8004954 <HAL_RCC_OscConfig+0x31c>)
 8004746:	69da      	ldr	r2, [r3, #28]
 8004748:	00d1      	lsls	r1, r2, #3
 800474a:	f100 8156 	bmi.w	80049fa <HAL_RCC_OscConfig+0x3c2>
 800474e:	69da      	ldr	r2, [r3, #28]
 8004750:	f042 5280 	orr.w	r2, r2, #268435456	; 0x10000000
 8004754:	61da      	str	r2, [r3, #28]
 8004756:	69db      	ldr	r3, [r3, #28]
 8004758:	f003 5380 	and.w	r3, r3, #268435456	; 0x10000000
 800475c:	9301      	str	r3, [sp, #4]
 800475e:	9b01      	ldr	r3, [sp, #4]
 8004760:	f04f 0801 	mov.w	r8, #1
 8004764:	4d7d      	ldr	r5, [pc, #500]	; (800495c <HAL_RCC_OscConfig+0x324>)
 8004766:	682a      	ldr	r2, [r5, #0]
 8004768:	05d2      	lsls	r2, r2, #23
 800476a:	f140 80f9 	bpl.w	8004960 <HAL_RCC_OscConfig+0x328>
 800476e:	68e3      	ldr	r3, [r4, #12]
 8004770:	2b01      	cmp	r3, #1
 8004772:	f000 8199 	beq.w	8004aa8 <HAL_RCC_OscConfig+0x470>
 8004776:	2b00      	cmp	r3, #0
 8004778:	f000 8142 	beq.w	8004a00 <HAL_RCC_OscConfig+0x3c8>
 800477c:	2b05      	cmp	r3, #5
 800477e:	4b75      	ldr	r3, [pc, #468]	; (8004954 <HAL_RCC_OscConfig+0x31c>)
 8004780:	6a1a      	ldr	r2, [r3, #32]
 8004782:	f000 81c9 	beq.w	8004b18 <HAL_RCC_OscConfig+0x4e0>
 8004786:	f022 0201 	bic.w	r2, r2, #1
 800478a:	621a      	str	r2, [r3, #32]
 800478c:	6a1a      	ldr	r2, [r3, #32]
 800478e:	f022 0204 	bic.w	r2, r2, #4
 8004792:	621a      	str	r2, [r3, #32]
 8004794:	e18d      	b.n	8004ab2 <HAL_RCC_OscConfig+0x47a>
 8004796:	4a6f      	ldr	r2, [pc, #444]	; (8004954 <HAL_RCC_OscConfig+0x31c>)
 8004798:	6851      	ldr	r1, [r2, #4]
 800479a:	f011 0f0c 	tst.w	r1, #12
 800479e:	d07f      	beq.n	80048a0 <HAL_RCC_OscConfig+0x268>
 80047a0:	6851      	ldr	r1, [r2, #4]
 80047a2:	f001 010c 	and.w	r1, r1, #12
 80047a6:	2908      	cmp	r1, #8
 80047a8:	d077      	beq.n	800489a <HAL_RCC_OscConfig+0x262>
 80047aa:	6922      	ldr	r2, [r4, #16]
 80047ac:	2a00      	cmp	r2, #0
 80047ae:	f000 8154 	beq.w	8004a5a <HAL_RCC_OscConfig+0x422>
 80047b2:	2201      	movs	r2, #1
 80047b4:	fa92 f3a2 	rbit	r3, r2
 80047b8:	fab3 f383 	clz	r3, r3
 80047bc:	f103 5384 	add.w	r3, r3, #276824064	; 0x10800000
 80047c0:	f503 1384 	add.w	r3, r3, #1081344	; 0x108000
 80047c4:	009b      	lsls	r3, r3, #2
 80047c6:	4616      	mov	r6, r2
 80047c8:	601a      	str	r2, [r3, #0]
 80047ca:	f7fe fec1 	bl	8003550 <HAL_GetTick>
 80047ce:	f04f 0802 	mov.w	r8, #2
 80047d2:	4607      	mov	r7, r0
 80047d4:	4d5f      	ldr	r5, [pc, #380]	; (8004954 <HAL_RCC_OscConfig+0x31c>)
 80047d6:	e005      	b.n	80047e4 <HAL_RCC_OscConfig+0x1ac>
 80047d8:	f7fe feba 	bl	8003550 <HAL_GetTick>
 80047dc:	1bc0      	subs	r0, r0, r7
 80047de:	2802      	cmp	r0, #2
 80047e0:	f200 80ce 	bhi.w	8004980 <HAL_RCC_OscConfig+0x348>
 80047e4:	fa98 f3a8 	rbit	r3, r8
 80047e8:	682a      	ldr	r2, [r5, #0]
 80047ea:	fa98 f3a8 	rbit	r3, r8
 80047ee:	fab3 f383 	clz	r3, r3
 80047f2:	f003 031f 	and.w	r3, r3, #31
 80047f6:	fa06 f303 	lsl.w	r3, r6, r3
 80047fa:	4213      	tst	r3, r2
 80047fc:	d0ec      	beq.n	80047d8 <HAL_RCC_OscConfig+0x1a0>
 80047fe:	6829      	ldr	r1, [r5, #0]
 8004800:	22f8      	movs	r2, #248	; 0xf8
 8004802:	fa92 f2a2 	rbit	r2, r2
 8004806:	6963      	ldr	r3, [r4, #20]
 8004808:	fab2 f282 	clz	r2, r2
 800480c:	f021 01f8 	bic.w	r1, r1, #248	; 0xf8
 8004810:	4093      	lsls	r3, r2
 8004812:	430b      	orrs	r3, r1
 8004814:	602b      	str	r3, [r5, #0]
 8004816:	6823      	ldr	r3, [r4, #0]
 8004818:	e763      	b.n	80046e2 <HAL_RCC_OscConfig+0xaa>
 800481a:	f1b8 0f00 	cmp.w	r8, #0
 800481e:	d004      	beq.n	800482a <HAL_RCC_OscConfig+0x1f2>
 8004820:	4a4c      	ldr	r2, [pc, #304]	; (8004954 <HAL_RCC_OscConfig+0x31c>)
 8004822:	69d3      	ldr	r3, [r2, #28]
 8004824:	f023 5380 	bic.w	r3, r3, #268435456	; 0x10000000
 8004828:	61d3      	str	r3, [r2, #28]
 800482a:	69e0      	ldr	r0, [r4, #28]
 800482c:	b388      	cbz	r0, 8004892 <HAL_RCC_OscConfig+0x25a>
 800482e:	4d49      	ldr	r5, [pc, #292]	; (8004954 <HAL_RCC_OscConfig+0x31c>)
 8004830:	686b      	ldr	r3, [r5, #4]
 8004832:	f003 030c 	and.w	r3, r3, #12
 8004836:	2b08      	cmp	r3, #8
 8004838:	f000 8176 	beq.w	8004b28 <HAL_RCC_OscConfig+0x4f0>
 800483c:	2802      	cmp	r0, #2
 800483e:	f04f 7380 	mov.w	r3, #16777216	; 0x1000000
 8004842:	f000 8182 	beq.w	8004b4a <HAL_RCC_OscConfig+0x512>
 8004846:	fa93 f3a3 	rbit	r3, r3
 800484a:	fab3 f383 	clz	r3, r3
 800484e:	f103 5384 	add.w	r3, r3, #276824064	; 0x10800000
 8004852:	f503 1384 	add.w	r3, r3, #1081344	; 0x108000
 8004856:	009b      	lsls	r3, r3, #2
 8004858:	2200      	movs	r2, #0
 800485a:	601a      	str	r2, [r3, #0]
 800485c:	f7fe fe78 	bl	8003550 <HAL_GetTick>
 8004860:	462c      	mov	r4, r5
 8004862:	4607      	mov	r7, r0
 8004864:	f04f 7500 	mov.w	r5, #33554432	; 0x2000000
 8004868:	2601      	movs	r6, #1
 800486a:	e005      	b.n	8004878 <HAL_RCC_OscConfig+0x240>
 800486c:	f7fe fe70 	bl	8003550 <HAL_GetTick>
 8004870:	1bc0      	subs	r0, r0, r7
 8004872:	2802      	cmp	r0, #2
 8004874:	f200 8084 	bhi.w	8004980 <HAL_RCC_OscConfig+0x348>
 8004878:	fa95 f3a5 	rbit	r3, r5
 800487c:	6822      	ldr	r2, [r4, #0]
 800487e:	fa95 f3a5 	rbit	r3, r5
 8004882:	fab3 f383 	clz	r3, r3
 8004886:	f003 031f 	and.w	r3, r3, #31
 800488a:	fa06 f303 	lsl.w	r3, r6, r3
 800488e:	4213      	tst	r3, r2
 8004890:	d1ec      	bne.n	800486c <HAL_RCC_OscConfig+0x234>
 8004892:	2000      	movs	r0, #0
 8004894:	b003      	add	sp, #12
 8004896:	e8bd 83f0 	ldmia.w	sp!, {r4, r5, r6, r7, r8, r9, pc}
 800489a:	6852      	ldr	r2, [r2, #4]
 800489c:	03d6      	lsls	r6, r2, #15
 800489e:	d484      	bmi.n	80047aa <HAL_RCC_OscConfig+0x172>
 80048a0:	2202      	movs	r2, #2
 80048a2:	fa92 f1a2 	rbit	r1, r2
 80048a6:	492b      	ldr	r1, [pc, #172]	; (8004954 <HAL_RCC_OscConfig+0x31c>)
 80048a8:	6808      	ldr	r0, [r1, #0]
 80048aa:	fa92 f2a2 	rbit	r2, r2
 80048ae:	fab2 f282 	clz	r2, r2
 80048b2:	f002 021f 	and.w	r2, r2, #31
 80048b6:	2101      	movs	r1, #1
 80048b8:	fa01 f202 	lsl.w	r2, r1, r2
 80048bc:	4202      	tst	r2, r0
 80048be:	d063      	beq.n	8004988 <HAL_RCC_OscConfig+0x350>
 80048c0:	6922      	ldr	r2, [r4, #16]
 80048c2:	428a      	cmp	r2, r1
 80048c4:	d060      	beq.n	8004988 <HAL_RCC_OscConfig+0x350>
 80048c6:	2001      	movs	r0, #1
 80048c8:	b003      	add	sp, #12
 80048ca:	e8bd 83f0 	ldmia.w	sp!, {r4, r5, r6, r7, r8, r9, pc}
 80048ce:	2501      	movs	r5, #1
 80048d0:	fa95 f1a5 	rbit	r1, r5
 80048d4:	4b20      	ldr	r3, [pc, #128]	; (8004958 <HAL_RCC_OscConfig+0x320>)
 80048d6:	4e1f      	ldr	r6, [pc, #124]	; (8004954 <HAL_RCC_OscConfig+0x31c>)
 80048d8:	fab1 f181 	clz	r1, r1
 80048dc:	440b      	add	r3, r1
 80048de:	009b      	lsls	r3, r3, #2
 80048e0:	f04f 0802 	mov.w	r8, #2
 80048e4:	601a      	str	r2, [r3, #0]
 80048e6:	f7fe fe33 	bl	8003550 <HAL_GetTick>
 80048ea:	4607      	mov	r7, r0
 80048ec:	e004      	b.n	80048f8 <HAL_RCC_OscConfig+0x2c0>
 80048ee:	f7fe fe2f 	bl	8003550 <HAL_GetTick>
 80048f2:	1bc0      	subs	r0, r0, r7
 80048f4:	2802      	cmp	r0, #2
 80048f6:	d843      	bhi.n	8004980 <HAL_RCC_OscConfig+0x348>
 80048f8:	fa98 f3a8 	rbit	r3, r8
 80048fc:	fa98 f3a8 	rbit	r3, r8
 8004900:	fa98 f3a8 	rbit	r3, r8
 8004904:	6a72      	ldr	r2, [r6, #36]	; 0x24
 8004906:	fa98 f3a8 	rbit	r3, r8
 800490a:	fab3 f383 	clz	r3, r3
 800490e:	f003 031f 	and.w	r3, r3, #31
 8004912:	fa05 f303 	lsl.w	r3, r5, r3
 8004916:	4213      	tst	r3, r2
 8004918:	d1e9      	bne.n	80048ee <HAL_RCC_OscConfig+0x2b6>
 800491a:	e710      	b.n	800473e <HAL_RCC_OscConfig+0x106>
 800491c:	684a      	ldr	r2, [r1, #4]
 800491e:	03d2      	lsls	r2, r2, #15
 8004920:	f57f aea1 	bpl.w	8004666 <HAL_RCC_OscConfig+0x2e>
 8004924:	f44f 3200 	mov.w	r2, #131072	; 0x20000
 8004928:	fa92 f1a2 	rbit	r1, r2
 800492c:	4909      	ldr	r1, [pc, #36]	; (8004954 <HAL_RCC_OscConfig+0x31c>)
 800492e:	6808      	ldr	r0, [r1, #0]
 8004930:	fa92 f2a2 	rbit	r2, r2
 8004934:	fab2 f282 	clz	r2, r2
 8004938:	f002 021f 	and.w	r2, r2, #31
 800493c:	2101      	movs	r1, #1
 800493e:	fa01 f202 	lsl.w	r2, r1, r2
 8004942:	4202      	tst	r2, r0
 8004944:	f43f aecb 	beq.w	80046de <HAL_RCC_OscConfig+0xa6>
 8004948:	6862      	ldr	r2, [r4, #4]
 800494a:	2a00      	cmp	r2, #0
 800494c:	f47f aec7 	bne.w	80046de <HAL_RCC_OscConfig+0xa6>
 8004950:	e7b9      	b.n	80048c6 <HAL_RCC_OscConfig+0x28e>
 8004952:	bf00      	nop
 8004954:	40021000 	.word	0x40021000
 8004958:	10908120 	.word	0x10908120
 800495c:	40007000 	.word	0x40007000
 8004960:	682a      	ldr	r2, [r5, #0]
 8004962:	f442 7280 	orr.w	r2, r2, #256	; 0x100
 8004966:	602a      	str	r2, [r5, #0]
 8004968:	f7fe fdf2 	bl	8003550 <HAL_GetTick>
 800496c:	4606      	mov	r6, r0
 800496e:	682b      	ldr	r3, [r5, #0]
 8004970:	05db      	lsls	r3, r3, #23
 8004972:	f53f aefc 	bmi.w	800476e <HAL_RCC_OscConfig+0x136>
 8004976:	f7fe fdeb 	bl	8003550 <HAL_GetTick>
 800497a:	1b80      	subs	r0, r0, r6
 800497c:	2864      	cmp	r0, #100	; 0x64
 800497e:	d9f6      	bls.n	800496e <HAL_RCC_OscConfig+0x336>
 8004980:	2003      	movs	r0, #3
 8004982:	b003      	add	sp, #12
 8004984:	e8bd 83f0 	ldmia.w	sp!, {r4, r5, r6, r7, r8, r9, pc}
 8004988:	4d9a      	ldr	r5, [pc, #616]	; (8004bf4 <HAL_RCC_OscConfig+0x5bc>)
 800498a:	21f8      	movs	r1, #248	; 0xf8
 800498c:	6828      	ldr	r0, [r5, #0]
 800498e:	fa91 f1a1 	rbit	r1, r1
 8004992:	6962      	ldr	r2, [r4, #20]
 8004994:	fab1 f181 	clz	r1, r1
 8004998:	f020 00f8 	bic.w	r0, r0, #248	; 0xf8
 800499c:	408a      	lsls	r2, r1
 800499e:	4302      	orrs	r2, r0
 80049a0:	602a      	str	r2, [r5, #0]
 80049a2:	e69e      	b.n	80046e2 <HAL_RCC_OscConfig+0xaa>
 80049a4:	4d93      	ldr	r5, [pc, #588]	; (8004bf4 <HAL_RCC_OscConfig+0x5bc>)
 80049a6:	682b      	ldr	r3, [r5, #0]
 80049a8:	f423 3380 	bic.w	r3, r3, #65536	; 0x10000
 80049ac:	602b      	str	r3, [r5, #0]
 80049ae:	682b      	ldr	r3, [r5, #0]
 80049b0:	f423 2380 	bic.w	r3, r3, #262144	; 0x40000
 80049b4:	602b      	str	r3, [r5, #0]
 80049b6:	6aeb      	ldr	r3, [r5, #44]	; 0x2c
 80049b8:	68a2      	ldr	r2, [r4, #8]
 80049ba:	f023 030f 	bic.w	r3, r3, #15
 80049be:	4313      	orrs	r3, r2
 80049c0:	62eb      	str	r3, [r5, #44]	; 0x2c
 80049c2:	f7fe fdc5 	bl	8003550 <HAL_GetTick>
 80049c6:	f44f 3800 	mov.w	r8, #131072	; 0x20000
 80049ca:	4607      	mov	r7, r0
 80049cc:	2601      	movs	r6, #1
 80049ce:	e004      	b.n	80049da <HAL_RCC_OscConfig+0x3a2>
 80049d0:	f7fe fdbe 	bl	8003550 <HAL_GetTick>
 80049d4:	1bc0      	subs	r0, r0, r7
 80049d6:	2864      	cmp	r0, #100	; 0x64
 80049d8:	d8d2      	bhi.n	8004980 <HAL_RCC_OscConfig+0x348>
 80049da:	fa98 f3a8 	rbit	r3, r8
 80049de:	682a      	ldr	r2, [r5, #0]
 80049e0:	fa98 f3a8 	rbit	r3, r8
 80049e4:	fab3 f383 	clz	r3, r3
 80049e8:	f003 031f 	and.w	r3, r3, #31
 80049ec:	fa06 f303 	lsl.w	r3, r6, r3
 80049f0:	4213      	tst	r3, r2
 80049f2:	d1ed      	bne.n	80049d0 <HAL_RCC_OscConfig+0x398>
 80049f4:	e672      	b.n	80046dc <HAL_RCC_OscConfig+0xa4>
 80049f6:	2001      	movs	r0, #1
 80049f8:	4770      	bx	lr
 80049fa:	f04f 0800 	mov.w	r8, #0
 80049fe:	e6b1      	b.n	8004764 <HAL_RCC_OscConfig+0x12c>
 8004a00:	4d7c      	ldr	r5, [pc, #496]	; (8004bf4 <HAL_RCC_OscConfig+0x5bc>)
 8004a02:	6a2b      	ldr	r3, [r5, #32]
 8004a04:	f023 0301 	bic.w	r3, r3, #1
 8004a08:	622b      	str	r3, [r5, #32]
 8004a0a:	6a2b      	ldr	r3, [r5, #32]
 8004a0c:	f023 0304 	bic.w	r3, r3, #4
 8004a10:	622b      	str	r3, [r5, #32]
 8004a12:	f7fe fd9d 	bl	8003550 <HAL_GetTick>
 8004a16:	f04f 0902 	mov.w	r9, #2
 8004a1a:	4607      	mov	r7, r0
 8004a1c:	2601      	movs	r6, #1
 8004a1e:	e014      	b.n	8004a4a <HAL_RCC_OscConfig+0x412>
 8004a20:	fa99 f3a9 	rbit	r3, r9
 8004a24:	6a6a      	ldr	r2, [r5, #36]	; 0x24
 8004a26:	fa99 f3a9 	rbit	r3, r9
 8004a2a:	fab3 f383 	clz	r3, r3
 8004a2e:	f003 031f 	and.w	r3, r3, #31
 8004a32:	fa06 f303 	lsl.w	r3, r6, r3
 8004a36:	4213      	tst	r3, r2
 8004a38:	f43f aeef 	beq.w	800481a <HAL_RCC_OscConfig+0x1e2>
 8004a3c:	f7fe fd88 	bl	8003550 <HAL_GetTick>
 8004a40:	f241 3388 	movw	r3, #5000	; 0x1388
 8004a44:	1bc0      	subs	r0, r0, r7
 8004a46:	4298      	cmp	r0, r3
 8004a48:	d89a      	bhi.n	8004980 <HAL_RCC_OscConfig+0x348>
 8004a4a:	fa99 f3a9 	rbit	r3, r9
 8004a4e:	fa99 f3a9 	rbit	r3, r9
 8004a52:	2b00      	cmp	r3, #0
 8004a54:	d0e4      	beq.n	8004a20 <HAL_RCC_OscConfig+0x3e8>
 8004a56:	6a2a      	ldr	r2, [r5, #32]
 8004a58:	e7e5      	b.n	8004a26 <HAL_RCC_OscConfig+0x3ee>
 8004a5a:	2501      	movs	r5, #1
 8004a5c:	fa95 f3a5 	rbit	r3, r5
 8004a60:	fab3 f383 	clz	r3, r3
 8004a64:	f103 5384 	add.w	r3, r3, #276824064	; 0x10800000
 8004a68:	f503 1384 	add.w	r3, r3, #1081344	; 0x108000
 8004a6c:	009b      	lsls	r3, r3, #2
 8004a6e:	f04f 0802 	mov.w	r8, #2
 8004a72:	601a      	str	r2, [r3, #0]
 8004a74:	f7fe fd6c 	bl	8003550 <HAL_GetTick>
 8004a78:	4e5e      	ldr	r6, [pc, #376]	; (8004bf4 <HAL_RCC_OscConfig+0x5bc>)
 8004a7a:	4607      	mov	r7, r0
 8004a7c:	e005      	b.n	8004a8a <HAL_RCC_OscConfig+0x452>
 8004a7e:	f7fe fd67 	bl	8003550 <HAL_GetTick>
 8004a82:	1bc0      	subs	r0, r0, r7
 8004a84:	2802      	cmp	r0, #2
 8004a86:	f63f af7b 	bhi.w	8004980 <HAL_RCC_OscConfig+0x348>
 8004a8a:	fa98 f3a8 	rbit	r3, r8
 8004a8e:	6832      	ldr	r2, [r6, #0]
 8004a90:	fa98 f3a8 	rbit	r3, r8
 8004a94:	fab3 f383 	clz	r3, r3
 8004a98:	f003 031f 	and.w	r3, r3, #31
 8004a9c:	fa05 f303 	lsl.w	r3, r5, r3
 8004aa0:	4213      	tst	r3, r2
 8004aa2:	d1ec      	bne.n	8004a7e <HAL_RCC_OscConfig+0x446>
 8004aa4:	6823      	ldr	r3, [r4, #0]
 8004aa6:	e61c      	b.n	80046e2 <HAL_RCC_OscConfig+0xaa>
 8004aa8:	4a52      	ldr	r2, [pc, #328]	; (8004bf4 <HAL_RCC_OscConfig+0x5bc>)
 8004aaa:	6a13      	ldr	r3, [r2, #32]
 8004aac:	f043 0301 	orr.w	r3, r3, #1
 8004ab0:	6213      	str	r3, [r2, #32]
 8004ab2:	f7fe fd4d 	bl	8003550 <HAL_GetTick>
 8004ab6:	f04f 0902 	mov.w	r9, #2
 8004aba:	4607      	mov	r7, r0
 8004abc:	4e4d      	ldr	r6, [pc, #308]	; (8004bf4 <HAL_RCC_OscConfig+0x5bc>)
 8004abe:	2501      	movs	r5, #1
 8004ac0:	e015      	b.n	8004aee <HAL_RCC_OscConfig+0x4b6>
 8004ac2:	fa99 f3a9 	rbit	r3, r9
 8004ac6:	6a72      	ldr	r2, [r6, #36]	; 0x24
 8004ac8:	fa99 f3a9 	rbit	r3, r9
 8004acc:	fab3 f383 	clz	r3, r3
 8004ad0:	f003 031f 	and.w	r3, r3, #31
 8004ad4:	fa05 f303 	lsl.w	r3, r5, r3
 8004ad8:	4213      	tst	r3, r2
 8004ada:	f47f ae9e 	bne.w	800481a <HAL_RCC_OscConfig+0x1e2>
 8004ade:	f7fe fd37 	bl	8003550 <HAL_GetTick>
 8004ae2:	f241 3388 	movw	r3, #5000	; 0x1388
 8004ae6:	1bc0      	subs	r0, r0, r7
 8004ae8:	4298      	cmp	r0, r3
 8004aea:	f63f af49 	bhi.w	8004980 <HAL_RCC_OscConfig+0x348>
 8004aee:	fa99 f3a9 	rbit	r3, r9
 8004af2:	fa99 f3a9 	rbit	r3, r9
 8004af6:	2b00      	cmp	r3, #0
 8004af8:	d0e3      	beq.n	8004ac2 <HAL_RCC_OscConfig+0x48a>
 8004afa:	6a32      	ldr	r2, [r6, #32]
 8004afc:	e7e4      	b.n	8004ac8 <HAL_RCC_OscConfig+0x490>
 8004afe:	f103 4380 	add.w	r3, r3, #1073741824	; 0x40000000
 8004b02:	f5a3 333c 	sub.w	r3, r3, #192512	; 0x2f000
 8004b06:	681a      	ldr	r2, [r3, #0]
 8004b08:	f442 2280 	orr.w	r2, r2, #262144	; 0x40000
 8004b0c:	601a      	str	r2, [r3, #0]
 8004b0e:	681a      	ldr	r2, [r3, #0]
 8004b10:	f442 3280 	orr.w	r2, r2, #65536	; 0x10000
 8004b14:	601a      	str	r2, [r3, #0]
 8004b16:	e5c0      	b.n	800469a <HAL_RCC_OscConfig+0x62>
 8004b18:	f042 0204 	orr.w	r2, r2, #4
 8004b1c:	621a      	str	r2, [r3, #32]
 8004b1e:	6a1a      	ldr	r2, [r3, #32]
 8004b20:	f042 0201 	orr.w	r2, r2, #1
 8004b24:	621a      	str	r2, [r3, #32]
 8004b26:	e7c4      	b.n	8004ab2 <HAL_RCC_OscConfig+0x47a>
 8004b28:	2801      	cmp	r0, #1
 8004b2a:	f43f aecd 	beq.w	80048c8 <HAL_RCC_OscConfig+0x290>
 8004b2e:	686b      	ldr	r3, [r5, #4]
 8004b30:	6a22      	ldr	r2, [r4, #32]
 8004b32:	f403 3180 	and.w	r1, r3, #65536	; 0x10000
 8004b36:	4291      	cmp	r1, r2
 8004b38:	f47f aec5 	bne.w	80048c6 <HAL_RCC_OscConfig+0x28e>
 8004b3c:	6a60      	ldr	r0, [r4, #36]	; 0x24
 8004b3e:	f403 1370 	and.w	r3, r3, #3932160	; 0x3c0000
 8004b42:	1a18      	subs	r0, r3, r0
 8004b44:	bf18      	it	ne
 8004b46:	2001      	movne	r0, #1
 8004b48:	e6be      	b.n	80048c8 <HAL_RCC_OscConfig+0x290>
 8004b4a:	fa93 f3a3 	rbit	r3, r3
 8004b4e:	fab3 f383 	clz	r3, r3
 8004b52:	f103 5384 	add.w	r3, r3, #276824064	; 0x10800000
 8004b56:	f503 1384 	add.w	r3, r3, #1081344	; 0x108000
 8004b5a:	009b      	lsls	r3, r3, #2
 8004b5c:	2200      	movs	r2, #0
 8004b5e:	601a      	str	r2, [r3, #0]
 8004b60:	f7fe fcf6 	bl	8003550 <HAL_GetTick>
 8004b64:	f04f 7800 	mov.w	r8, #33554432	; 0x2000000
 8004b68:	4607      	mov	r7, r0
 8004b6a:	2601      	movs	r6, #1
 8004b6c:	e005      	b.n	8004b7a <HAL_RCC_OscConfig+0x542>
 8004b6e:	f7fe fcef 	bl	8003550 <HAL_GetTick>
 8004b72:	1bc0      	subs	r0, r0, r7
 8004b74:	2802      	cmp	r0, #2
 8004b76:	f63f af03 	bhi.w	8004980 <HAL_RCC_OscConfig+0x348>
 8004b7a:	fa98 f3a8 	rbit	r3, r8
 8004b7e:	682a      	ldr	r2, [r5, #0]
 8004b80:	fa98 f3a8 	rbit	r3, r8
 8004b84:	fab3 f383 	clz	r3, r3
 8004b88:	f003 031f 	and.w	r3, r3, #31
 8004b8c:	fa06 f303 	lsl.w	r3, r6, r3
 8004b90:	4213      	tst	r3, r2
 8004b92:	d1ec      	bne.n	8004b6e <HAL_RCC_OscConfig+0x536>
 8004b94:	e9d4 1308 	ldrd	r1, r3, [r4, #32]
 8004b98:	686a      	ldr	r2, [r5, #4]
 8004b9a:	430b      	orrs	r3, r1
 8004b9c:	f422 1274 	bic.w	r2, r2, #3997696	; 0x3d0000
 8004ba0:	4313      	orrs	r3, r2
 8004ba2:	606b      	str	r3, [r5, #4]
 8004ba4:	f04f 7380 	mov.w	r3, #16777216	; 0x1000000
 8004ba8:	fa93 f3a3 	rbit	r3, r3
 8004bac:	fab3 f383 	clz	r3, r3
 8004bb0:	f103 5384 	add.w	r3, r3, #276824064	; 0x10800000
 8004bb4:	f503 1384 	add.w	r3, r3, #1081344	; 0x108000
 8004bb8:	009b      	lsls	r3, r3, #2
 8004bba:	f04f 7400 	mov.w	r4, #33554432	; 0x2000000
 8004bbe:	601e      	str	r6, [r3, #0]
 8004bc0:	f7fe fcc6 	bl	8003550 <HAL_GetTick>
 8004bc4:	4e0b      	ldr	r6, [pc, #44]	; (8004bf4 <HAL_RCC_OscConfig+0x5bc>)
 8004bc6:	4607      	mov	r7, r0
 8004bc8:	2501      	movs	r5, #1
 8004bca:	e005      	b.n	8004bd8 <HAL_RCC_OscConfig+0x5a0>
 8004bcc:	f7fe fcc0 	bl	8003550 <HAL_GetTick>
 8004bd0:	1bc0      	subs	r0, r0, r7
 8004bd2:	2802      	cmp	r0, #2
 8004bd4:	f63f aed4 	bhi.w	8004980 <HAL_RCC_OscConfig+0x348>
 8004bd8:	fa94 f3a4 	rbit	r3, r4
 8004bdc:	6832      	ldr	r2, [r6, #0]
 8004bde:	fa94 f3a4 	rbit	r3, r4
 8004be2:	fab3 f383 	clz	r3, r3
 8004be6:	f003 031f 	and.w	r3, r3, #31
 8004bea:	fa05 f303 	lsl.w	r3, r5, r3
 8004bee:	4213      	tst	r3, r2
 8004bf0:	d0ec      	beq.n	8004bcc <HAL_RCC_OscConfig+0x594>
 8004bf2:	e64e      	b.n	8004892 <HAL_RCC_OscConfig+0x25a>
 8004bf4:	40021000 	.word	0x40021000

08004bf8 <HAL_RCC_ClockConfig>:
 8004bf8:	b178      	cbz	r0, 8004c1a <HAL_RCC_ClockConfig+0x22>
 8004bfa:	4a66      	ldr	r2, [pc, #408]	; (8004d94 <HAL_RCC_ClockConfig+0x19c>)
 8004bfc:	6813      	ldr	r3, [r2, #0]
 8004bfe:	f003 0307 	and.w	r3, r3, #7
 8004c02:	428b      	cmp	r3, r1
 8004c04:	d20b      	bcs.n	8004c1e <HAL_RCC_ClockConfig+0x26>
 8004c06:	6813      	ldr	r3, [r2, #0]
 8004c08:	f023 0307 	bic.w	r3, r3, #7
 8004c0c:	430b      	orrs	r3, r1
 8004c0e:	6013      	str	r3, [r2, #0]
 8004c10:	6813      	ldr	r3, [r2, #0]
 8004c12:	f003 0307 	and.w	r3, r3, #7
 8004c16:	428b      	cmp	r3, r1
 8004c18:	d001      	beq.n	8004c1e <HAL_RCC_ClockConfig+0x26>
 8004c1a:	2001      	movs	r0, #1
 8004c1c:	4770      	bx	lr
 8004c1e:	6803      	ldr	r3, [r0, #0]
 8004c20:	e92d 41f0 	stmdb	sp!, {r4, r5, r6, r7, r8, lr}
 8004c24:	079f      	lsls	r7, r3, #30
 8004c26:	d506      	bpl.n	8004c36 <HAL_RCC_ClockConfig+0x3e>
 8004c28:	4c5b      	ldr	r4, [pc, #364]	; (8004d98 <HAL_RCC_ClockConfig+0x1a0>)
 8004c2a:	6885      	ldr	r5, [r0, #8]
 8004c2c:	6862      	ldr	r2, [r4, #4]
 8004c2e:	f022 02f0 	bic.w	r2, r2, #240	; 0xf0
 8004c32:	432a      	orrs	r2, r5
 8004c34:	6062      	str	r2, [r4, #4]
 8004c36:	07de      	lsls	r6, r3, #31
 8004c38:	4604      	mov	r4, r0
 8004c3a:	460d      	mov	r5, r1
 8004c3c:	d530      	bpl.n	8004ca0 <HAL_RCC_ClockConfig+0xa8>
 8004c3e:	6842      	ldr	r2, [r0, #4]
 8004c40:	2a01      	cmp	r2, #1
 8004c42:	f000 8092 	beq.w	8004d6a <HAL_RCC_ClockConfig+0x172>
 8004c46:	2a02      	cmp	r2, #2
 8004c48:	bf0c      	ite	eq
 8004c4a:	f04f 7300 	moveq.w	r3, #33554432	; 0x2000000
 8004c4e:	2302      	movne	r3, #2
 8004c50:	fa93 f1a3 	rbit	r1, r3
 8004c54:	4950      	ldr	r1, [pc, #320]	; (8004d98 <HAL_RCC_ClockConfig+0x1a0>)
 8004c56:	6808      	ldr	r0, [r1, #0]
 8004c58:	fa93 f3a3 	rbit	r3, r3
 8004c5c:	fab3 f383 	clz	r3, r3
 8004c60:	f003 031f 	and.w	r3, r3, #31
 8004c64:	2101      	movs	r1, #1
 8004c66:	fa01 f303 	lsl.w	r3, r1, r3
 8004c6a:	4203      	tst	r3, r0
 8004c6c:	d028      	beq.n	8004cc0 <HAL_RCC_ClockConfig+0xc8>
 8004c6e:	4e4a      	ldr	r6, [pc, #296]	; (8004d98 <HAL_RCC_ClockConfig+0x1a0>)
 8004c70:	6873      	ldr	r3, [r6, #4]
 8004c72:	f023 0303 	bic.w	r3, r3, #3
 8004c76:	431a      	orrs	r2, r3
 8004c78:	6072      	str	r2, [r6, #4]
 8004c7a:	f7fe fc69 	bl	8003550 <HAL_GetTick>
 8004c7e:	f241 3788 	movw	r7, #5000	; 0x1388
 8004c82:	4680      	mov	r8, r0
 8004c84:	e005      	b.n	8004c92 <HAL_RCC_ClockConfig+0x9a>
 8004c86:	f7fe fc63 	bl	8003550 <HAL_GetTick>
 8004c8a:	eba0 0008 	sub.w	r0, r0, r8
 8004c8e:	42b8      	cmp	r0, r7
 8004c90:	d87d      	bhi.n	8004d8e <HAL_RCC_ClockConfig+0x196>
 8004c92:	6873      	ldr	r3, [r6, #4]
 8004c94:	6862      	ldr	r2, [r4, #4]
 8004c96:	f003 030c 	and.w	r3, r3, #12
 8004c9a:	ebb3 0f82 	cmp.w	r3, r2, lsl #2
 8004c9e:	d1f2      	bne.n	8004c86 <HAL_RCC_ClockConfig+0x8e>
 8004ca0:	4a3c      	ldr	r2, [pc, #240]	; (8004d94 <HAL_RCC_ClockConfig+0x19c>)
 8004ca2:	6813      	ldr	r3, [r2, #0]
 8004ca4:	f003 0307 	and.w	r3, r3, #7
 8004ca8:	42ab      	cmp	r3, r5
 8004caa:	d90c      	bls.n	8004cc6 <HAL_RCC_ClockConfig+0xce>
 8004cac:	6813      	ldr	r3, [r2, #0]
 8004cae:	f023 0307 	bic.w	r3, r3, #7
 8004cb2:	432b      	orrs	r3, r5
 8004cb4:	6013      	str	r3, [r2, #0]
 8004cb6:	6813      	ldr	r3, [r2, #0]
 8004cb8:	f003 0307 	and.w	r3, r3, #7
 8004cbc:	42ab      	cmp	r3, r5
 8004cbe:	d002      	beq.n	8004cc6 <HAL_RCC_ClockConfig+0xce>
 8004cc0:	2001      	movs	r0, #1
 8004cc2:	e8bd 81f0 	ldmia.w	sp!, {r4, r5, r6, r7, r8, pc}
 8004cc6:	6823      	ldr	r3, [r4, #0]
 8004cc8:	075d      	lsls	r5, r3, #29
 8004cca:	d506      	bpl.n	8004cda <HAL_RCC_ClockConfig+0xe2>
 8004ccc:	4932      	ldr	r1, [pc, #200]	; (8004d98 <HAL_RCC_ClockConfig+0x1a0>)
 8004cce:	68e0      	ldr	r0, [r4, #12]
 8004cd0:	684a      	ldr	r2, [r1, #4]
 8004cd2:	f422 62e0 	bic.w	r2, r2, #1792	; 0x700
 8004cd6:	4302      	orrs	r2, r0
 8004cd8:	604a      	str	r2, [r1, #4]
 8004cda:	0718      	lsls	r0, r3, #28
 8004cdc:	d507      	bpl.n	8004cee <HAL_RCC_ClockConfig+0xf6>
 8004cde:	4a2e      	ldr	r2, [pc, #184]	; (8004d98 <HAL_RCC_ClockConfig+0x1a0>)
 8004ce0:	6921      	ldr	r1, [r4, #16]
 8004ce2:	6853      	ldr	r3, [r2, #4]
 8004ce4:	f423 5360 	bic.w	r3, r3, #14336	; 0x3800
 8004ce8:	ea43 03c1 	orr.w	r3, r3, r1, lsl #3
 8004cec:	6053      	str	r3, [r2, #4]
 8004cee:	492a      	ldr	r1, [pc, #168]	; (8004d98 <HAL_RCC_ClockConfig+0x1a0>)
 8004cf0:	6848      	ldr	r0, [r1, #4]
 8004cf2:	f000 030c 	and.w	r3, r0, #12
 8004cf6:	2b08      	cmp	r3, #8
 8004cf8:	d135      	bne.n	8004d66 <HAL_RCC_ClockConfig+0x16e>
 8004cfa:	f44f 1370 	mov.w	r3, #3932160	; 0x3c0000
 8004cfe:	fa93 f3a3 	rbit	r3, r3
 8004d02:	f400 1270 	and.w	r2, r0, #3932160	; 0x3c0000
 8004d06:	fab3 f383 	clz	r3, r3
 8004d0a:	fa22 f303 	lsr.w	r3, r2, r3
 8004d0e:	4c23      	ldr	r4, [pc, #140]	; (8004d9c <HAL_RCC_ClockConfig+0x1a4>)
 8004d10:	6aca      	ldr	r2, [r1, #44]	; 0x2c
 8004d12:	5ce3      	ldrb	r3, [r4, r3]
 8004d14:	210f      	movs	r1, #15
 8004d16:	fa91 f1a1 	rbit	r1, r1
 8004d1a:	fab1 f181 	clz	r1, r1
 8004d1e:	f002 020f 	and.w	r2, r2, #15
 8004d22:	40ca      	lsrs	r2, r1
 8004d24:	491e      	ldr	r1, [pc, #120]	; (8004da0 <HAL_RCC_ClockConfig+0x1a8>)
 8004d26:	5c8a      	ldrb	r2, [r1, r2]
 8004d28:	03c1      	lsls	r1, r0, #15
 8004d2a:	bf4a      	itet	mi
 8004d2c:	491d      	ldrmi	r1, [pc, #116]	; (8004da4 <HAL_RCC_ClockConfig+0x1ac>)
 8004d2e:	491e      	ldrpl	r1, [pc, #120]	; (8004da8 <HAL_RCC_ClockConfig+0x1b0>)
 8004d30:	fbb1 f1f2 	udivmi	r1, r1, r2
 8004d34:	fb01 f103 	mul.w	r1, r1, r3
 8004d38:	4b17      	ldr	r3, [pc, #92]	; (8004d98 <HAL_RCC_ClockConfig+0x1a0>)
 8004d3a:	22f0      	movs	r2, #240	; 0xf0
 8004d3c:	685b      	ldr	r3, [r3, #4]
 8004d3e:	fa92 f2a2 	rbit	r2, r2
 8004d42:	fab2 f282 	clz	r2, r2
 8004d46:	f003 03f0 	and.w	r3, r3, #240	; 0xf0
 8004d4a:	40d3      	lsrs	r3, r2
 8004d4c:	4a17      	ldr	r2, [pc, #92]	; (8004dac <HAL_RCC_ClockConfig+0x1b4>)
 8004d4e:	4818      	ldr	r0, [pc, #96]	; (8004db0 <HAL_RCC_ClockConfig+0x1b8>)
 8004d50:	5cd3      	ldrb	r3, [r2, r3]
 8004d52:	4a18      	ldr	r2, [pc, #96]	; (8004db4 <HAL_RCC_ClockConfig+0x1bc>)
 8004d54:	6800      	ldr	r0, [r0, #0]
 8004d56:	fa21 f303 	lsr.w	r3, r1, r3
 8004d5a:	6013      	str	r3, [r2, #0]
 8004d5c:	f7fe fbb6 	bl	80034cc <HAL_InitTick>
 8004d60:	2000      	movs	r0, #0
 8004d62:	e8bd 81f0 	ldmia.w	sp!, {r4, r5, r6, r7, r8, pc}
 8004d66:	490f      	ldr	r1, [pc, #60]	; (8004da4 <HAL_RCC_ClockConfig+0x1ac>)
 8004d68:	e7e6      	b.n	8004d38 <HAL_RCC_ClockConfig+0x140>
 8004d6a:	f44f 3300 	mov.w	r3, #131072	; 0x20000
 8004d6e:	fa93 f1a3 	rbit	r1, r3
 8004d72:	4909      	ldr	r1, [pc, #36]	; (8004d98 <HAL_RCC_ClockConfig+0x1a0>)
 8004d74:	6809      	ldr	r1, [r1, #0]
 8004d76:	fa93 f3a3 	rbit	r3, r3
 8004d7a:	fab3 f383 	clz	r3, r3
 8004d7e:	f003 031f 	and.w	r3, r3, #31
 8004d82:	fa02 f303 	lsl.w	r3, r2, r3
 8004d86:	420b      	tst	r3, r1
 8004d88:	f47f af71 	bne.w	8004c6e <HAL_RCC_ClockConfig+0x76>
 8004d8c:	e798      	b.n	8004cc0 <HAL_RCC_ClockConfig+0xc8>
 8004d8e:	2003      	movs	r0, #3
 8004d90:	e797      	b.n	8004cc2 <HAL_RCC_ClockConfig+0xca>
 8004d92:	bf00      	nop
 8004d94:	40022000 	.word	0x40022000
 8004d98:	40021000 	.word	0x40021000
 8004d9c:	08008c3c 	.word	0x08008c3c
 8004da0:	08008c4c 	.word	0x08008c4c
 8004da4:	007a1200 	.word	0x007a1200
 8004da8:	003d0900 	.word	0x003d0900
 8004dac:	08008c24 	.word	0x08008c24
 8004db0:	200006d8 	.word	0x200006d8
 8004db4:	200006d0 	.word	0x200006d0

08004db8 <HAL_RCC_GetSysClockFreq>:
 8004db8:	4814      	ldr	r0, [pc, #80]	; (8004e0c <HAL_RCC_GetSysClockFreq+0x54>)
 8004dba:	6841      	ldr	r1, [r0, #4]
 8004dbc:	f001 030c 	and.w	r3, r1, #12
 8004dc0:	2b08      	cmp	r3, #8
 8004dc2:	d001      	beq.n	8004dc8 <HAL_RCC_GetSysClockFreq+0x10>
 8004dc4:	4812      	ldr	r0, [pc, #72]	; (8004e10 <HAL_RCC_GetSysClockFreq+0x58>)
 8004dc6:	4770      	bx	lr
 8004dc8:	b410      	push	{r4}
 8004dca:	f44f 1370 	mov.w	r3, #3932160	; 0x3c0000
 8004dce:	fa93 f3a3 	rbit	r3, r3
 8004dd2:	fab3 f383 	clz	r3, r3
 8004dd6:	f401 1270 	and.w	r2, r1, #3932160	; 0x3c0000
 8004dda:	40da      	lsrs	r2, r3
 8004ddc:	4c0d      	ldr	r4, [pc, #52]	; (8004e14 <HAL_RCC_GetSysClockFreq+0x5c>)
 8004dde:	6ac3      	ldr	r3, [r0, #44]	; 0x2c
 8004de0:	5ca0      	ldrb	r0, [r4, r2]
 8004de2:	220f      	movs	r2, #15
 8004de4:	fa92 f2a2 	rbit	r2, r2
 8004de8:	fab2 f282 	clz	r2, r2
 8004dec:	f003 030f 	and.w	r3, r3, #15
 8004df0:	40d3      	lsrs	r3, r2
 8004df2:	4a09      	ldr	r2, [pc, #36]	; (8004e18 <HAL_RCC_GetSysClockFreq+0x60>)
 8004df4:	f85d 4b04 	ldr.w	r4, [sp], #4
 8004df8:	5cd2      	ldrb	r2, [r2, r3]
 8004dfa:	03cb      	lsls	r3, r1, #15
 8004dfc:	bf4a      	itet	mi
 8004dfe:	4b04      	ldrmi	r3, [pc, #16]	; (8004e10 <HAL_RCC_GetSysClockFreq+0x58>)
 8004e00:	4b06      	ldrpl	r3, [pc, #24]	; (8004e1c <HAL_RCC_GetSysClockFreq+0x64>)
 8004e02:	fbb3 f3f2 	udivmi	r3, r3, r2
 8004e06:	fb03 f000 	mul.w	r0, r3, r0
 8004e0a:	4770      	bx	lr
 8004e0c:	40021000 	.word	0x40021000
 8004e10:	007a1200 	.word	0x007a1200
 8004e14:	08008c3c 	.word	0x08008c3c
 8004e18:	08008c4c 	.word	0x08008c4c
 8004e1c:	003d0900 	.word	0x003d0900

08004e20 <HAL_RCC_GetHCLKFreq>:
 8004e20:	4b01      	ldr	r3, [pc, #4]	; (8004e28 <HAL_RCC_GetHCLKFreq+0x8>)
 8004e22:	6818      	ldr	r0, [r3, #0]
 8004e24:	4770      	bx	lr
 8004e26:	bf00      	nop
 8004e28:	200006d0 	.word	0x200006d0

08004e2c <HAL_RCC_GetPCLK1Freq>:
 8004e2c:	4b08      	ldr	r3, [pc, #32]	; (8004e50 <HAL_RCC_GetPCLK1Freq+0x24>)
 8004e2e:	f44f 62e0 	mov.w	r2, #1792	; 0x700
 8004e32:	685b      	ldr	r3, [r3, #4]
 8004e34:	fa92 f2a2 	rbit	r2, r2
 8004e38:	fab2 f282 	clz	r2, r2
 8004e3c:	f403 63e0 	and.w	r3, r3, #1792	; 0x700
 8004e40:	40d3      	lsrs	r3, r2
 8004e42:	4904      	ldr	r1, [pc, #16]	; (8004e54 <HAL_RCC_GetPCLK1Freq+0x28>)
 8004e44:	4a04      	ldr	r2, [pc, #16]	; (8004e58 <HAL_RCC_GetPCLK1Freq+0x2c>)
 8004e46:	5ccb      	ldrb	r3, [r1, r3]
 8004e48:	6810      	ldr	r0, [r2, #0]
 8004e4a:	40d8      	lsrs	r0, r3
 8004e4c:	4770      	bx	lr
 8004e4e:	bf00      	nop
 8004e50:	40021000 	.word	0x40021000
 8004e54:	08008c34 	.word	0x08008c34
 8004e58:	200006d0 	.word	0x200006d0

08004e5c <HAL_RCC_GetPCLK2Freq>:
 8004e5c:	4b08      	ldr	r3, [pc, #32]	; (8004e80 <HAL_RCC_GetPCLK2Freq+0x24>)
 8004e5e:	f44f 5260 	mov.w	r2, #14336	; 0x3800
 8004e62:	685b      	ldr	r3, [r3, #4]
 8004e64:	fa92 f2a2 	rbit	r2, r2
 8004e68:	fab2 f282 	clz	r2, r2
 8004e6c:	f403 5360 	and.w	r3, r3, #14336	; 0x3800
 8004e70:	40d3      	lsrs	r3, r2
 8004e72:	4904      	ldr	r1, [pc, #16]	; (8004e84 <HAL_RCC_GetPCLK2Freq+0x28>)
 8004e74:	4a04      	ldr	r2, [pc, #16]	; (8004e88 <HAL_RCC_GetPCLK2Freq+0x2c>)
 8004e76:	5ccb      	ldrb	r3, [r1, r3]
 8004e78:	6810      	ldr	r0, [r2, #0]
 8004e7a:	40d8      	lsrs	r0, r3
 8004e7c:	4770      	bx	lr
 8004e7e:	bf00      	nop
 8004e80:	40021000 	.word	0x40021000
 8004e84:	08008c34 	.word	0x08008c34
 8004e88:	200006d0 	.word	0x200006d0

08004e8c <HAL_RCCEx_PeriphCLKConfig>:
 8004e8c:	e92d 43f0 	stmdb	sp!, {r4, r5, r6, r7, r8, r9, lr}
 8004e90:	4604      	mov	r4, r0
 8004e92:	6800      	ldr	r0, [r0, #0]
 8004e94:	03c5      	lsls	r5, r0, #15
 8004e96:	b083      	sub	sp, #12
 8004e98:	d53e      	bpl.n	8004f18 <HAL_RCCEx_PeriphCLKConfig+0x8c>
 8004e9a:	4b81      	ldr	r3, [pc, #516]	; (80050a0 <HAL_RCCEx_PeriphCLKConfig+0x214>)
 8004e9c:	69da      	ldr	r2, [r3, #28]
 8004e9e:	00d0      	lsls	r0, r2, #3
 8004ea0:	f140 80b4 	bpl.w	800500c <HAL_RCCEx_PeriphCLKConfig+0x180>
 8004ea4:	4d7f      	ldr	r5, [pc, #508]	; (80050a4 <HAL_RCCEx_PeriphCLKConfig+0x218>)
 8004ea6:	682a      	ldr	r2, [r5, #0]
 8004ea8:	05d1      	lsls	r1, r2, #23
 8004eaa:	f04f 0600 	mov.w	r6, #0
 8004eae:	f140 80bd 	bpl.w	800502c <HAL_RCCEx_PeriphCLKConfig+0x1a0>
 8004eb2:	4d7b      	ldr	r5, [pc, #492]	; (80050a0 <HAL_RCCEx_PeriphCLKConfig+0x214>)
 8004eb4:	6861      	ldr	r1, [r4, #4]
 8004eb6:	6a2a      	ldr	r2, [r5, #32]
 8004eb8:	f412 7240 	ands.w	r2, r2, #768	; 0x300
 8004ebc:	d020      	beq.n	8004f00 <HAL_RCCEx_PeriphCLKConfig+0x74>
 8004ebe:	f401 7340 	and.w	r3, r1, #768	; 0x300
 8004ec2:	4293      	cmp	r3, r2
 8004ec4:	d01c      	beq.n	8004f00 <HAL_RCCEx_PeriphCLKConfig+0x74>
 8004ec6:	6a29      	ldr	r1, [r5, #32]
 8004ec8:	f44f 3380 	mov.w	r3, #65536	; 0x10000
 8004ecc:	f421 7040 	bic.w	r0, r1, #768	; 0x300
 8004ed0:	fa93 f2a3 	rbit	r2, r3
 8004ed4:	4f74      	ldr	r7, [pc, #464]	; (80050a8 <HAL_RCCEx_PeriphCLKConfig+0x21c>)
 8004ed6:	fab2 f282 	clz	r2, r2
 8004eda:	443a      	add	r2, r7
 8004edc:	0092      	lsls	r2, r2, #2
 8004ede:	f04f 0c01 	mov.w	ip, #1
 8004ee2:	f8c2 c000 	str.w	ip, [r2]
 8004ee6:	fa93 f3a3 	rbit	r3, r3
 8004eea:	fab3 f383 	clz	r3, r3
 8004eee:	443b      	add	r3, r7
 8004ef0:	009b      	lsls	r3, r3, #2
 8004ef2:	2200      	movs	r2, #0
 8004ef4:	601a      	str	r2, [r3, #0]
 8004ef6:	07cb      	lsls	r3, r1, #31
 8004ef8:	6228      	str	r0, [r5, #32]
 8004efa:	f100 80ab 	bmi.w	8005054 <HAL_RCCEx_PeriphCLKConfig+0x1c8>
 8004efe:	6861      	ldr	r1, [r4, #4]
 8004f00:	4a67      	ldr	r2, [pc, #412]	; (80050a0 <HAL_RCCEx_PeriphCLKConfig+0x214>)
 8004f02:	6a13      	ldr	r3, [r2, #32]
 8004f04:	f423 7340 	bic.w	r3, r3, #768	; 0x300
 8004f08:	430b      	orrs	r3, r1
 8004f0a:	6213      	str	r3, [r2, #32]
 8004f0c:	b11e      	cbz	r6, 8004f16 <HAL_RCCEx_PeriphCLKConfig+0x8a>
 8004f0e:	69d3      	ldr	r3, [r2, #28]
 8004f10:	f023 5380 	bic.w	r3, r3, #268435456	; 0x10000000
 8004f14:	61d3      	str	r3, [r2, #28]
 8004f16:	6820      	ldr	r0, [r4, #0]
 8004f18:	07c7      	lsls	r7, r0, #31
 8004f1a:	d506      	bpl.n	8004f2a <HAL_RCCEx_PeriphCLKConfig+0x9e>
 8004f1c:	4a60      	ldr	r2, [pc, #384]	; (80050a0 <HAL_RCCEx_PeriphCLKConfig+0x214>)
 8004f1e:	68a1      	ldr	r1, [r4, #8]
 8004f20:	6b13      	ldr	r3, [r2, #48]	; 0x30
 8004f22:	f023 0303 	bic.w	r3, r3, #3
 8004f26:	430b      	orrs	r3, r1
 8004f28:	6313      	str	r3, [r2, #48]	; 0x30
 8004f2a:	0786      	lsls	r6, r0, #30
 8004f2c:	d506      	bpl.n	8004f3c <HAL_RCCEx_PeriphCLKConfig+0xb0>
 8004f2e:	4a5c      	ldr	r2, [pc, #368]	; (80050a0 <HAL_RCCEx_PeriphCLKConfig+0x214>)
 8004f30:	68e1      	ldr	r1, [r4, #12]
 8004f32:	6b13      	ldr	r3, [r2, #48]	; 0x30
 8004f34:	f423 3340 	bic.w	r3, r3, #196608	; 0x30000
 8004f38:	430b      	orrs	r3, r1
 8004f3a:	6313      	str	r3, [r2, #48]	; 0x30
 8004f3c:	0745      	lsls	r5, r0, #29
 8004f3e:	d506      	bpl.n	8004f4e <HAL_RCCEx_PeriphCLKConfig+0xc2>
 8004f40:	4a57      	ldr	r2, [pc, #348]	; (80050a0 <HAL_RCCEx_PeriphCLKConfig+0x214>)
 8004f42:	6921      	ldr	r1, [r4, #16]
 8004f44:	6b13      	ldr	r3, [r2, #48]	; 0x30
 8004f46:	f423 2340 	bic.w	r3, r3, #786432	; 0xc0000
 8004f4a:	430b      	orrs	r3, r1
 8004f4c:	6313      	str	r3, [r2, #48]	; 0x30
 8004f4e:	0681      	lsls	r1, r0, #26
 8004f50:	d506      	bpl.n	8004f60 <HAL_RCCEx_PeriphCLKConfig+0xd4>
 8004f52:	4a53      	ldr	r2, [pc, #332]	; (80050a0 <HAL_RCCEx_PeriphCLKConfig+0x214>)
 8004f54:	69e1      	ldr	r1, [r4, #28]
 8004f56:	6b13      	ldr	r3, [r2, #48]	; 0x30
 8004f58:	f023 0310 	bic.w	r3, r3, #16
 8004f5c:	430b      	orrs	r3, r1
 8004f5e:	6313      	str	r3, [r2, #48]	; 0x30
 8004f60:	0382      	lsls	r2, r0, #14
 8004f62:	d506      	bpl.n	8004f72 <HAL_RCCEx_PeriphCLKConfig+0xe6>
 8004f64:	4a4e      	ldr	r2, [pc, #312]	; (80050a0 <HAL_RCCEx_PeriphCLKConfig+0x214>)
 8004f66:	6ba1      	ldr	r1, [r4, #56]	; 0x38
 8004f68:	6853      	ldr	r3, [r2, #4]
 8004f6a:	f423 0380 	bic.w	r3, r3, #4194304	; 0x400000
 8004f6e:	430b      	orrs	r3, r1
 8004f70:	6053      	str	r3, [r2, #4]
 8004f72:	0643      	lsls	r3, r0, #25
 8004f74:	d506      	bpl.n	8004f84 <HAL_RCCEx_PeriphCLKConfig+0xf8>
 8004f76:	4a4a      	ldr	r2, [pc, #296]	; (80050a0 <HAL_RCCEx_PeriphCLKConfig+0x214>)
 8004f78:	6a21      	ldr	r1, [r4, #32]
 8004f7a:	6b13      	ldr	r3, [r2, #48]	; 0x30
 8004f7c:	f023 0320 	bic.w	r3, r3, #32
 8004f80:	430b      	orrs	r3, r1
 8004f82:	6313      	str	r3, [r2, #48]	; 0x30
 8004f84:	0707      	lsls	r7, r0, #28
 8004f86:	d506      	bpl.n	8004f96 <HAL_RCCEx_PeriphCLKConfig+0x10a>
 8004f88:	4a45      	ldr	r2, [pc, #276]	; (80050a0 <HAL_RCCEx_PeriphCLKConfig+0x214>)
 8004f8a:	6961      	ldr	r1, [r4, #20]
 8004f8c:	6b13      	ldr	r3, [r2, #48]	; 0x30
 8004f8e:	f423 1340 	bic.w	r3, r3, #3145728	; 0x300000
 8004f92:	430b      	orrs	r3, r1
 8004f94:	6313      	str	r3, [r2, #48]	; 0x30
 8004f96:	06c6      	lsls	r6, r0, #27
 8004f98:	d506      	bpl.n	8004fa8 <HAL_RCCEx_PeriphCLKConfig+0x11c>
 8004f9a:	4a41      	ldr	r2, [pc, #260]	; (80050a0 <HAL_RCCEx_PeriphCLKConfig+0x214>)
 8004f9c:	69a1      	ldr	r1, [r4, #24]
 8004f9e:	6b13      	ldr	r3, [r2, #48]	; 0x30
 8004fa0:	f423 0340 	bic.w	r3, r3, #12582912	; 0xc00000
 8004fa4:	430b      	orrs	r3, r1
 8004fa6:	6313      	str	r3, [r2, #48]	; 0x30
 8004fa8:	0585      	lsls	r5, r0, #22
 8004faa:	d506      	bpl.n	8004fba <HAL_RCCEx_PeriphCLKConfig+0x12e>
 8004fac:	4a3c      	ldr	r2, [pc, #240]	; (80050a0 <HAL_RCCEx_PeriphCLKConfig+0x214>)
 8004fae:	6ae1      	ldr	r1, [r4, #44]	; 0x2c
 8004fb0:	6853      	ldr	r3, [r2, #4]
 8004fb2:	f423 0300 	bic.w	r3, r3, #8388608	; 0x800000
 8004fb6:	430b      	orrs	r3, r1
 8004fb8:	6053      	str	r3, [r2, #4]
 8004fba:	0601      	lsls	r1, r0, #24
 8004fbc:	d506      	bpl.n	8004fcc <HAL_RCCEx_PeriphCLKConfig+0x140>
 8004fbe:	4a38      	ldr	r2, [pc, #224]	; (80050a0 <HAL_RCCEx_PeriphCLKConfig+0x214>)
 8004fc0:	6a61      	ldr	r1, [r4, #36]	; 0x24
 8004fc2:	6ad3      	ldr	r3, [r2, #44]	; 0x2c
 8004fc4:	f423 73f8 	bic.w	r3, r3, #496	; 0x1f0
 8004fc8:	430b      	orrs	r3, r1
 8004fca:	62d3      	str	r3, [r2, #44]	; 0x2c
 8004fcc:	05c2      	lsls	r2, r0, #23
 8004fce:	d506      	bpl.n	8004fde <HAL_RCCEx_PeriphCLKConfig+0x152>
 8004fd0:	4a33      	ldr	r2, [pc, #204]	; (80050a0 <HAL_RCCEx_PeriphCLKConfig+0x214>)
 8004fd2:	6aa1      	ldr	r1, [r4, #40]	; 0x28
 8004fd4:	6ad3      	ldr	r3, [r2, #44]	; 0x2c
 8004fd6:	f423 5378 	bic.w	r3, r3, #15872	; 0x3e00
 8004fda:	430b      	orrs	r3, r1
 8004fdc:	62d3      	str	r3, [r2, #44]	; 0x2c
 8004fde:	04c3      	lsls	r3, r0, #19
 8004fe0:	d506      	bpl.n	8004ff0 <HAL_RCCEx_PeriphCLKConfig+0x164>
 8004fe2:	4a2f      	ldr	r2, [pc, #188]	; (80050a0 <HAL_RCCEx_PeriphCLKConfig+0x214>)
 8004fe4:	6b21      	ldr	r1, [r4, #48]	; 0x30
 8004fe6:	6b13      	ldr	r3, [r2, #48]	; 0x30
 8004fe8:	f423 7380 	bic.w	r3, r3, #256	; 0x100
 8004fec:	430b      	orrs	r3, r1
 8004fee:	6313      	str	r3, [r2, #48]	; 0x30
 8004ff0:	f410 5000 	ands.w	r0, r0, #8192	; 0x2000
 8004ff4:	d007      	beq.n	8005006 <HAL_RCCEx_PeriphCLKConfig+0x17a>
 8004ff6:	4a2a      	ldr	r2, [pc, #168]	; (80050a0 <HAL_RCCEx_PeriphCLKConfig+0x214>)
 8004ff8:	6b61      	ldr	r1, [r4, #52]	; 0x34
 8004ffa:	6b13      	ldr	r3, [r2, #48]	; 0x30
 8004ffc:	f423 7300 	bic.w	r3, r3, #512	; 0x200
 8005000:	430b      	orrs	r3, r1
 8005002:	6313      	str	r3, [r2, #48]	; 0x30
 8005004:	2000      	movs	r0, #0
 8005006:	b003      	add	sp, #12
 8005008:	e8bd 83f0 	ldmia.w	sp!, {r4, r5, r6, r7, r8, r9, pc}
 800500c:	69da      	ldr	r2, [r3, #28]
 800500e:	4d25      	ldr	r5, [pc, #148]	; (80050a4 <HAL_RCCEx_PeriphCLKConfig+0x218>)
 8005010:	f042 5280 	orr.w	r2, r2, #268435456	; 0x10000000
 8005014:	61da      	str	r2, [r3, #28]
 8005016:	69db      	ldr	r3, [r3, #28]
 8005018:	f003 5380 	and.w	r3, r3, #268435456	; 0x10000000
 800501c:	9301      	str	r3, [sp, #4]
 800501e:	9b01      	ldr	r3, [sp, #4]
 8005020:	682a      	ldr	r2, [r5, #0]
 8005022:	05d1      	lsls	r1, r2, #23
 8005024:	f04f 0601 	mov.w	r6, #1
 8005028:	f53f af43 	bmi.w	8004eb2 <HAL_RCCEx_PeriphCLKConfig+0x26>
 800502c:	682a      	ldr	r2, [r5, #0]
 800502e:	f442 7280 	orr.w	r2, r2, #256	; 0x100
 8005032:	602a      	str	r2, [r5, #0]
 8005034:	f7fe fa8c 	bl	8003550 <HAL_GetTick>
 8005038:	4607      	mov	r7, r0
 800503a:	682b      	ldr	r3, [r5, #0]
 800503c:	05da      	lsls	r2, r3, #23
 800503e:	f53f af38 	bmi.w	8004eb2 <HAL_RCCEx_PeriphCLKConfig+0x26>
 8005042:	f7fe fa85 	bl	8003550 <HAL_GetTick>
 8005046:	1bc0      	subs	r0, r0, r7
 8005048:	2864      	cmp	r0, #100	; 0x64
 800504a:	d9f6      	bls.n	800503a <HAL_RCCEx_PeriphCLKConfig+0x1ae>
 800504c:	2003      	movs	r0, #3
 800504e:	b003      	add	sp, #12
 8005050:	e8bd 83f0 	ldmia.w	sp!, {r4, r5, r6, r7, r8, r9, pc}
 8005054:	4667      	mov	r7, ip
 8005056:	f7fe fa7b 	bl	8003550 <HAL_GetTick>
 800505a:	f04f 0902 	mov.w	r9, #2
 800505e:	4680      	mov	r8, r0
 8005060:	e015      	b.n	800508e <HAL_RCCEx_PeriphCLKConfig+0x202>
 8005062:	fa99 f3a9 	rbit	r3, r9
 8005066:	6a6a      	ldr	r2, [r5, #36]	; 0x24
 8005068:	fa99 f3a9 	rbit	r3, r9
 800506c:	fab3 f383 	clz	r3, r3
 8005070:	f003 031f 	and.w	r3, r3, #31
 8005074:	fa07 f303 	lsl.w	r3, r7, r3
 8005078:	4213      	tst	r3, r2
 800507a:	f47f af40 	bne.w	8004efe <HAL_RCCEx_PeriphCLKConfig+0x72>
 800507e:	f7fe fa67 	bl	8003550 <HAL_GetTick>
 8005082:	f241 3388 	movw	r3, #5000	; 0x1388
 8005086:	eba0 0008 	sub.w	r0, r0, r8
 800508a:	4298      	cmp	r0, r3
 800508c:	d8de      	bhi.n	800504c <HAL_RCCEx_PeriphCLKConfig+0x1c0>
 800508e:	fa99 f3a9 	rbit	r3, r9
 8005092:	fa99 f3a9 	rbit	r3, r9
 8005096:	2b00      	cmp	r3, #0
 8005098:	d0e3      	beq.n	8005062 <HAL_RCCEx_PeriphCLKConfig+0x1d6>
 800509a:	6a2a      	ldr	r2, [r5, #32]
 800509c:	e7e4      	b.n	8005068 <HAL_RCCEx_PeriphCLKConfig+0x1dc>
 800509e:	bf00      	nop
 80050a0:	40021000 	.word	0x40021000
 80050a4:	40007000 	.word	0x40007000
 80050a8:	10908100 	.word	0x10908100

080050ac <SPI_EndRxTxTransaction>:
 80050ac:	b570      	push	{r4, r5, r6, lr}
 80050ae:	4604      	mov	r4, r0
 80050b0:	460d      	mov	r5, r1
 80050b2:	4616      	mov	r6, r2
 80050b4:	1c68      	adds	r0, r5, #1
 80050b6:	6823      	ldr	r3, [r4, #0]
 80050b8:	d110      	bne.n	80050dc <SPI_EndRxTxTransaction+0x30>
 80050ba:	689a      	ldr	r2, [r3, #8]
 80050bc:	f412 5fc0 	tst.w	r2, #6144	; 0x1800
 80050c0:	d1fb      	bne.n	80050ba <SPI_EndRxTxTransaction+0xe>
 80050c2:	689a      	ldr	r2, [r3, #8]
 80050c4:	0611      	lsls	r1, r2, #24
 80050c6:	d504      	bpl.n	80050d2 <SPI_EndRxTxTransaction+0x26>
 80050c8:	689a      	ldr	r2, [r3, #8]
 80050ca:	0611      	lsls	r1, r2, #24
 80050cc:	d4f9      	bmi.n	80050c2 <SPI_EndRxTxTransaction+0x16>
 80050ce:	e000      	b.n	80050d2 <SPI_EndRxTxTransaction+0x26>
 80050d0:	7b1a      	ldrb	r2, [r3, #12]
 80050d2:	6898      	ldr	r0, [r3, #8]
 80050d4:	f410 60c0 	ands.w	r0, r0, #1536	; 0x600
 80050d8:	d1fa      	bne.n	80050d0 <SPI_EndRxTxTransaction+0x24>
 80050da:	bd70      	pop	{r4, r5, r6, pc}
 80050dc:	689a      	ldr	r2, [r3, #8]
 80050de:	f412 5fc0 	tst.w	r2, #6144	; 0x1800
 80050e2:	d02b      	beq.n	800513c <SPI_EndRxTxTransaction+0x90>
 80050e4:	f7fe fa34 	bl	8003550 <HAL_GetTick>
 80050e8:	1b80      	subs	r0, r0, r6
 80050ea:	4285      	cmp	r5, r0
 80050ec:	d8e2      	bhi.n	80050b4 <SPI_EndRxTxTransaction+0x8>
 80050ee:	6823      	ldr	r3, [r4, #0]
 80050f0:	6861      	ldr	r1, [r4, #4]
 80050f2:	685a      	ldr	r2, [r3, #4]
 80050f4:	f5b1 7f82 	cmp.w	r1, #260	; 0x104
 80050f8:	f022 02e0 	bic.w	r2, r2, #224	; 0xe0
 80050fc:	605a      	str	r2, [r3, #4]
 80050fe:	d02d      	beq.n	800515c <SPI_EndRxTxTransaction+0xb0>
 8005100:	6aa2      	ldr	r2, [r4, #40]	; 0x28
 8005102:	f5b2 5f00 	cmp.w	r2, #8192	; 0x2000
 8005106:	d107      	bne.n	8005118 <SPI_EndRxTxTransaction+0x6c>
 8005108:	681a      	ldr	r2, [r3, #0]
 800510a:	f422 5200 	bic.w	r2, r2, #8192	; 0x2000
 800510e:	601a      	str	r2, [r3, #0]
 8005110:	681a      	ldr	r2, [r3, #0]
 8005112:	f442 5200 	orr.w	r2, r2, #8192	; 0x2000
 8005116:	601a      	str	r2, [r3, #0]
 8005118:	2301      	movs	r3, #1
 800511a:	f884 305d 	strb.w	r3, [r4, #93]	; 0x5d
 800511e:	6e23      	ldr	r3, [r4, #96]	; 0x60
 8005120:	2200      	movs	r2, #0
 8005122:	f043 0320 	orr.w	r3, r3, #32
 8005126:	6623      	str	r3, [r4, #96]	; 0x60
 8005128:	f884 205c 	strb.w	r2, [r4, #92]	; 0x5c
 800512c:	2003      	movs	r0, #3
 800512e:	bd70      	pop	{r4, r5, r6, pc}
 8005130:	f7fe fa0e 	bl	8003550 <HAL_GetTick>
 8005134:	1b80      	subs	r0, r0, r6
 8005136:	4285      	cmp	r5, r0
 8005138:	6823      	ldr	r3, [r4, #0]
 800513a:	d9d9      	bls.n	80050f0 <SPI_EndRxTxTransaction+0x44>
 800513c:	689a      	ldr	r2, [r3, #8]
 800513e:	0612      	lsls	r2, r2, #24
 8005140:	d4f6      	bmi.n	8005130 <SPI_EndRxTxTransaction+0x84>
 8005142:	e006      	b.n	8005152 <SPI_EndRxTxTransaction+0xa6>
 8005144:	7b1b      	ldrb	r3, [r3, #12]
 8005146:	f7fe fa03 	bl	8003550 <HAL_GetTick>
 800514a:	1b80      	subs	r0, r0, r6
 800514c:	4285      	cmp	r5, r0
 800514e:	6823      	ldr	r3, [r4, #0]
 8005150:	d9ce      	bls.n	80050f0 <SPI_EndRxTxTransaction+0x44>
 8005152:	6898      	ldr	r0, [r3, #8]
 8005154:	f410 60c0 	ands.w	r0, r0, #1536	; 0x600
 8005158:	d1f4      	bne.n	8005144 <SPI_EndRxTxTransaction+0x98>
 800515a:	bd70      	pop	{r4, r5, r6, pc}
 800515c:	68a2      	ldr	r2, [r4, #8]
 800515e:	f5b2 4f00 	cmp.w	r2, #32768	; 0x8000
 8005162:	d002      	beq.n	800516a <SPI_EndRxTxTransaction+0xbe>
 8005164:	f5b2 6f80 	cmp.w	r2, #1024	; 0x400
 8005168:	d1ca      	bne.n	8005100 <SPI_EndRxTxTransaction+0x54>
 800516a:	681a      	ldr	r2, [r3, #0]
 800516c:	f022 0240 	bic.w	r2, r2, #64	; 0x40
 8005170:	601a      	str	r2, [r3, #0]
 8005172:	e7c5      	b.n	8005100 <SPI_EndRxTxTransaction+0x54>

08005174 <HAL_SPI_Init>:
 8005174:	2800      	cmp	r0, #0
 8005176:	d055      	beq.n	8005224 <HAL_SPI_Init+0xb0>
 8005178:	b5f0      	push	{r4, r5, r6, r7, lr}
 800517a:	f890 305d 	ldrb.w	r3, [r0, #93]	; 0x5d
 800517e:	2200      	movs	r2, #0
 8005180:	b083      	sub	sp, #12
 8005182:	4604      	mov	r4, r0
 8005184:	f003 01ff 	and.w	r1, r3, #255	; 0xff
 8005188:	6282      	str	r2, [r0, #40]	; 0x28
 800518a:	2b00      	cmp	r3, #0
 800518c:	d045      	beq.n	800521a <HAL_SPI_Init+0xa6>
 800518e:	2302      	movs	r3, #2
 8005190:	6821      	ldr	r1, [r4, #0]
 8005192:	f884 305d 	strb.w	r3, [r4, #93]	; 0x5d
 8005196:	680b      	ldr	r3, [r1, #0]
 8005198:	68e6      	ldr	r6, [r4, #12]
 800519a:	6b22      	ldr	r2, [r4, #48]	; 0x30
 800519c:	f023 0340 	bic.w	r3, r3, #64	; 0x40
 80051a0:	f5b6 6fe0 	cmp.w	r6, #1792	; 0x700
 80051a4:	600b      	str	r3, [r1, #0]
 80051a6:	d931      	bls.n	800520c <HAL_SPI_Init+0x98>
 80051a8:	f5b6 6f70 	cmp.w	r6, #3840	; 0xf00
 80051ac:	d13c      	bne.n	8005228 <HAL_SPI_Init+0xb4>
 80051ae:	6aa0      	ldr	r0, [r4, #40]	; 0x28
 80051b0:	2a00      	cmp	r2, #0
 80051b2:	d03e      	beq.n	8005232 <HAL_SPI_Init+0xbe>
 80051b4:	f04f 0c00 	mov.w	ip, #0
 80051b8:	68a2      	ldr	r2, [r4, #8]
 80051ba:	6863      	ldr	r3, [r4, #4]
 80051bc:	6927      	ldr	r7, [r4, #16]
 80051be:	4313      	orrs	r3, r2
 80051c0:	6a62      	ldr	r2, [r4, #36]	; 0x24
 80051c2:	9201      	str	r2, [sp, #4]
 80051c4:	6962      	ldr	r2, [r4, #20]
 80051c6:	433b      	orrs	r3, r7
 80051c8:	4313      	orrs	r3, r2
 80051ca:	e9d4 7506 	ldrd	r7, r5, [r4, #24]
 80051ce:	9a01      	ldr	r2, [sp, #4]
 80051d0:	4332      	orrs	r2, r6
 80051d2:	6a26      	ldr	r6, [r4, #32]
 80051d4:	432b      	orrs	r3, r5
 80051d6:	6b65      	ldr	r5, [r4, #52]	; 0x34
 80051d8:	4333      	orrs	r3, r6
 80051da:	f407 7600 	and.w	r6, r7, #512	; 0x200
 80051de:	0c3f      	lsrs	r7, r7, #16
 80051e0:	f007 0704 	and.w	r7, r7, #4
 80051e4:	4315      	orrs	r5, r2
 80051e6:	4333      	orrs	r3, r6
 80051e8:	433d      	orrs	r5, r7
 80051ea:	4303      	orrs	r3, r0
 80051ec:	ea45 050c 	orr.w	r5, r5, ip
 80051f0:	600b      	str	r3, [r1, #0]
 80051f2:	604d      	str	r5, [r1, #4]
 80051f4:	69cb      	ldr	r3, [r1, #28]
 80051f6:	2200      	movs	r2, #0
 80051f8:	f423 6300 	bic.w	r3, r3, #2048	; 0x800
 80051fc:	2501      	movs	r5, #1
 80051fe:	4610      	mov	r0, r2
 8005200:	61cb      	str	r3, [r1, #28]
 8005202:	6622      	str	r2, [r4, #96]	; 0x60
 8005204:	f884 505d 	strb.w	r5, [r4, #93]	; 0x5d
 8005208:	b003      	add	sp, #12
 800520a:	bdf0      	pop	{r4, r5, r6, r7, pc}
 800520c:	d014      	beq.n	8005238 <HAL_SPI_Init+0xc4>
 800520e:	2000      	movs	r0, #0
 8005210:	62a0      	str	r0, [r4, #40]	; 0x28
 8005212:	b1aa      	cbz	r2, 8005240 <HAL_SPI_Init+0xcc>
 8005214:	f44f 5c80 	mov.w	ip, #4096	; 0x1000
 8005218:	e7ce      	b.n	80051b8 <HAL_SPI_Init+0x44>
 800521a:	f880 105c 	strb.w	r1, [r0, #92]	; 0x5c
 800521e:	f7fd faa1 	bl	8002764 <HAL_SPI_MspInit>
 8005222:	e7b4      	b.n	800518e <HAL_SPI_Init+0x1a>
 8005224:	2001      	movs	r0, #1
 8005226:	4770      	bx	lr
 8005228:	2000      	movs	r0, #0
 800522a:	62a0      	str	r0, [r4, #40]	; 0x28
 800522c:	2a00      	cmp	r2, #0
 800522e:	d1c1      	bne.n	80051b4 <HAL_SPI_Init+0x40>
 8005230:	4610      	mov	r0, r2
 8005232:	2302      	movs	r3, #2
 8005234:	6323      	str	r3, [r4, #48]	; 0x30
 8005236:	e7bd      	b.n	80051b4 <HAL_SPI_Init+0x40>
 8005238:	6aa0      	ldr	r0, [r4, #40]	; 0x28
 800523a:	2a00      	cmp	r2, #0
 800523c:	d1ea      	bne.n	8005214 <HAL_SPI_Init+0xa0>
 800523e:	4602      	mov	r2, r0
 8005240:	2301      	movs	r3, #1
 8005242:	4610      	mov	r0, r2
 8005244:	6323      	str	r3, [r4, #48]	; 0x30
 8005246:	f44f 5c80 	mov.w	ip, #4096	; 0x1000
 800524a:	e7b5      	b.n	80051b8 <HAL_SPI_Init+0x44>

0800524c <HAL_SPI_TransmitReceive>:
 800524c:	e92d 41f0 	stmdb	sp!, {r4, r5, r6, r7, r8, lr}
 8005250:	f890 405c 	ldrb.w	r4, [r0, #92]	; 0x5c
 8005254:	2c01      	cmp	r4, #1
 8005256:	f000 8092 	beq.w	800537e <HAL_SPI_TransmitReceive+0x132>
 800525a:	461e      	mov	r6, r3
 800525c:	2301      	movs	r3, #1
 800525e:	f880 305c 	strb.w	r3, [r0, #92]	; 0x5c
 8005262:	4604      	mov	r4, r0
 8005264:	4617      	mov	r7, r2
 8005266:	460d      	mov	r5, r1
 8005268:	f7fe f972 	bl	8003550 <HAL_GetTick>
 800526c:	4680      	mov	r8, r0
 800526e:	f894 005d 	ldrb.w	r0, [r4, #93]	; 0x5d
 8005272:	6863      	ldr	r3, [r4, #4]
 8005274:	b2c0      	uxtb	r0, r0
 8005276:	2801      	cmp	r0, #1
 8005278:	d010      	beq.n	800529c <HAL_SPI_TransmitReceive+0x50>
 800527a:	f5b3 7f82 	cmp.w	r3, #260	; 0x104
 800527e:	d008      	beq.n	8005292 <HAL_SPI_TransmitReceive+0x46>
 8005280:	2002      	movs	r0, #2
 8005282:	2201      	movs	r2, #1
 8005284:	2300      	movs	r3, #0
 8005286:	f884 205d 	strb.w	r2, [r4, #93]	; 0x5d
 800528a:	f884 305c 	strb.w	r3, [r4, #92]	; 0x5c
 800528e:	e8bd 81f0 	ldmia.w	sp!, {r4, r5, r6, r7, r8, pc}
 8005292:	68a2      	ldr	r2, [r4, #8]
 8005294:	2a00      	cmp	r2, #0
 8005296:	d1f3      	bne.n	8005280 <HAL_SPI_TransmitReceive+0x34>
 8005298:	2804      	cmp	r0, #4
 800529a:	d1f1      	bne.n	8005280 <HAL_SPI_TransmitReceive+0x34>
 800529c:	2d00      	cmp	r5, #0
 800529e:	d071      	beq.n	8005384 <HAL_SPI_TransmitReceive+0x138>
 80052a0:	2f00      	cmp	r7, #0
 80052a2:	d06f      	beq.n	8005384 <HAL_SPI_TransmitReceive+0x138>
 80052a4:	2e00      	cmp	r6, #0
 80052a6:	d06d      	beq.n	8005384 <HAL_SPI_TransmitReceive+0x138>
 80052a8:	f894 205d 	ldrb.w	r2, [r4, #93]	; 0x5d
 80052ac:	68e1      	ldr	r1, [r4, #12]
 80052ae:	6427      	str	r7, [r4, #64]	; 0x40
 80052b0:	2a04      	cmp	r2, #4
 80052b2:	bf1c      	itt	ne
 80052b4:	2205      	movne	r2, #5
 80052b6:	f884 205d 	strbne.w	r2, [r4, #93]	; 0x5d
 80052ba:	2200      	movs	r2, #0
 80052bc:	6622      	str	r2, [r4, #96]	; 0x60
 80052be:	e9c4 2213 	strd	r2, r2, [r4, #76]	; 0x4c
 80052c2:	6822      	ldr	r2, [r4, #0]
 80052c4:	f8a4 6046 	strh.w	r6, [r4, #70]	; 0x46
 80052c8:	f5b1 6fe0 	cmp.w	r1, #1792	; 0x700
 80052cc:	87e6      	strh	r6, [r4, #62]	; 0x3e
 80052ce:	f8a4 6044 	strh.w	r6, [r4, #68]	; 0x44
 80052d2:	63a5      	str	r5, [r4, #56]	; 0x38
 80052d4:	87a6      	strh	r6, [r4, #60]	; 0x3c
 80052d6:	6851      	ldr	r1, [r2, #4]
 80052d8:	d856      	bhi.n	8005388 <HAL_SPI_TransmitReceive+0x13c>
 80052da:	2e01      	cmp	r6, #1
 80052dc:	f240 8105 	bls.w	80054ea <HAL_SPI_TransmitReceive+0x29e>
 80052e0:	f421 5180 	bic.w	r1, r1, #4096	; 0x1000
 80052e4:	6051      	str	r1, [r2, #4]
 80052e6:	6811      	ldr	r1, [r2, #0]
 80052e8:	0649      	lsls	r1, r1, #25
 80052ea:	f140 8104 	bpl.w	80054f6 <HAL_SPI_TransmitReceive+0x2aa>
 80052ee:	b95b      	cbnz	r3, 8005308 <HAL_SPI_TransmitReceive+0xbc>
 80052f0:	8fe3      	ldrh	r3, [r4, #62]	; 0x3e
 80052f2:	2b01      	cmp	r3, #1
 80052f4:	f240 8116 	bls.w	8005524 <HAL_SPI_TransmitReceive+0x2d8>
 80052f8:	f835 3b02 	ldrh.w	r3, [r5], #2
 80052fc:	60d3      	str	r3, [r2, #12]
 80052fe:	8fe3      	ldrh	r3, [r4, #62]	; 0x3e
 8005300:	63a5      	str	r5, [r4, #56]	; 0x38
 8005302:	3b02      	subs	r3, #2
 8005304:	b29b      	uxth	r3, r3
 8005306:	87e3      	strh	r3, [r4, #62]	; 0x3e
 8005308:	2501      	movs	r5, #1
 800530a:	8fe3      	ldrh	r3, [r4, #62]	; 0x3e
 800530c:	b29b      	uxth	r3, r3
 800530e:	b923      	cbnz	r3, 800531a <HAL_SPI_TransmitReceive+0xce>
 8005310:	f8b4 3046 	ldrh.w	r3, [r4, #70]	; 0x46
 8005314:	b29b      	uxth	r3, r3
 8005316:	2b00      	cmp	r3, #0
 8005318:	d07c      	beq.n	8005414 <HAL_SPI_TransmitReceive+0x1c8>
 800531a:	6823      	ldr	r3, [r4, #0]
 800531c:	689a      	ldr	r2, [r3, #8]
 800531e:	0797      	lsls	r7, r2, #30
 8005320:	d505      	bpl.n	800532e <HAL_SPI_TransmitReceive+0xe2>
 8005322:	8fe2      	ldrh	r2, [r4, #62]	; 0x3e
 8005324:	b292      	uxth	r2, r2
 8005326:	b112      	cbz	r2, 800532e <HAL_SPI_TransmitReceive+0xe2>
 8005328:	2d00      	cmp	r5, #0
 800532a:	f040 80c1 	bne.w	80054b0 <HAL_SPI_TransmitReceive+0x264>
 800532e:	689a      	ldr	r2, [r3, #8]
 8005330:	07d6      	lsls	r6, r2, #31
 8005332:	d519      	bpl.n	8005368 <HAL_SPI_TransmitReceive+0x11c>
 8005334:	f8b4 2046 	ldrh.w	r2, [r4, #70]	; 0x46
 8005338:	b292      	uxth	r2, r2
 800533a:	b1aa      	cbz	r2, 8005368 <HAL_SPI_TransmitReceive+0x11c>
 800533c:	f8b4 1046 	ldrh.w	r1, [r4, #70]	; 0x46
 8005340:	6c22      	ldr	r2, [r4, #64]	; 0x40
 8005342:	2901      	cmp	r1, #1
 8005344:	f240 80a7 	bls.w	8005496 <HAL_SPI_TransmitReceive+0x24a>
 8005348:	68d9      	ldr	r1, [r3, #12]
 800534a:	f822 1b02 	strh.w	r1, [r2], #2
 800534e:	f8b4 1046 	ldrh.w	r1, [r4, #70]	; 0x46
 8005352:	6422      	str	r2, [r4, #64]	; 0x40
 8005354:	1e8a      	subs	r2, r1, #2
 8005356:	b292      	uxth	r2, r2
 8005358:	f8a4 2046 	strh.w	r2, [r4, #70]	; 0x46
 800535c:	f8b4 2046 	ldrh.w	r2, [r4, #70]	; 0x46
 8005360:	2a01      	cmp	r2, #1
 8005362:	f240 80bc 	bls.w	80054de <HAL_SPI_TransmitReceive+0x292>
 8005366:	2501      	movs	r5, #1
 8005368:	f7fe f8f2 	bl	8003550 <HAL_GetTick>
 800536c:	9b06      	ldr	r3, [sp, #24]
 800536e:	eba0 0008 	sub.w	r0, r0, r8
 8005372:	4283      	cmp	r3, r0
 8005374:	d8c9      	bhi.n	800530a <HAL_SPI_TransmitReceive+0xbe>
 8005376:	3301      	adds	r3, #1
 8005378:	d0c7      	beq.n	800530a <HAL_SPI_TransmitReceive+0xbe>
 800537a:	2003      	movs	r0, #3
 800537c:	e781      	b.n	8005282 <HAL_SPI_TransmitReceive+0x36>
 800537e:	2002      	movs	r0, #2
 8005380:	e8bd 81f0 	ldmia.w	sp!, {r4, r5, r6, r7, r8, pc}
 8005384:	2001      	movs	r0, #1
 8005386:	e77c      	b.n	8005282 <HAL_SPI_TransmitReceive+0x36>
 8005388:	f421 5180 	bic.w	r1, r1, #4096	; 0x1000
 800538c:	6051      	str	r1, [r2, #4]
 800538e:	6811      	ldr	r1, [r2, #0]
 8005390:	0648      	lsls	r0, r1, #25
 8005392:	d403      	bmi.n	800539c <HAL_SPI_TransmitReceive+0x150>
 8005394:	6811      	ldr	r1, [r2, #0]
 8005396:	f041 0140 	orr.w	r1, r1, #64	; 0x40
 800539a:	6011      	str	r1, [r2, #0]
 800539c:	2b00      	cmp	r3, #0
 800539e:	f000 8095 	beq.w	80054cc <HAL_SPI_TransmitReceive+0x280>
 80053a2:	2e01      	cmp	r6, #1
 80053a4:	f000 8092 	beq.w	80054cc <HAL_SPI_TransmitReceive+0x280>
 80053a8:	9b06      	ldr	r3, [sp, #24]
 80053aa:	3301      	adds	r3, #1
 80053ac:	f04f 0501 	mov.w	r5, #1
 80053b0:	d027      	beq.n	8005402 <HAL_SPI_TransmitReceive+0x1b6>
 80053b2:	e03b      	b.n	800542c <HAL_SPI_TransmitReceive+0x1e0>
 80053b4:	6823      	ldr	r3, [r4, #0]
 80053b6:	689a      	ldr	r2, [r3, #8]
 80053b8:	0796      	lsls	r6, r2, #30
 80053ba:	d50d      	bpl.n	80053d8 <HAL_SPI_TransmitReceive+0x18c>
 80053bc:	8fe2      	ldrh	r2, [r4, #62]	; 0x3e
 80053be:	b292      	uxth	r2, r2
 80053c0:	b152      	cbz	r2, 80053d8 <HAL_SPI_TransmitReceive+0x18c>
 80053c2:	b14d      	cbz	r5, 80053d8 <HAL_SPI_TransmitReceive+0x18c>
 80053c4:	6ba1      	ldr	r1, [r4, #56]	; 0x38
 80053c6:	f831 2b02 	ldrh.w	r2, [r1], #2
 80053ca:	60da      	str	r2, [r3, #12]
 80053cc:	8fe2      	ldrh	r2, [r4, #62]	; 0x3e
 80053ce:	63a1      	str	r1, [r4, #56]	; 0x38
 80053d0:	3a01      	subs	r2, #1
 80053d2:	b292      	uxth	r2, r2
 80053d4:	87e2      	strh	r2, [r4, #62]	; 0x3e
 80053d6:	2500      	movs	r5, #0
 80053d8:	689a      	ldr	r2, [r3, #8]
 80053da:	07d0      	lsls	r0, r2, #31
 80053dc:	d50f      	bpl.n	80053fe <HAL_SPI_TransmitReceive+0x1b2>
 80053de:	f8b4 2046 	ldrh.w	r2, [r4, #70]	; 0x46
 80053e2:	b292      	uxth	r2, r2
 80053e4:	b15a      	cbz	r2, 80053fe <HAL_SPI_TransmitReceive+0x1b2>
 80053e6:	6c22      	ldr	r2, [r4, #64]	; 0x40
 80053e8:	68db      	ldr	r3, [r3, #12]
 80053ea:	f822 3b02 	strh.w	r3, [r2], #2
 80053ee:	f8b4 3046 	ldrh.w	r3, [r4, #70]	; 0x46
 80053f2:	6422      	str	r2, [r4, #64]	; 0x40
 80053f4:	3b01      	subs	r3, #1
 80053f6:	b29b      	uxth	r3, r3
 80053f8:	f8a4 3046 	strh.w	r3, [r4, #70]	; 0x46
 80053fc:	2501      	movs	r5, #1
 80053fe:	f7fe f8a7 	bl	8003550 <HAL_GetTick>
 8005402:	8fe3      	ldrh	r3, [r4, #62]	; 0x3e
 8005404:	b29b      	uxth	r3, r3
 8005406:	2b00      	cmp	r3, #0
 8005408:	d1d4      	bne.n	80053b4 <HAL_SPI_TransmitReceive+0x168>
 800540a:	f8b4 3046 	ldrh.w	r3, [r4, #70]	; 0x46
 800540e:	b29b      	uxth	r3, r3
 8005410:	2b00      	cmp	r3, #0
 8005412:	d1cf      	bne.n	80053b4 <HAL_SPI_TransmitReceive+0x168>
 8005414:	4642      	mov	r2, r8
 8005416:	9906      	ldr	r1, [sp, #24]
 8005418:	4620      	mov	r0, r4
 800541a:	f7ff fe47 	bl	80050ac <SPI_EndRxTxTransaction>
 800541e:	2800      	cmp	r0, #0
 8005420:	f43f af2f 	beq.w	8005282 <HAL_SPI_TransmitReceive+0x36>
 8005424:	2320      	movs	r3, #32
 8005426:	6623      	str	r3, [r4, #96]	; 0x60
 8005428:	2001      	movs	r0, #1
 800542a:	e72a      	b.n	8005282 <HAL_SPI_TransmitReceive+0x36>
 800542c:	8fe3      	ldrh	r3, [r4, #62]	; 0x3e
 800542e:	b29b      	uxth	r3, r3
 8005430:	b923      	cbnz	r3, 800543c <HAL_SPI_TransmitReceive+0x1f0>
 8005432:	f8b4 3046 	ldrh.w	r3, [r4, #70]	; 0x46
 8005436:	b29b      	uxth	r3, r3
 8005438:	2b00      	cmp	r3, #0
 800543a:	d0eb      	beq.n	8005414 <HAL_SPI_TransmitReceive+0x1c8>
 800543c:	6823      	ldr	r3, [r4, #0]
 800543e:	689a      	ldr	r2, [r3, #8]
 8005440:	0791      	lsls	r1, r2, #30
 8005442:	d50d      	bpl.n	8005460 <HAL_SPI_TransmitReceive+0x214>
 8005444:	8fe2      	ldrh	r2, [r4, #62]	; 0x3e
 8005446:	b292      	uxth	r2, r2
 8005448:	b152      	cbz	r2, 8005460 <HAL_SPI_TransmitReceive+0x214>
 800544a:	b14d      	cbz	r5, 8005460 <HAL_SPI_TransmitReceive+0x214>
 800544c:	6ba1      	ldr	r1, [r4, #56]	; 0x38
 800544e:	f831 2b02 	ldrh.w	r2, [r1], #2
 8005452:	60da      	str	r2, [r3, #12]
 8005454:	8fe2      	ldrh	r2, [r4, #62]	; 0x3e
 8005456:	63a1      	str	r1, [r4, #56]	; 0x38
 8005458:	3a01      	subs	r2, #1
 800545a:	b292      	uxth	r2, r2
 800545c:	87e2      	strh	r2, [r4, #62]	; 0x3e
 800545e:	2500      	movs	r5, #0
 8005460:	689a      	ldr	r2, [r3, #8]
 8005462:	07d2      	lsls	r2, r2, #31
 8005464:	d50f      	bpl.n	8005486 <HAL_SPI_TransmitReceive+0x23a>
 8005466:	f8b4 2046 	ldrh.w	r2, [r4, #70]	; 0x46
 800546a:	b292      	uxth	r2, r2
 800546c:	b15a      	cbz	r2, 8005486 <HAL_SPI_TransmitReceive+0x23a>
 800546e:	6c22      	ldr	r2, [r4, #64]	; 0x40
 8005470:	68db      	ldr	r3, [r3, #12]
 8005472:	f822 3b02 	strh.w	r3, [r2], #2
 8005476:	f8b4 3046 	ldrh.w	r3, [r4, #70]	; 0x46
 800547a:	6422      	str	r2, [r4, #64]	; 0x40
 800547c:	3b01      	subs	r3, #1
 800547e:	b29b      	uxth	r3, r3
 8005480:	f8a4 3046 	strh.w	r3, [r4, #70]	; 0x46
 8005484:	2501      	movs	r5, #1
 8005486:	f7fe f863 	bl	8003550 <HAL_GetTick>
 800548a:	9b06      	ldr	r3, [sp, #24]
 800548c:	eba0 0008 	sub.w	r0, r0, r8
 8005490:	4283      	cmp	r3, r0
 8005492:	d8cb      	bhi.n	800542c <HAL_SPI_TransmitReceive+0x1e0>
 8005494:	e771      	b.n	800537a <HAL_SPI_TransmitReceive+0x12e>
 8005496:	7b1b      	ldrb	r3, [r3, #12]
 8005498:	7013      	strb	r3, [r2, #0]
 800549a:	f8b4 3046 	ldrh.w	r3, [r4, #70]	; 0x46
 800549e:	6c22      	ldr	r2, [r4, #64]	; 0x40
 80054a0:	3b01      	subs	r3, #1
 80054a2:	b29b      	uxth	r3, r3
 80054a4:	3201      	adds	r2, #1
 80054a6:	f8a4 3046 	strh.w	r3, [r4, #70]	; 0x46
 80054aa:	6422      	str	r2, [r4, #64]	; 0x40
 80054ac:	2501      	movs	r5, #1
 80054ae:	e75b      	b.n	8005368 <HAL_SPI_TransmitReceive+0x11c>
 80054b0:	8fe1      	ldrh	r1, [r4, #62]	; 0x3e
 80054b2:	6ba2      	ldr	r2, [r4, #56]	; 0x38
 80054b4:	2901      	cmp	r1, #1
 80054b6:	d929      	bls.n	800550c <HAL_SPI_TransmitReceive+0x2c0>
 80054b8:	f832 1b02 	ldrh.w	r1, [r2], #2
 80054bc:	60d9      	str	r1, [r3, #12]
 80054be:	8fe1      	ldrh	r1, [r4, #62]	; 0x3e
 80054c0:	63a2      	str	r2, [r4, #56]	; 0x38
 80054c2:	1e8a      	subs	r2, r1, #2
 80054c4:	b292      	uxth	r2, r2
 80054c6:	2500      	movs	r5, #0
 80054c8:	87e2      	strh	r2, [r4, #62]	; 0x3e
 80054ca:	e730      	b.n	800532e <HAL_SPI_TransmitReceive+0xe2>
 80054cc:	f835 3b02 	ldrh.w	r3, [r5], #2
 80054d0:	60d3      	str	r3, [r2, #12]
 80054d2:	8fe3      	ldrh	r3, [r4, #62]	; 0x3e
 80054d4:	63a5      	str	r5, [r4, #56]	; 0x38
 80054d6:	3b01      	subs	r3, #1
 80054d8:	b29b      	uxth	r3, r3
 80054da:	87e3      	strh	r3, [r4, #62]	; 0x3e
 80054dc:	e764      	b.n	80053a8 <HAL_SPI_TransmitReceive+0x15c>
 80054de:	685a      	ldr	r2, [r3, #4]
 80054e0:	f442 5280 	orr.w	r2, r2, #4096	; 0x1000
 80054e4:	605a      	str	r2, [r3, #4]
 80054e6:	2501      	movs	r5, #1
 80054e8:	e73e      	b.n	8005368 <HAL_SPI_TransmitReceive+0x11c>
 80054ea:	f441 5180 	orr.w	r1, r1, #4096	; 0x1000
 80054ee:	6051      	str	r1, [r2, #4]
 80054f0:	6811      	ldr	r1, [r2, #0]
 80054f2:	064f      	lsls	r7, r1, #25
 80054f4:	d403      	bmi.n	80054fe <HAL_SPI_TransmitReceive+0x2b2>
 80054f6:	6811      	ldr	r1, [r2, #0]
 80054f8:	f041 0140 	orr.w	r1, r1, #64	; 0x40
 80054fc:	6011      	str	r1, [r2, #0]
 80054fe:	2b00      	cmp	r3, #0
 8005500:	f43f aef6 	beq.w	80052f0 <HAL_SPI_TransmitReceive+0xa4>
 8005504:	2e01      	cmp	r6, #1
 8005506:	f43f aef3 	beq.w	80052f0 <HAL_SPI_TransmitReceive+0xa4>
 800550a:	e6fd      	b.n	8005308 <HAL_SPI_TransmitReceive+0xbc>
 800550c:	7812      	ldrb	r2, [r2, #0]
 800550e:	731a      	strb	r2, [r3, #12]
 8005510:	8fe2      	ldrh	r2, [r4, #62]	; 0x3e
 8005512:	6ba1      	ldr	r1, [r4, #56]	; 0x38
 8005514:	6823      	ldr	r3, [r4, #0]
 8005516:	3a01      	subs	r2, #1
 8005518:	b292      	uxth	r2, r2
 800551a:	3101      	adds	r1, #1
 800551c:	87e2      	strh	r2, [r4, #62]	; 0x3e
 800551e:	63a1      	str	r1, [r4, #56]	; 0x38
 8005520:	2500      	movs	r5, #0
 8005522:	e704      	b.n	800532e <HAL_SPI_TransmitReceive+0xe2>
 8005524:	782b      	ldrb	r3, [r5, #0]
 8005526:	7313      	strb	r3, [r2, #12]
 8005528:	8fe3      	ldrh	r3, [r4, #62]	; 0x3e
 800552a:	6ba2      	ldr	r2, [r4, #56]	; 0x38
 800552c:	3b01      	subs	r3, #1
 800552e:	b29b      	uxth	r3, r3
 8005530:	3201      	adds	r2, #1
 8005532:	87e3      	strh	r3, [r4, #62]	; 0x3e
 8005534:	63a2      	str	r2, [r4, #56]	; 0x38
 8005536:	e6e7      	b.n	8005308 <HAL_SPI_TransmitReceive+0xbc>

08005538 <HAL_TIM_Base_Init>:
 8005538:	2800      	cmp	r0, #0
 800553a:	d06b      	beq.n	8005614 <HAL_TIM_Base_Init+0xdc>
 800553c:	b5f8      	push	{r3, r4, r5, r6, r7, lr}
 800553e:	f890 303d 	ldrb.w	r3, [r0, #61]	; 0x3d
 8005542:	4604      	mov	r4, r0
 8005544:	f003 02ff 	and.w	r2, r3, #255	; 0xff
 8005548:	b363      	cbz	r3, 80055a4 <HAL_TIM_Base_Init+0x6c>
 800554a:	6822      	ldr	r2, [r4, #0]
 800554c:	4e3b      	ldr	r6, [pc, #236]	; (800563c <HAL_TIM_Base_Init+0x104>)
 800554e:	69a5      	ldr	r5, [r4, #24]
 8005550:	68e0      	ldr	r0, [r4, #12]
 8005552:	6861      	ldr	r1, [r4, #4]
 8005554:	2302      	movs	r3, #2
 8005556:	f884 303d 	strb.w	r3, [r4, #61]	; 0x3d
 800555a:	42b2      	cmp	r2, r6
 800555c:	6813      	ldr	r3, [r2, #0]
 800555e:	d05b      	beq.n	8005618 <HAL_TIM_Base_Init+0xe0>
 8005560:	f1b2 4f80 	cmp.w	r2, #1073741824	; 0x40000000
 8005564:	d03c      	beq.n	80055e0 <HAL_TIM_Base_Init+0xa8>
 8005566:	f5a6 3694 	sub.w	r6, r6, #75776	; 0x12800
 800556a:	42b2      	cmp	r2, r6
 800556c:	d01f      	beq.n	80055ae <HAL_TIM_Base_Init+0x76>
 800556e:	f506 6680 	add.w	r6, r6, #1024	; 0x400
 8005572:	42b2      	cmp	r2, r6
 8005574:	d01b      	beq.n	80055ae <HAL_TIM_Base_Init+0x76>
 8005576:	f506 3696 	add.w	r6, r6, #76800	; 0x12c00
 800557a:	42b2      	cmp	r2, r6
 800557c:	d017      	beq.n	80055ae <HAL_TIM_Base_Init+0x76>
 800557e:	f506 6640 	add.w	r6, r6, #3072	; 0xc00
 8005582:	42b2      	cmp	r2, r6
 8005584:	d057      	beq.n	8005636 <HAL_TIM_Base_Init+0xfe>
 8005586:	f506 6680 	add.w	r6, r6, #1024	; 0x400
 800558a:	42b2      	cmp	r2, r6
 800558c:	d053      	beq.n	8005636 <HAL_TIM_Base_Init+0xfe>
 800558e:	f506 6680 	add.w	r6, r6, #1024	; 0x400
 8005592:	42b2      	cmp	r2, r6
 8005594:	d04f      	beq.n	8005636 <HAL_TIM_Base_Init+0xfe>
 8005596:	f023 0380 	bic.w	r3, r3, #128	; 0x80
 800559a:	432b      	orrs	r3, r5
 800559c:	6013      	str	r3, [r2, #0]
 800559e:	62d0      	str	r0, [r2, #44]	; 0x2c
 80055a0:	6291      	str	r1, [r2, #40]	; 0x28
 80055a2:	e017      	b.n	80055d4 <HAL_TIM_Base_Init+0x9c>
 80055a4:	f880 203c 	strb.w	r2, [r0, #60]	; 0x3c
 80055a8:	f7fd f914 	bl	80027d4 <HAL_TIM_Base_MspInit>
 80055ac:	e7cd      	b.n	800554a <HAL_TIM_Base_Init+0x12>
 80055ae:	68a6      	ldr	r6, [r4, #8]
 80055b0:	4f23      	ldr	r7, [pc, #140]	; (8005640 <HAL_TIM_Base_Init+0x108>)
 80055b2:	f023 0370 	bic.w	r3, r3, #112	; 0x70
 80055b6:	4333      	orrs	r3, r6
 80055b8:	6926      	ldr	r6, [r4, #16]
 80055ba:	f423 7340 	bic.w	r3, r3, #768	; 0x300
 80055be:	4333      	orrs	r3, r6
 80055c0:	f023 0380 	bic.w	r3, r3, #128	; 0x80
 80055c4:	432b      	orrs	r3, r5
 80055c6:	42ba      	cmp	r2, r7
 80055c8:	6013      	str	r3, [r2, #0]
 80055ca:	62d0      	str	r0, [r2, #44]	; 0x2c
 80055cc:	6291      	str	r1, [r2, #40]	; 0x28
 80055ce:	d115      	bne.n	80055fc <HAL_TIM_Base_Init+0xc4>
 80055d0:	6963      	ldr	r3, [r4, #20]
 80055d2:	6313      	str	r3, [r2, #48]	; 0x30
 80055d4:	2301      	movs	r3, #1
 80055d6:	6153      	str	r3, [r2, #20]
 80055d8:	2000      	movs	r0, #0
 80055da:	f884 303d 	strb.w	r3, [r4, #61]	; 0x3d
 80055de:	bdf8      	pop	{r3, r4, r5, r6, r7, pc}
 80055e0:	68a7      	ldr	r7, [r4, #8]
 80055e2:	6926      	ldr	r6, [r4, #16]
 80055e4:	f023 0370 	bic.w	r3, r3, #112	; 0x70
 80055e8:	433b      	orrs	r3, r7
 80055ea:	f423 7340 	bic.w	r3, r3, #768	; 0x300
 80055ee:	4333      	orrs	r3, r6
 80055f0:	f023 0380 	bic.w	r3, r3, #128	; 0x80
 80055f4:	432b      	orrs	r3, r5
 80055f6:	6013      	str	r3, [r2, #0]
 80055f8:	62d0      	str	r0, [r2, #44]	; 0x2c
 80055fa:	6291      	str	r1, [r2, #40]	; 0x28
 80055fc:	4b11      	ldr	r3, [pc, #68]	; (8005644 <HAL_TIM_Base_Init+0x10c>)
 80055fe:	429a      	cmp	r2, r3
 8005600:	d0e6      	beq.n	80055d0 <HAL_TIM_Base_Init+0x98>
 8005602:	f503 6380 	add.w	r3, r3, #1024	; 0x400
 8005606:	429a      	cmp	r2, r3
 8005608:	d0e2      	beq.n	80055d0 <HAL_TIM_Base_Init+0x98>
 800560a:	f503 6380 	add.w	r3, r3, #1024	; 0x400
 800560e:	429a      	cmp	r2, r3
 8005610:	d1e0      	bne.n	80055d4 <HAL_TIM_Base_Init+0x9c>
 8005612:	e7dd      	b.n	80055d0 <HAL_TIM_Base_Init+0x98>
 8005614:	2001      	movs	r0, #1
 8005616:	4770      	bx	lr
 8005618:	68a7      	ldr	r7, [r4, #8]
 800561a:	6926      	ldr	r6, [r4, #16]
 800561c:	f023 0370 	bic.w	r3, r3, #112	; 0x70
 8005620:	433b      	orrs	r3, r7
 8005622:	f423 7340 	bic.w	r3, r3, #768	; 0x300
 8005626:	4333      	orrs	r3, r6
 8005628:	f023 0380 	bic.w	r3, r3, #128	; 0x80
 800562c:	432b      	orrs	r3, r5
 800562e:	6013      	str	r3, [r2, #0]
 8005630:	62d0      	str	r0, [r2, #44]	; 0x2c
 8005632:	6291      	str	r1, [r2, #40]	; 0x28
 8005634:	e7cc      	b.n	80055d0 <HAL_TIM_Base_Init+0x98>
 8005636:	6926      	ldr	r6, [r4, #16]
 8005638:	e7f3      	b.n	8005622 <HAL_TIM_Base_Init+0xea>
 800563a:	bf00      	nop
 800563c:	40012c00 	.word	0x40012c00
 8005640:	40013400 	.word	0x40013400
 8005644:	40014000 	.word	0x40014000

08005648 <HAL_TIM_PWM_MspInit>:
 8005648:	4770      	bx	lr
 800564a:	bf00      	nop

0800564c <HAL_TIM_PWM_Init>:
 800564c:	2800      	cmp	r0, #0
 800564e:	d06b      	beq.n	8005728 <HAL_TIM_PWM_Init+0xdc>
 8005650:	b5f8      	push	{r3, r4, r5, r6, r7, lr}
 8005652:	f890 303d 	ldrb.w	r3, [r0, #61]	; 0x3d
 8005656:	4604      	mov	r4, r0
 8005658:	f003 02ff 	and.w	r2, r3, #255	; 0xff
 800565c:	b363      	cbz	r3, 80056b8 <HAL_TIM_PWM_Init+0x6c>
 800565e:	6822      	ldr	r2, [r4, #0]
 8005660:	4e3b      	ldr	r6, [pc, #236]	; (8005750 <HAL_TIM_PWM_Init+0x104>)
 8005662:	69a5      	ldr	r5, [r4, #24]
 8005664:	68e0      	ldr	r0, [r4, #12]
 8005666:	6861      	ldr	r1, [r4, #4]
 8005668:	2302      	movs	r3, #2
 800566a:	f884 303d 	strb.w	r3, [r4, #61]	; 0x3d
 800566e:	42b2      	cmp	r2, r6
 8005670:	6813      	ldr	r3, [r2, #0]
 8005672:	d05b      	beq.n	800572c <HAL_TIM_PWM_Init+0xe0>
 8005674:	f1b2 4f80 	cmp.w	r2, #1073741824	; 0x40000000
 8005678:	d03c      	beq.n	80056f4 <HAL_TIM_PWM_Init+0xa8>
 800567a:	f5a6 3694 	sub.w	r6, r6, #75776	; 0x12800
 800567e:	42b2      	cmp	r2, r6
 8005680:	d01f      	beq.n	80056c2 <HAL_TIM_PWM_Init+0x76>
 8005682:	f506 6680 	add.w	r6, r6, #1024	; 0x400
 8005686:	42b2      	cmp	r2, r6
 8005688:	d01b      	beq.n	80056c2 <HAL_TIM_PWM_Init+0x76>
 800568a:	f506 3696 	add.w	r6, r6, #76800	; 0x12c00
 800568e:	42b2      	cmp	r2, r6
 8005690:	d017      	beq.n	80056c2 <HAL_TIM_PWM_Init+0x76>
 8005692:	f506 6640 	add.w	r6, r6, #3072	; 0xc00
 8005696:	42b2      	cmp	r2, r6
 8005698:	d057      	beq.n	800574a <HAL_TIM_PWM_Init+0xfe>
 800569a:	f506 6680 	add.w	r6, r6, #1024	; 0x400
 800569e:	42b2      	cmp	r2, r6
 80056a0:	d053      	beq.n	800574a <HAL_TIM_PWM_Init+0xfe>
 80056a2:	f506 6680 	add.w	r6, r6, #1024	; 0x400
 80056a6:	42b2      	cmp	r2, r6
 80056a8:	d04f      	beq.n	800574a <HAL_TIM_PWM_Init+0xfe>
 80056aa:	f023 0380 	bic.w	r3, r3, #128	; 0x80
 80056ae:	432b      	orrs	r3, r5
 80056b0:	6013      	str	r3, [r2, #0]
 80056b2:	62d0      	str	r0, [r2, #44]	; 0x2c
 80056b4:	6291      	str	r1, [r2, #40]	; 0x28
 80056b6:	e017      	b.n	80056e8 <HAL_TIM_PWM_Init+0x9c>
 80056b8:	f880 203c 	strb.w	r2, [r0, #60]	; 0x3c
 80056bc:	f7ff ffc4 	bl	8005648 <HAL_TIM_PWM_MspInit>
 80056c0:	e7cd      	b.n	800565e <HAL_TIM_PWM_Init+0x12>
 80056c2:	68a6      	ldr	r6, [r4, #8]
 80056c4:	4f23      	ldr	r7, [pc, #140]	; (8005754 <HAL_TIM_PWM_Init+0x108>)
 80056c6:	f023 0370 	bic.w	r3, r3, #112	; 0x70
 80056ca:	4333      	orrs	r3, r6
 80056cc:	6926      	ldr	r6, [r4, #16]
 80056ce:	f423 7340 	bic.w	r3, r3, #768	; 0x300
 80056d2:	4333      	orrs	r3, r6
 80056d4:	f023 0380 	bic.w	r3, r3, #128	; 0x80
 80056d8:	432b      	orrs	r3, r5
 80056da:	42ba      	cmp	r2, r7
 80056dc:	6013      	str	r3, [r2, #0]
 80056de:	62d0      	str	r0, [r2, #44]	; 0x2c
 80056e0:	6291      	str	r1, [r2, #40]	; 0x28
 80056e2:	d115      	bne.n	8005710 <HAL_TIM_PWM_Init+0xc4>
 80056e4:	6963      	ldr	r3, [r4, #20]
 80056e6:	6313      	str	r3, [r2, #48]	; 0x30
 80056e8:	2301      	movs	r3, #1
 80056ea:	6153      	str	r3, [r2, #20]
 80056ec:	2000      	movs	r0, #0
 80056ee:	f884 303d 	strb.w	r3, [r4, #61]	; 0x3d
 80056f2:	bdf8      	pop	{r3, r4, r5, r6, r7, pc}
 80056f4:	68a7      	ldr	r7, [r4, #8]
 80056f6:	6926      	ldr	r6, [r4, #16]
 80056f8:	f023 0370 	bic.w	r3, r3, #112	; 0x70
 80056fc:	433b      	orrs	r3, r7
 80056fe:	f423 7340 	bic.w	r3, r3, #768	; 0x300
 8005702:	4333      	orrs	r3, r6
 8005704:	f023 0380 	bic.w	r3, r3, #128	; 0x80
 8005708:	432b      	orrs	r3, r5
 800570a:	6013      	str	r3, [r2, #0]
 800570c:	62d0      	str	r0, [r2, #44]	; 0x2c
 800570e:	6291      	str	r1, [r2, #40]	; 0x28
 8005710:	4b11      	ldr	r3, [pc, #68]	; (8005758 <HAL_TIM_PWM_Init+0x10c>)
 8005712:	429a      	cmp	r2, r3
 8005714:	d0e6      	beq.n	80056e4 <HAL_TIM_PWM_Init+0x98>
 8005716:	f503 6380 	add.w	r3, r3, #1024	; 0x400
 800571a:	429a      	cmp	r2, r3
 800571c:	d0e2      	beq.n	80056e4 <HAL_TIM_PWM_Init+0x98>
 800571e:	f503 6380 	add.w	r3, r3, #1024	; 0x400
 8005722:	429a      	cmp	r2, r3
 8005724:	d1e0      	bne.n	80056e8 <HAL_TIM_PWM_Init+0x9c>
 8005726:	e7dd      	b.n	80056e4 <HAL_TIM_PWM_Init+0x98>
 8005728:	2001      	movs	r0, #1
 800572a:	4770      	bx	lr
 800572c:	68a7      	ldr	r7, [r4, #8]
 800572e:	6926      	ldr	r6, [r4, #16]
 8005730:	f023 0370 	bic.w	r3, r3, #112	; 0x70
 8005734:	433b      	orrs	r3, r7
 8005736:	f423 7340 	bic.w	r3, r3, #768	; 0x300
 800573a:	4333      	orrs	r3, r6
 800573c:	f023 0380 	bic.w	r3, r3, #128	; 0x80
 8005740:	432b      	orrs	r3, r5
 8005742:	6013      	str	r3, [r2, #0]
 8005744:	62d0      	str	r0, [r2, #44]	; 0x2c
 8005746:	6291      	str	r1, [r2, #40]	; 0x28
 8005748:	e7cc      	b.n	80056e4 <HAL_TIM_PWM_Init+0x98>
 800574a:	6926      	ldr	r6, [r4, #16]
 800574c:	e7f3      	b.n	8005736 <HAL_TIM_PWM_Init+0xea>
 800574e:	bf00      	nop
 8005750:	40012c00 	.word	0x40012c00
 8005754:	40013400 	.word	0x40013400
 8005758:	40014000 	.word	0x40014000

0800575c <HAL_TIM_IC_MspInit>:
 800575c:	4770      	bx	lr
 800575e:	bf00      	nop

08005760 <HAL_TIM_IC_Init>:
 8005760:	2800      	cmp	r0, #0
 8005762:	d06b      	beq.n	800583c <HAL_TIM_IC_Init+0xdc>
 8005764:	b5f8      	push	{r3, r4, r5, r6, r7, lr}
 8005766:	f890 303d 	ldrb.w	r3, [r0, #61]	; 0x3d
 800576a:	4604      	mov	r4, r0
 800576c:	f003 02ff 	and.w	r2, r3, #255	; 0xff
 8005770:	b363      	cbz	r3, 80057cc <HAL_TIM_IC_Init+0x6c>
 8005772:	6822      	ldr	r2, [r4, #0]
 8005774:	4e3b      	ldr	r6, [pc, #236]	; (8005864 <HAL_TIM_IC_Init+0x104>)
 8005776:	69a5      	ldr	r5, [r4, #24]
 8005778:	68e0      	ldr	r0, [r4, #12]
 800577a:	6861      	ldr	r1, [r4, #4]
 800577c:	2302      	movs	r3, #2
 800577e:	f884 303d 	strb.w	r3, [r4, #61]	; 0x3d
 8005782:	42b2      	cmp	r2, r6
 8005784:	6813      	ldr	r3, [r2, #0]
 8005786:	d05b      	beq.n	8005840 <HAL_TIM_IC_Init+0xe0>
 8005788:	f1b2 4f80 	cmp.w	r2, #1073741824	; 0x40000000
 800578c:	d03c      	beq.n	8005808 <HAL_TIM_IC_Init+0xa8>
 800578e:	f5a6 3694 	sub.w	r6, r6, #75776	; 0x12800
 8005792:	42b2      	cmp	r2, r6
 8005794:	d01f      	beq.n	80057d6 <HAL_TIM_IC_Init+0x76>
 8005796:	f506 6680 	add.w	r6, r6, #1024	; 0x400
 800579a:	42b2      	cmp	r2, r6
 800579c:	d01b      	beq.n	80057d6 <HAL_TIM_IC_Init+0x76>
 800579e:	f506 3696 	add.w	r6, r6, #76800	; 0x12c00
 80057a2:	42b2      	cmp	r2, r6
 80057a4:	d017      	beq.n	80057d6 <HAL_TIM_IC_Init+0x76>
 80057a6:	f506 6640 	add.w	r6, r6, #3072	; 0xc00
 80057aa:	42b2      	cmp	r2, r6
 80057ac:	d057      	beq.n	800585e <HAL_TIM_IC_Init+0xfe>
 80057ae:	f506 6680 	add.w	r6, r6, #1024	; 0x400
 80057b2:	42b2      	cmp	r2, r6
 80057b4:	d053      	beq.n	800585e <HAL_TIM_IC_Init+0xfe>
 80057b6:	f506 6680 	add.w	r6, r6, #1024	; 0x400
 80057ba:	42b2      	cmp	r2, r6
 80057bc:	d04f      	beq.n	800585e <HAL_TIM_IC_Init+0xfe>
 80057be:	f023 0380 	bic.w	r3, r3, #128	; 0x80
 80057c2:	432b      	orrs	r3, r5
 80057c4:	6013      	str	r3, [r2, #0]
 80057c6:	62d0      	str	r0, [r2, #44]	; 0x2c
 80057c8:	6291      	str	r1, [r2, #40]	; 0x28
 80057ca:	e017      	b.n	80057fc <HAL_TIM_IC_Init+0x9c>
 80057cc:	f880 203c 	strb.w	r2, [r0, #60]	; 0x3c
 80057d0:	f7ff ffc4 	bl	800575c <HAL_TIM_IC_MspInit>
 80057d4:	e7cd      	b.n	8005772 <HAL_TIM_IC_Init+0x12>
 80057d6:	68a6      	ldr	r6, [r4, #8]
 80057d8:	4f23      	ldr	r7, [pc, #140]	; (8005868 <HAL_TIM_IC_Init+0x108>)
 80057da:	f023 0370 	bic.w	r3, r3, #112	; 0x70
 80057de:	4333      	orrs	r3, r6
 80057e0:	6926      	ldr	r6, [r4, #16]
 80057e2:	f423 7340 	bic.w	r3, r3, #768	; 0x300
 80057e6:	4333      	orrs	r3, r6
 80057e8:	f023 0380 	bic.w	r3, r3, #128	; 0x80
 80057ec:	432b      	orrs	r3, r5
 80057ee:	42ba      	cmp	r2, r7
 80057f0:	6013      	str	r3, [r2, #0]
 80057f2:	62d0      	str	r0, [r2, #44]	; 0x2c
 80057f4:	6291      	str	r1, [r2, #40]	; 0x28
 80057f6:	d115      	bne.n	8005824 <HAL_TIM_IC_Init+0xc4>
 80057f8:	6963      	ldr	r3, [r4, #20]
 80057fa:	6313      	str	r3, [r2, #48]	; 0x30
 80057fc:	2301      	movs	r3, #1
 80057fe:	6153      	str	r3, [r2, #20]
 8005800:	2000      	movs	r0, #0
 8005802:	f884 303d 	strb.w	r3, [r4, #61]	; 0x3d
 8005806:	bdf8      	pop	{r3, r4, r5, r6, r7, pc}
 8005808:	68a7      	ldr	r7, [r4, #8]
 800580a:	6926      	ldr	r6, [r4, #16]
 800580c:	f023 0370 	bic.w	r3, r3, #112	; 0x70
 8005810:	433b      	orrs	r3, r7
 8005812:	f423 7340 	bic.w	r3, r3, #768	; 0x300
 8005816:	4333      	orrs	r3, r6
 8005818:	f023 0380 	bic.w	r3, r3, #128	; 0x80
 800581c:	432b      	orrs	r3, r5
 800581e:	6013      	str	r3, [r2, #0]
 8005820:	62d0      	str	r0, [r2, #44]	; 0x2c
 8005822:	6291      	str	r1, [r2, #40]	; 0x28
 8005824:	4b11      	ldr	r3, [pc, #68]	; (800586c <HAL_TIM_IC_Init+0x10c>)
 8005826:	429a      	cmp	r2, r3
 8005828:	d0e6      	beq.n	80057f8 <HAL_TIM_IC_Init+0x98>
 800582a:	f503 6380 	add.w	r3, r3, #1024	; 0x400
 800582e:	429a      	cmp	r2, r3
 8005830:	d0e2      	beq.n	80057f8 <HAL_TIM_IC_Init+0x98>
 8005832:	f503 6380 	add.w	r3, r3, #1024	; 0x400
 8005836:	429a      	cmp	r2, r3
 8005838:	d1e0      	bne.n	80057fc <HAL_TIM_IC_Init+0x9c>
 800583a:	e7dd      	b.n	80057f8 <HAL_TIM_IC_Init+0x98>
 800583c:	2001      	movs	r0, #1
 800583e:	4770      	bx	lr
 8005840:	68a7      	ldr	r7, [r4, #8]
 8005842:	6926      	ldr	r6, [r4, #16]
 8005844:	f023 0370 	bic.w	r3, r3, #112	; 0x70
 8005848:	433b      	orrs	r3, r7
 800584a:	f423 7340 	bic.w	r3, r3, #768	; 0x300
 800584e:	4333      	orrs	r3, r6
 8005850:	f023 0380 	bic.w	r3, r3, #128	; 0x80
 8005854:	432b      	orrs	r3, r5
 8005856:	6013      	str	r3, [r2, #0]
 8005858:	62d0      	str	r0, [r2, #44]	; 0x2c
 800585a:	6291      	str	r1, [r2, #40]	; 0x28
 800585c:	e7cc      	b.n	80057f8 <HAL_TIM_IC_Init+0x98>
 800585e:	6926      	ldr	r6, [r4, #16]
 8005860:	e7f3      	b.n	800584a <HAL_TIM_IC_Init+0xea>
 8005862:	bf00      	nop
 8005864:	40012c00 	.word	0x40012c00
 8005868:	40013400 	.word	0x40013400
 800586c:	40014000 	.word	0x40014000

08005870 <HAL_TIM_IC_ConfigChannel>:
 8005870:	f890 303c 	ldrb.w	r3, [r0, #60]	; 0x3c
 8005874:	2b01      	cmp	r3, #1
 8005876:	f000 8095 	beq.w	80059a4 <HAL_TIM_IC_ConfigChannel+0x134>
 800587a:	b4f0      	push	{r4, r5, r6, r7}
 800587c:	2302      	movs	r3, #2
 800587e:	2401      	movs	r4, #1
 8005880:	f880 403c 	strb.w	r4, [r0, #60]	; 0x3c
 8005884:	f880 303d 	strb.w	r3, [r0, #61]	; 0x3d
 8005888:	e9d1 5700 	ldrd	r5, r7, [r1]
 800588c:	6803      	ldr	r3, [r0, #0]
 800588e:	e9d1 6402 	ldrd	r6, r4, [r1, #8]
 8005892:	b372      	cbz	r2, 80058f2 <HAL_TIM_IC_ConfigChannel+0x82>
 8005894:	2a04      	cmp	r2, #4
 8005896:	d063      	beq.n	8005960 <HAL_TIM_IC_ConfigChannel+0xf0>
 8005898:	2a08      	cmp	r2, #8
 800589a:	6a1a      	ldr	r2, [r3, #32]
 800589c:	f000 8084 	beq.w	80059a8 <HAL_TIM_IC_ConfigChannel+0x138>
 80058a0:	f422 5280 	bic.w	r2, r2, #4096	; 0x1000
 80058a4:	621a      	str	r2, [r3, #32]
 80058a6:	69d9      	ldr	r1, [r3, #28]
 80058a8:	f8d3 c020 	ldr.w	ip, [r3, #32]
 80058ac:	f421 7140 	bic.w	r1, r1, #768	; 0x300
 80058b0:	0324      	lsls	r4, r4, #12
 80058b2:	032a      	lsls	r2, r5, #12
 80058b4:	ea41 2107 	orr.w	r1, r1, r7, lsl #8
 80058b8:	b2a4      	uxth	r4, r4
 80058ba:	f402 4220 	and.w	r2, r2, #40960	; 0xa000
 80058be:	f421 4170 	bic.w	r1, r1, #61440	; 0xf000
 80058c2:	f42c 4c20 	bic.w	ip, ip, #40960	; 0xa000
 80058c6:	ea42 020c 	orr.w	r2, r2, ip
 80058ca:	430c      	orrs	r4, r1
 80058cc:	61dc      	str	r4, [r3, #28]
 80058ce:	621a      	str	r2, [r3, #32]
 80058d0:	69da      	ldr	r2, [r3, #28]
 80058d2:	f422 6240 	bic.w	r2, r2, #3072	; 0xc00
 80058d6:	61da      	str	r2, [r3, #28]
 80058d8:	69da      	ldr	r2, [r3, #28]
 80058da:	ea42 2606 	orr.w	r6, r2, r6, lsl #8
 80058de:	61de      	str	r6, [r3, #28]
 80058e0:	2300      	movs	r3, #0
 80058e2:	2201      	movs	r2, #1
 80058e4:	f880 203d 	strb.w	r2, [r0, #61]	; 0x3d
 80058e8:	f880 303c 	strb.w	r3, [r0, #60]	; 0x3c
 80058ec:	bcf0      	pop	{r4, r5, r6, r7}
 80058ee:	4618      	mov	r0, r3
 80058f0:	4770      	bx	lr
 80058f2:	6a1a      	ldr	r2, [r3, #32]
 80058f4:	f8df c0f0 	ldr.w	ip, [pc, #240]	; 80059e8 <HAL_TIM_IC_ConfigChannel+0x178>
 80058f8:	f022 0201 	bic.w	r2, r2, #1
 80058fc:	621a      	str	r2, [r3, #32]
 80058fe:	4563      	cmp	r3, ip
 8005900:	6999      	ldr	r1, [r3, #24]
 8005902:	6a1a      	ldr	r2, [r3, #32]
 8005904:	d015      	beq.n	8005932 <HAL_TIM_IC_ConfigChannel+0xc2>
 8005906:	f1b3 4f80 	cmp.w	r3, #1073741824	; 0x40000000
 800590a:	d012      	beq.n	8005932 <HAL_TIM_IC_ConfigChannel+0xc2>
 800590c:	f5ac 3c94 	sub.w	ip, ip, #75776	; 0x12800
 8005910:	4563      	cmp	r3, ip
 8005912:	d00e      	beq.n	8005932 <HAL_TIM_IC_ConfigChannel+0xc2>
 8005914:	f50c 6c80 	add.w	ip, ip, #1024	; 0x400
 8005918:	4563      	cmp	r3, ip
 800591a:	d00a      	beq.n	8005932 <HAL_TIM_IC_ConfigChannel+0xc2>
 800591c:	f50c 3c96 	add.w	ip, ip, #76800	; 0x12c00
 8005920:	4563      	cmp	r3, ip
 8005922:	d006      	beq.n	8005932 <HAL_TIM_IC_ConfigChannel+0xc2>
 8005924:	f50c 6c40 	add.w	ip, ip, #3072	; 0xc00
 8005928:	4563      	cmp	r3, ip
 800592a:	d002      	beq.n	8005932 <HAL_TIM_IC_ConfigChannel+0xc2>
 800592c:	f041 0101 	orr.w	r1, r1, #1
 8005930:	e002      	b.n	8005938 <HAL_TIM_IC_ConfigChannel+0xc8>
 8005932:	f021 0103 	bic.w	r1, r1, #3
 8005936:	4339      	orrs	r1, r7
 8005938:	0124      	lsls	r4, r4, #4
 800593a:	f022 070a 	bic.w	r7, r2, #10
 800593e:	b2e4      	uxtb	r4, r4
 8005940:	f021 01f0 	bic.w	r1, r1, #240	; 0xf0
 8005944:	f005 020a 	and.w	r2, r5, #10
 8005948:	433a      	orrs	r2, r7
 800594a:	4321      	orrs	r1, r4
 800594c:	6199      	str	r1, [r3, #24]
 800594e:	621a      	str	r2, [r3, #32]
 8005950:	699a      	ldr	r2, [r3, #24]
 8005952:	f022 020c 	bic.w	r2, r2, #12
 8005956:	619a      	str	r2, [r3, #24]
 8005958:	699a      	ldr	r2, [r3, #24]
 800595a:	4316      	orrs	r6, r2
 800595c:	619e      	str	r6, [r3, #24]
 800595e:	e7bf      	b.n	80058e0 <HAL_TIM_IC_ConfigChannel+0x70>
 8005960:	6a1a      	ldr	r2, [r3, #32]
 8005962:	f022 0210 	bic.w	r2, r2, #16
 8005966:	621a      	str	r2, [r3, #32]
 8005968:	6999      	ldr	r1, [r3, #24]
 800596a:	f8d3 c020 	ldr.w	ip, [r3, #32]
 800596e:	f421 7140 	bic.w	r1, r1, #768	; 0x300
 8005972:	0324      	lsls	r4, r4, #12
 8005974:	012a      	lsls	r2, r5, #4
 8005976:	ea41 2107 	orr.w	r1, r1, r7, lsl #8
 800597a:	b2a4      	uxth	r4, r4
 800597c:	f002 02a0 	and.w	r2, r2, #160	; 0xa0
 8005980:	f421 4170 	bic.w	r1, r1, #61440	; 0xf000
 8005984:	f02c 0ca0 	bic.w	ip, ip, #160	; 0xa0
 8005988:	ea42 020c 	orr.w	r2, r2, ip
 800598c:	4321      	orrs	r1, r4
 800598e:	6199      	str	r1, [r3, #24]
 8005990:	621a      	str	r2, [r3, #32]
 8005992:	699a      	ldr	r2, [r3, #24]
 8005994:	f422 6240 	bic.w	r2, r2, #3072	; 0xc00
 8005998:	619a      	str	r2, [r3, #24]
 800599a:	699a      	ldr	r2, [r3, #24]
 800599c:	ea42 2606 	orr.w	r6, r2, r6, lsl #8
 80059a0:	619e      	str	r6, [r3, #24]
 80059a2:	e79d      	b.n	80058e0 <HAL_TIM_IC_ConfigChannel+0x70>
 80059a4:	2002      	movs	r0, #2
 80059a6:	4770      	bx	lr
 80059a8:	f422 7280 	bic.w	r2, r2, #256	; 0x100
 80059ac:	621a      	str	r2, [r3, #32]
 80059ae:	69d9      	ldr	r1, [r3, #28]
 80059b0:	f8d3 c020 	ldr.w	ip, [r3, #32]
 80059b4:	f021 0103 	bic.w	r1, r1, #3
 80059b8:	0124      	lsls	r4, r4, #4
 80059ba:	022a      	lsls	r2, r5, #8
 80059bc:	4339      	orrs	r1, r7
 80059be:	b2e4      	uxtb	r4, r4
 80059c0:	f402 6220 	and.w	r2, r2, #2560	; 0xa00
 80059c4:	f021 01f0 	bic.w	r1, r1, #240	; 0xf0
 80059c8:	f42c 6c20 	bic.w	ip, ip, #2560	; 0xa00
 80059cc:	ea42 020c 	orr.w	r2, r2, ip
 80059d0:	4321      	orrs	r1, r4
 80059d2:	61d9      	str	r1, [r3, #28]
 80059d4:	621a      	str	r2, [r3, #32]
 80059d6:	69da      	ldr	r2, [r3, #28]
 80059d8:	f022 020c 	bic.w	r2, r2, #12
 80059dc:	61da      	str	r2, [r3, #28]
 80059de:	69da      	ldr	r2, [r3, #28]
 80059e0:	4316      	orrs	r6, r2
 80059e2:	61de      	str	r6, [r3, #28]
 80059e4:	e77c      	b.n	80058e0 <HAL_TIM_IC_ConfigChannel+0x70>
 80059e6:	bf00      	nop
 80059e8:	40012c00 	.word	0x40012c00

080059ec <HAL_TIM_PWM_ConfigChannel>:
 80059ec:	f890 303c 	ldrb.w	r3, [r0, #60]	; 0x3c
 80059f0:	2b01      	cmp	r3, #1
 80059f2:	f000 81ae 	beq.w	8005d52 <HAL_TIM_PWM_ConfigChannel+0x366>
 80059f6:	b4f0      	push	{r4, r5, r6, r7}
 80059f8:	2302      	movs	r3, #2
 80059fa:	2401      	movs	r4, #1
 80059fc:	f880 403c 	strb.w	r4, [r0, #60]	; 0x3c
 8005a00:	f880 303d 	strb.w	r3, [r0, #61]	; 0x3d
 8005a04:	2a14      	cmp	r2, #20
 8005a06:	d854      	bhi.n	8005ab2 <HAL_TIM_PWM_ConfigChannel+0xc6>
 8005a08:	e8df f012 	tbh	[pc, r2, lsl #1]
 8005a0c:	00530015 	.word	0x00530015
 8005a10:	00530053 	.word	0x00530053
 8005a14:	0053009c 	.word	0x0053009c
 8005a18:	00530053 	.word	0x00530053
 8005a1c:	00530162 	.word	0x00530162
 8005a20:	00530053 	.word	0x00530053
 8005a24:	005300e0 	.word	0x005300e0
 8005a28:	00530053 	.word	0x00530053
 8005a2c:	00530120 	.word	0x00530120
 8005a30:	00530053 	.word	0x00530053
 8005a34:	005c      	.short	0x005c
 8005a36:	6803      	ldr	r3, [r0, #0]
 8005a38:	f8d1 c008 	ldr.w	ip, [r1, #8]
 8005a3c:	6a1d      	ldr	r5, [r3, #32]
 8005a3e:	680f      	ldr	r7, [r1, #0]
 8005a40:	4ea2      	ldr	r6, [pc, #648]	; (8005ccc <HAL_TIM_PWM_ConfigChannel+0x2e0>)
 8005a42:	f025 0501 	bic.w	r5, r5, #1
 8005a46:	621d      	str	r5, [r3, #32]
 8005a48:	6a1a      	ldr	r2, [r3, #32]
 8005a4a:	685d      	ldr	r5, [r3, #4]
 8005a4c:	699c      	ldr	r4, [r3, #24]
 8005a4e:	f424 3480 	bic.w	r4, r4, #65536	; 0x10000
 8005a52:	f022 0202 	bic.w	r2, r2, #2
 8005a56:	f024 0473 	bic.w	r4, r4, #115	; 0x73
 8005a5a:	42b3      	cmp	r3, r6
 8005a5c:	ea42 020c 	orr.w	r2, r2, ip
 8005a60:	ea44 0407 	orr.w	r4, r4, r7
 8005a64:	d008      	beq.n	8005a78 <HAL_TIM_PWM_ConfigChannel+0x8c>
 8005a66:	f506 6600 	add.w	r6, r6, #2048	; 0x800
 8005a6a:	42b3      	cmp	r3, r6
 8005a6c:	d004      	beq.n	8005a78 <HAL_TIM_PWM_ConfigChannel+0x8c>
 8005a6e:	f506 6640 	add.w	r6, r6, #3072	; 0xc00
 8005a72:	42b3      	cmp	r3, r6
 8005a74:	f040 817f 	bne.w	8005d76 <HAL_TIM_PWM_ConfigChannel+0x38a>
 8005a78:	68ce      	ldr	r6, [r1, #12]
 8005a7a:	f022 0208 	bic.w	r2, r2, #8
 8005a7e:	4332      	orrs	r2, r6
 8005a80:	e9d1 6705 	ldrd	r6, r7, [r1, #20]
 8005a84:	f425 7540 	bic.w	r5, r5, #768	; 0x300
 8005a88:	433e      	orrs	r6, r7
 8005a8a:	f022 0204 	bic.w	r2, r2, #4
 8005a8e:	4335      	orrs	r5, r6
 8005a90:	684e      	ldr	r6, [r1, #4]
 8005a92:	605d      	str	r5, [r3, #4]
 8005a94:	619c      	str	r4, [r3, #24]
 8005a96:	635e      	str	r6, [r3, #52]	; 0x34
 8005a98:	621a      	str	r2, [r3, #32]
 8005a9a:	699c      	ldr	r4, [r3, #24]
 8005a9c:	690d      	ldr	r5, [r1, #16]
 8005a9e:	f044 0408 	orr.w	r4, r4, #8
 8005aa2:	619c      	str	r4, [r3, #24]
 8005aa4:	6999      	ldr	r1, [r3, #24]
 8005aa6:	f021 0104 	bic.w	r1, r1, #4
 8005aaa:	6199      	str	r1, [r3, #24]
 8005aac:	699a      	ldr	r2, [r3, #24]
 8005aae:	432a      	orrs	r2, r5
 8005ab0:	619a      	str	r2, [r3, #24]
 8005ab2:	2300      	movs	r3, #0
 8005ab4:	2201      	movs	r2, #1
 8005ab6:	f880 203d 	strb.w	r2, [r0, #61]	; 0x3d
 8005aba:	f880 303c 	strb.w	r3, [r0, #60]	; 0x3c
 8005abe:	bcf0      	pop	{r4, r5, r6, r7}
 8005ac0:	4618      	mov	r0, r3
 8005ac2:	4770      	bx	lr
 8005ac4:	6803      	ldr	r3, [r0, #0]
 8005ac6:	f8d1 c008 	ldr.w	ip, [r1, #8]
 8005aca:	6a1d      	ldr	r5, [r3, #32]
 8005acc:	680f      	ldr	r7, [r1, #0]
 8005ace:	4e7f      	ldr	r6, [pc, #508]	; (8005ccc <HAL_TIM_PWM_ConfigChannel+0x2e0>)
 8005ad0:	f425 1580 	bic.w	r5, r5, #1048576	; 0x100000
 8005ad4:	621d      	str	r5, [r3, #32]
 8005ad6:	6a1c      	ldr	r4, [r3, #32]
 8005ad8:	685d      	ldr	r5, [r3, #4]
 8005ada:	6d5a      	ldr	r2, [r3, #84]	; 0x54
 8005adc:	f022 7280 	bic.w	r2, r2, #16777216	; 0x1000000
 8005ae0:	f424 1400 	bic.w	r4, r4, #2097152	; 0x200000
 8005ae4:	f422 42e0 	bic.w	r2, r2, #28672	; 0x7000
 8005ae8:	42b3      	cmp	r3, r6
 8005aea:	ea44 540c 	orr.w	r4, r4, ip, lsl #20
 8005aee:	ea42 2207 	orr.w	r2, r2, r7, lsl #8
 8005af2:	d00f      	beq.n	8005b14 <HAL_TIM_PWM_ConfigChannel+0x128>
 8005af4:	f506 6600 	add.w	r6, r6, #2048	; 0x800
 8005af8:	42b3      	cmp	r3, r6
 8005afa:	d00b      	beq.n	8005b14 <HAL_TIM_PWM_ConfigChannel+0x128>
 8005afc:	f506 6640 	add.w	r6, r6, #3072	; 0xc00
 8005b00:	42b3      	cmp	r3, r6
 8005b02:	d007      	beq.n	8005b14 <HAL_TIM_PWM_ConfigChannel+0x128>
 8005b04:	f506 6680 	add.w	r6, r6, #1024	; 0x400
 8005b08:	42b3      	cmp	r3, r6
 8005b0a:	d003      	beq.n	8005b14 <HAL_TIM_PWM_ConfigChannel+0x128>
 8005b0c:	f506 6680 	add.w	r6, r6, #1024	; 0x400
 8005b10:	42b3      	cmp	r3, r6
 8005b12:	d104      	bne.n	8005b1e <HAL_TIM_PWM_ConfigChannel+0x132>
 8005b14:	694e      	ldr	r6, [r1, #20]
 8005b16:	f425 2580 	bic.w	r5, r5, #262144	; 0x40000
 8005b1a:	ea45 2586 	orr.w	r5, r5, r6, lsl #10
 8005b1e:	684e      	ldr	r6, [r1, #4]
 8005b20:	605d      	str	r5, [r3, #4]
 8005b22:	655a      	str	r2, [r3, #84]	; 0x54
 8005b24:	65de      	str	r6, [r3, #92]	; 0x5c
 8005b26:	621c      	str	r4, [r3, #32]
 8005b28:	6d5c      	ldr	r4, [r3, #84]	; 0x54
 8005b2a:	690d      	ldr	r5, [r1, #16]
 8005b2c:	f444 6400 	orr.w	r4, r4, #2048	; 0x800
 8005b30:	655c      	str	r4, [r3, #84]	; 0x54
 8005b32:	6d59      	ldr	r1, [r3, #84]	; 0x54
 8005b34:	f421 6180 	bic.w	r1, r1, #1024	; 0x400
 8005b38:	6559      	str	r1, [r3, #84]	; 0x54
 8005b3a:	6d5a      	ldr	r2, [r3, #84]	; 0x54
 8005b3c:	ea42 2205 	orr.w	r2, r2, r5, lsl #8
 8005b40:	655a      	str	r2, [r3, #84]	; 0x54
 8005b42:	e7b6      	b.n	8005ab2 <HAL_TIM_PWM_ConfigChannel+0xc6>
 8005b44:	6803      	ldr	r3, [r0, #0]
 8005b46:	f8d1 c008 	ldr.w	ip, [r1, #8]
 8005b4a:	6a1d      	ldr	r5, [r3, #32]
 8005b4c:	680f      	ldr	r7, [r1, #0]
 8005b4e:	4e5f      	ldr	r6, [pc, #380]	; (8005ccc <HAL_TIM_PWM_ConfigChannel+0x2e0>)
 8005b50:	f025 0510 	bic.w	r5, r5, #16
 8005b54:	621d      	str	r5, [r3, #32]
 8005b56:	6a1c      	ldr	r4, [r3, #32]
 8005b58:	685d      	ldr	r5, [r3, #4]
 8005b5a:	699a      	ldr	r2, [r3, #24]
 8005b5c:	f022 7280 	bic.w	r2, r2, #16777216	; 0x1000000
 8005b60:	f024 0420 	bic.w	r4, r4, #32
 8005b64:	f422 42e6 	bic.w	r2, r2, #29440	; 0x7300
 8005b68:	42b3      	cmp	r3, r6
 8005b6a:	ea44 140c 	orr.w	r4, r4, ip, lsl #4
 8005b6e:	ea42 2207 	orr.w	r2, r2, r7, lsl #8
 8005b72:	f000 80f0 	beq.w	8005d56 <HAL_TIM_PWM_ConfigChannel+0x36a>
 8005b76:	f506 6600 	add.w	r6, r6, #2048	; 0x800
 8005b7a:	42b3      	cmp	r3, r6
 8005b7c:	f000 80eb 	beq.w	8005d56 <HAL_TIM_PWM_ConfigChannel+0x36a>
 8005b80:	f506 6640 	add.w	r6, r6, #3072	; 0xc00
 8005b84:	42b3      	cmp	r3, r6
 8005b86:	d007      	beq.n	8005b98 <HAL_TIM_PWM_ConfigChannel+0x1ac>
 8005b88:	f506 6680 	add.w	r6, r6, #1024	; 0x400
 8005b8c:	42b3      	cmp	r3, r6
 8005b8e:	d003      	beq.n	8005b98 <HAL_TIM_PWM_ConfigChannel+0x1ac>
 8005b90:	f506 6680 	add.w	r6, r6, #1024	; 0x400
 8005b94:	42b3      	cmp	r3, r6
 8005b96:	d106      	bne.n	8005ba6 <HAL_TIM_PWM_ConfigChannel+0x1ba>
 8005b98:	e9d1 6705 	ldrd	r6, r7, [r1, #20]
 8005b9c:	f425 6540 	bic.w	r5, r5, #3072	; 0xc00
 8005ba0:	433e      	orrs	r6, r7
 8005ba2:	ea45 0586 	orr.w	r5, r5, r6, lsl #2
 8005ba6:	684e      	ldr	r6, [r1, #4]
 8005ba8:	605d      	str	r5, [r3, #4]
 8005baa:	619a      	str	r2, [r3, #24]
 8005bac:	639e      	str	r6, [r3, #56]	; 0x38
 8005bae:	621c      	str	r4, [r3, #32]
 8005bb0:	699c      	ldr	r4, [r3, #24]
 8005bb2:	690d      	ldr	r5, [r1, #16]
 8005bb4:	f444 6400 	orr.w	r4, r4, #2048	; 0x800
 8005bb8:	619c      	str	r4, [r3, #24]
 8005bba:	6999      	ldr	r1, [r3, #24]
 8005bbc:	f421 6180 	bic.w	r1, r1, #1024	; 0x400
 8005bc0:	6199      	str	r1, [r3, #24]
 8005bc2:	699a      	ldr	r2, [r3, #24]
 8005bc4:	ea42 2205 	orr.w	r2, r2, r5, lsl #8
 8005bc8:	619a      	str	r2, [r3, #24]
 8005bca:	e772      	b.n	8005ab2 <HAL_TIM_PWM_ConfigChannel+0xc6>
 8005bcc:	6803      	ldr	r3, [r0, #0]
 8005bce:	f8d1 c008 	ldr.w	ip, [r1, #8]
 8005bd2:	6a1d      	ldr	r5, [r3, #32]
 8005bd4:	680f      	ldr	r7, [r1, #0]
 8005bd6:	4e3d      	ldr	r6, [pc, #244]	; (8005ccc <HAL_TIM_PWM_ConfigChannel+0x2e0>)
 8005bd8:	f425 5580 	bic.w	r5, r5, #4096	; 0x1000
 8005bdc:	621d      	str	r5, [r3, #32]
 8005bde:	6a1c      	ldr	r4, [r3, #32]
 8005be0:	685d      	ldr	r5, [r3, #4]
 8005be2:	69da      	ldr	r2, [r3, #28]
 8005be4:	f022 7280 	bic.w	r2, r2, #16777216	; 0x1000000
 8005be8:	f424 5400 	bic.w	r4, r4, #8192	; 0x2000
 8005bec:	f422 42e6 	bic.w	r2, r2, #29440	; 0x7300
 8005bf0:	42b3      	cmp	r3, r6
 8005bf2:	ea44 340c 	orr.w	r4, r4, ip, lsl #12
 8005bf6:	ea42 2207 	orr.w	r2, r2, r7, lsl #8
 8005bfa:	d00f      	beq.n	8005c1c <HAL_TIM_PWM_ConfigChannel+0x230>
 8005bfc:	f506 6600 	add.w	r6, r6, #2048	; 0x800
 8005c00:	42b3      	cmp	r3, r6
 8005c02:	d00b      	beq.n	8005c1c <HAL_TIM_PWM_ConfigChannel+0x230>
 8005c04:	f506 6640 	add.w	r6, r6, #3072	; 0xc00
 8005c08:	42b3      	cmp	r3, r6
 8005c0a:	d007      	beq.n	8005c1c <HAL_TIM_PWM_ConfigChannel+0x230>
 8005c0c:	f506 6680 	add.w	r6, r6, #1024	; 0x400
 8005c10:	42b3      	cmp	r3, r6
 8005c12:	d003      	beq.n	8005c1c <HAL_TIM_PWM_ConfigChannel+0x230>
 8005c14:	f506 6680 	add.w	r6, r6, #1024	; 0x400
 8005c18:	42b3      	cmp	r3, r6
 8005c1a:	d104      	bne.n	8005c26 <HAL_TIM_PWM_ConfigChannel+0x23a>
 8005c1c:	694e      	ldr	r6, [r1, #20]
 8005c1e:	f425 4580 	bic.w	r5, r5, #16384	; 0x4000
 8005c22:	ea45 1586 	orr.w	r5, r5, r6, lsl #6
 8005c26:	684e      	ldr	r6, [r1, #4]
 8005c28:	605d      	str	r5, [r3, #4]
 8005c2a:	61da      	str	r2, [r3, #28]
 8005c2c:	641e      	str	r6, [r3, #64]	; 0x40
 8005c2e:	621c      	str	r4, [r3, #32]
 8005c30:	69dc      	ldr	r4, [r3, #28]
 8005c32:	690d      	ldr	r5, [r1, #16]
 8005c34:	f444 6400 	orr.w	r4, r4, #2048	; 0x800
 8005c38:	61dc      	str	r4, [r3, #28]
 8005c3a:	69d9      	ldr	r1, [r3, #28]
 8005c3c:	f421 6180 	bic.w	r1, r1, #1024	; 0x400
 8005c40:	61d9      	str	r1, [r3, #28]
 8005c42:	69da      	ldr	r2, [r3, #28]
 8005c44:	ea42 2205 	orr.w	r2, r2, r5, lsl #8
 8005c48:	61da      	str	r2, [r3, #28]
 8005c4a:	e732      	b.n	8005ab2 <HAL_TIM_PWM_ConfigChannel+0xc6>
 8005c4c:	6803      	ldr	r3, [r0, #0]
 8005c4e:	f8d1 c008 	ldr.w	ip, [r1, #8]
 8005c52:	6a1d      	ldr	r5, [r3, #32]
 8005c54:	680f      	ldr	r7, [r1, #0]
 8005c56:	4e1d      	ldr	r6, [pc, #116]	; (8005ccc <HAL_TIM_PWM_ConfigChannel+0x2e0>)
 8005c58:	f425 3580 	bic.w	r5, r5, #65536	; 0x10000
 8005c5c:	621d      	str	r5, [r3, #32]
 8005c5e:	6a1c      	ldr	r4, [r3, #32]
 8005c60:	685d      	ldr	r5, [r3, #4]
 8005c62:	6d5a      	ldr	r2, [r3, #84]	; 0x54
 8005c64:	f422 3280 	bic.w	r2, r2, #65536	; 0x10000
 8005c68:	f424 3400 	bic.w	r4, r4, #131072	; 0x20000
 8005c6c:	f022 0270 	bic.w	r2, r2, #112	; 0x70
 8005c70:	42b3      	cmp	r3, r6
 8005c72:	ea44 440c 	orr.w	r4, r4, ip, lsl #16
 8005c76:	ea42 0207 	orr.w	r2, r2, r7
 8005c7a:	d00f      	beq.n	8005c9c <HAL_TIM_PWM_ConfigChannel+0x2b0>
 8005c7c:	f506 6600 	add.w	r6, r6, #2048	; 0x800
 8005c80:	42b3      	cmp	r3, r6
 8005c82:	d00b      	beq.n	8005c9c <HAL_TIM_PWM_ConfigChannel+0x2b0>
 8005c84:	f506 6640 	add.w	r6, r6, #3072	; 0xc00
 8005c88:	42b3      	cmp	r3, r6
 8005c8a:	d007      	beq.n	8005c9c <HAL_TIM_PWM_ConfigChannel+0x2b0>
 8005c8c:	f506 6680 	add.w	r6, r6, #1024	; 0x400
 8005c90:	42b3      	cmp	r3, r6
 8005c92:	d003      	beq.n	8005c9c <HAL_TIM_PWM_ConfigChannel+0x2b0>
 8005c94:	f506 6680 	add.w	r6, r6, #1024	; 0x400
 8005c98:	42b3      	cmp	r3, r6
 8005c9a:	d104      	bne.n	8005ca6 <HAL_TIM_PWM_ConfigChannel+0x2ba>
 8005c9c:	694e      	ldr	r6, [r1, #20]
 8005c9e:	f425 3580 	bic.w	r5, r5, #65536	; 0x10000
 8005ca2:	ea45 2506 	orr.w	r5, r5, r6, lsl #8
 8005ca6:	684e      	ldr	r6, [r1, #4]
 8005ca8:	605d      	str	r5, [r3, #4]
 8005caa:	655a      	str	r2, [r3, #84]	; 0x54
 8005cac:	659e      	str	r6, [r3, #88]	; 0x58
 8005cae:	621c      	str	r4, [r3, #32]
 8005cb0:	6d5c      	ldr	r4, [r3, #84]	; 0x54
 8005cb2:	690d      	ldr	r5, [r1, #16]
 8005cb4:	f044 0408 	orr.w	r4, r4, #8
 8005cb8:	655c      	str	r4, [r3, #84]	; 0x54
 8005cba:	6d59      	ldr	r1, [r3, #84]	; 0x54
 8005cbc:	f021 0104 	bic.w	r1, r1, #4
 8005cc0:	6559      	str	r1, [r3, #84]	; 0x54
 8005cc2:	6d5a      	ldr	r2, [r3, #84]	; 0x54
 8005cc4:	432a      	orrs	r2, r5
 8005cc6:	655a      	str	r2, [r3, #84]	; 0x54
 8005cc8:	e6f3      	b.n	8005ab2 <HAL_TIM_PWM_ConfigChannel+0xc6>
 8005cca:	bf00      	nop
 8005ccc:	40012c00 	.word	0x40012c00
 8005cd0:	6803      	ldr	r3, [r0, #0]
 8005cd2:	f8d1 c008 	ldr.w	ip, [r1, #8]
 8005cd6:	6a1d      	ldr	r5, [r3, #32]
 8005cd8:	680f      	ldr	r7, [r1, #0]
 8005cda:	4e2c      	ldr	r6, [pc, #176]	; (8005d8c <HAL_TIM_PWM_ConfigChannel+0x3a0>)
 8005cdc:	f425 7580 	bic.w	r5, r5, #256	; 0x100
 8005ce0:	621d      	str	r5, [r3, #32]
 8005ce2:	6a1c      	ldr	r4, [r3, #32]
 8005ce4:	685d      	ldr	r5, [r3, #4]
 8005ce6:	69da      	ldr	r2, [r3, #28]
 8005ce8:	f422 3280 	bic.w	r2, r2, #65536	; 0x10000
 8005cec:	f424 7400 	bic.w	r4, r4, #512	; 0x200
 8005cf0:	f022 0273 	bic.w	r2, r2, #115	; 0x73
 8005cf4:	42b3      	cmp	r3, r6
 8005cf6:	ea44 240c 	orr.w	r4, r4, ip, lsl #8
 8005cfa:	ea42 0207 	orr.w	r2, r2, r7
 8005cfe:	d032      	beq.n	8005d66 <HAL_TIM_PWM_ConfigChannel+0x37a>
 8005d00:	f506 6600 	add.w	r6, r6, #2048	; 0x800
 8005d04:	42b3      	cmp	r3, r6
 8005d06:	d02e      	beq.n	8005d66 <HAL_TIM_PWM_ConfigChannel+0x37a>
 8005d08:	f506 6640 	add.w	r6, r6, #3072	; 0xc00
 8005d0c:	42b3      	cmp	r3, r6
 8005d0e:	d007      	beq.n	8005d20 <HAL_TIM_PWM_ConfigChannel+0x334>
 8005d10:	f506 6680 	add.w	r6, r6, #1024	; 0x400
 8005d14:	42b3      	cmp	r3, r6
 8005d16:	d003      	beq.n	8005d20 <HAL_TIM_PWM_ConfigChannel+0x334>
 8005d18:	f506 6680 	add.w	r6, r6, #1024	; 0x400
 8005d1c:	42b3      	cmp	r3, r6
 8005d1e:	d106      	bne.n	8005d2e <HAL_TIM_PWM_ConfigChannel+0x342>
 8005d20:	e9d1 6705 	ldrd	r6, r7, [r1, #20]
 8005d24:	f425 5540 	bic.w	r5, r5, #12288	; 0x3000
 8005d28:	433e      	orrs	r6, r7
 8005d2a:	ea45 1506 	orr.w	r5, r5, r6, lsl #4
 8005d2e:	684e      	ldr	r6, [r1, #4]
 8005d30:	605d      	str	r5, [r3, #4]
 8005d32:	61da      	str	r2, [r3, #28]
 8005d34:	63de      	str	r6, [r3, #60]	; 0x3c
 8005d36:	621c      	str	r4, [r3, #32]
 8005d38:	69dc      	ldr	r4, [r3, #28]
 8005d3a:	690d      	ldr	r5, [r1, #16]
 8005d3c:	f044 0408 	orr.w	r4, r4, #8
 8005d40:	61dc      	str	r4, [r3, #28]
 8005d42:	69d9      	ldr	r1, [r3, #28]
 8005d44:	f021 0104 	bic.w	r1, r1, #4
 8005d48:	61d9      	str	r1, [r3, #28]
 8005d4a:	69da      	ldr	r2, [r3, #28]
 8005d4c:	432a      	orrs	r2, r5
 8005d4e:	61da      	str	r2, [r3, #28]
 8005d50:	e6af      	b.n	8005ab2 <HAL_TIM_PWM_ConfigChannel+0xc6>
 8005d52:	2002      	movs	r0, #2
 8005d54:	4770      	bx	lr
 8005d56:	68ce      	ldr	r6, [r1, #12]
 8005d58:	f024 0480 	bic.w	r4, r4, #128	; 0x80
 8005d5c:	ea44 1406 	orr.w	r4, r4, r6, lsl #4
 8005d60:	f024 0440 	bic.w	r4, r4, #64	; 0x40
 8005d64:	e718      	b.n	8005b98 <HAL_TIM_PWM_ConfigChannel+0x1ac>
 8005d66:	68ce      	ldr	r6, [r1, #12]
 8005d68:	f424 6400 	bic.w	r4, r4, #2048	; 0x800
 8005d6c:	ea44 2406 	orr.w	r4, r4, r6, lsl #8
 8005d70:	f424 6480 	bic.w	r4, r4, #1024	; 0x400
 8005d74:	e7d4      	b.n	8005d20 <HAL_TIM_PWM_ConfigChannel+0x334>
 8005d76:	f506 6680 	add.w	r6, r6, #1024	; 0x400
 8005d7a:	42b3      	cmp	r3, r6
 8005d7c:	f43f ae7c 	beq.w	8005a78 <HAL_TIM_PWM_ConfigChannel+0x8c>
 8005d80:	f506 6680 	add.w	r6, r6, #1024	; 0x400
 8005d84:	42b3      	cmp	r3, r6
 8005d86:	f47f ae83 	bne.w	8005a90 <HAL_TIM_PWM_ConfigChannel+0xa4>
 8005d8a:	e675      	b.n	8005a78 <HAL_TIM_PWM_ConfigChannel+0x8c>
 8005d8c:	40012c00 	.word	0x40012c00

08005d90 <HAL_TIM_SlaveConfigSynchro>:
 8005d90:	f890 303c 	ldrb.w	r3, [r0, #60]	; 0x3c
 8005d94:	2b01      	cmp	r3, #1
 8005d96:	d049      	beq.n	8005e2c <HAL_TIM_SlaveConfigSynchro+0x9c>
 8005d98:	6802      	ldr	r2, [r0, #0]
 8005d9a:	2302      	movs	r3, #2
 8005d9c:	b4f0      	push	{r4, r5, r6, r7}
 8005d9e:	f880 303d 	strb.w	r3, [r0, #61]	; 0x3d
 8005da2:	e9d1 6500 	ldrd	r6, r5, [r1]
 8005da6:	6893      	ldr	r3, [r2, #8]
 8005da8:	f023 0370 	bic.w	r3, r3, #112	; 0x70
 8005dac:	432b      	orrs	r3, r5
 8005dae:	f423 3380 	bic.w	r3, r3, #65536	; 0x10000
 8005db2:	4604      	mov	r4, r0
 8005db4:	f023 0307 	bic.w	r3, r3, #7
 8005db8:	4333      	orrs	r3, r6
 8005dba:	2001      	movs	r0, #1
 8005dbc:	2d50      	cmp	r5, #80	; 0x50
 8005dbe:	f884 003c 	strb.w	r0, [r4, #60]	; 0x3c
 8005dc2:	6093      	str	r3, [r2, #8]
 8005dc4:	d04e      	beq.n	8005e64 <HAL_TIM_SlaveConfigSynchro+0xd4>
 8005dc6:	d91f      	bls.n	8005e08 <HAL_TIM_SlaveConfigSynchro+0x78>
 8005dc8:	2d60      	cmp	r5, #96	; 0x60
 8005dca:	d038      	beq.n	8005e3e <HAL_TIM_SlaveConfigSynchro+0xae>
 8005dcc:	2d70      	cmp	r5, #112	; 0x70
 8005dce:	d10a      	bne.n	8005de6 <HAL_TIM_SlaveConfigSynchro+0x56>
 8005dd0:	e9d1 5302 	ldrd	r5, r3, [r1, #8]
 8005dd4:	6908      	ldr	r0, [r1, #16]
 8005dd6:	6891      	ldr	r1, [r2, #8]
 8005dd8:	432b      	orrs	r3, r5
 8005dda:	ea43 2300 	orr.w	r3, r3, r0, lsl #8
 8005dde:	f421 417f 	bic.w	r1, r1, #65280	; 0xff00
 8005de2:	430b      	orrs	r3, r1
 8005de4:	6093      	str	r3, [r2, #8]
 8005de6:	68d3      	ldr	r3, [r2, #12]
 8005de8:	f023 0340 	bic.w	r3, r3, #64	; 0x40
 8005dec:	60d3      	str	r3, [r2, #12]
 8005dee:	68d3      	ldr	r3, [r2, #12]
 8005df0:	2501      	movs	r5, #1
 8005df2:	2100      	movs	r1, #0
 8005df4:	f423 4380 	bic.w	r3, r3, #16384	; 0x4000
 8005df8:	60d3      	str	r3, [r2, #12]
 8005dfa:	4608      	mov	r0, r1
 8005dfc:	f884 503d 	strb.w	r5, [r4, #61]	; 0x3d
 8005e00:	f884 103c 	strb.w	r1, [r4, #60]	; 0x3c
 8005e04:	bcf0      	pop	{r4, r5, r6, r7}
 8005e06:	4770      	bx	lr
 8005e08:	2d40      	cmp	r5, #64	; 0x40
 8005e0a:	d1ec      	bne.n	8005de6 <HAL_TIM_SlaveConfigSynchro+0x56>
 8005e0c:	2e05      	cmp	r6, #5
 8005e0e:	d00f      	beq.n	8005e30 <HAL_TIM_SlaveConfigSynchro+0xa0>
 8005e10:	6a15      	ldr	r5, [r2, #32]
 8005e12:	6a10      	ldr	r0, [r2, #32]
 8005e14:	690e      	ldr	r6, [r1, #16]
 8005e16:	f020 0001 	bic.w	r0, r0, #1
 8005e1a:	6210      	str	r0, [r2, #32]
 8005e1c:	6993      	ldr	r3, [r2, #24]
 8005e1e:	f023 03f0 	bic.w	r3, r3, #240	; 0xf0
 8005e22:	ea43 1306 	orr.w	r3, r3, r6, lsl #4
 8005e26:	6193      	str	r3, [r2, #24]
 8005e28:	6215      	str	r5, [r2, #32]
 8005e2a:	e7dc      	b.n	8005de6 <HAL_TIM_SlaveConfigSynchro+0x56>
 8005e2c:	2002      	movs	r0, #2
 8005e2e:	4770      	bx	lr
 8005e30:	2300      	movs	r3, #0
 8005e32:	f884 003d 	strb.w	r0, [r4, #61]	; 0x3d
 8005e36:	f884 303c 	strb.w	r3, [r4, #60]	; 0x3c
 8005e3a:	bcf0      	pop	{r4, r5, r6, r7}
 8005e3c:	4770      	bx	lr
 8005e3e:	6a10      	ldr	r0, [r2, #32]
 8005e40:	688d      	ldr	r5, [r1, #8]
 8005e42:	690e      	ldr	r6, [r1, #16]
 8005e44:	f020 0010 	bic.w	r0, r0, #16
 8005e48:	6210      	str	r0, [r2, #32]
 8005e4a:	6991      	ldr	r1, [r2, #24]
 8005e4c:	6a13      	ldr	r3, [r2, #32]
 8005e4e:	f421 4170 	bic.w	r1, r1, #61440	; 0xf000
 8005e52:	f023 03a0 	bic.w	r3, r3, #160	; 0xa0
 8005e56:	ea41 3106 	orr.w	r1, r1, r6, lsl #12
 8005e5a:	ea43 1305 	orr.w	r3, r3, r5, lsl #4
 8005e5e:	6191      	str	r1, [r2, #24]
 8005e60:	6213      	str	r3, [r2, #32]
 8005e62:	e7c0      	b.n	8005de6 <HAL_TIM_SlaveConfigSynchro+0x56>
 8005e64:	6a15      	ldr	r5, [r2, #32]
 8005e66:	6a16      	ldr	r6, [r2, #32]
 8005e68:	6888      	ldr	r0, [r1, #8]
 8005e6a:	690f      	ldr	r7, [r1, #16]
 8005e6c:	f026 0601 	bic.w	r6, r6, #1
 8005e70:	6216      	str	r6, [r2, #32]
 8005e72:	6993      	ldr	r3, [r2, #24]
 8005e74:	f025 010a 	bic.w	r1, r5, #10
 8005e78:	f023 03f0 	bic.w	r3, r3, #240	; 0xf0
 8005e7c:	4301      	orrs	r1, r0
 8005e7e:	ea43 1307 	orr.w	r3, r3, r7, lsl #4
 8005e82:	6193      	str	r3, [r2, #24]
 8005e84:	6211      	str	r1, [r2, #32]
 8005e86:	e7ae      	b.n	8005de6 <HAL_TIM_SlaveConfigSynchro+0x56>

08005e88 <HAL_TIMEx_MasterConfigSynchronization>:
 8005e88:	f890 303c 	ldrb.w	r3, [r0, #60]	; 0x3c
 8005e8c:	2b01      	cmp	r3, #1
 8005e8e:	d043      	beq.n	8005f18 <HAL_TIMEx_MasterConfigSynchronization+0x90>
 8005e90:	b4f0      	push	{r4, r5, r6, r7}
 8005e92:	6803      	ldr	r3, [r0, #0]
 8005e94:	4c21      	ldr	r4, [pc, #132]	; (8005f1c <HAL_TIMEx_MasterConfigSynchronization+0x94>)
 8005e96:	680e      	ldr	r6, [r1, #0]
 8005e98:	2202      	movs	r2, #2
 8005e9a:	f880 203d 	strb.w	r2, [r0, #61]	; 0x3d
 8005e9e:	2501      	movs	r5, #1
 8005ea0:	42a3      	cmp	r3, r4
 8005ea2:	685a      	ldr	r2, [r3, #4]
 8005ea4:	f880 503c 	strb.w	r5, [r0, #60]	; 0x3c
 8005ea8:	689d      	ldr	r5, [r3, #8]
 8005eaa:	d023      	beq.n	8005ef4 <HAL_TIMEx_MasterConfigSynchronization+0x6c>
 8005eac:	f504 6400 	add.w	r4, r4, #2048	; 0x800
 8005eb0:	42a3      	cmp	r3, r4
 8005eb2:	d028      	beq.n	8005f06 <HAL_TIMEx_MasterConfigSynchronization+0x7e>
 8005eb4:	f022 0270 	bic.w	r2, r2, #112	; 0x70
 8005eb8:	4332      	orrs	r2, r6
 8005eba:	f1b3 4f80 	cmp.w	r3, #1073741824	; 0x40000000
 8005ebe:	605a      	str	r2, [r3, #4]
 8005ec0:	d00a      	beq.n	8005ed8 <HAL_TIMEx_MasterConfigSynchronization+0x50>
 8005ec2:	4a17      	ldr	r2, [pc, #92]	; (8005f20 <HAL_TIMEx_MasterConfigSynchronization+0x98>)
 8005ec4:	4293      	cmp	r3, r2
 8005ec6:	d007      	beq.n	8005ed8 <HAL_TIMEx_MasterConfigSynchronization+0x50>
 8005ec8:	f502 6280 	add.w	r2, r2, #1024	; 0x400
 8005ecc:	4293      	cmp	r3, r2
 8005ece:	d003      	beq.n	8005ed8 <HAL_TIMEx_MasterConfigSynchronization+0x50>
 8005ed0:	f502 329c 	add.w	r2, r2, #79872	; 0x13800
 8005ed4:	4293      	cmp	r3, r2
 8005ed6:	d104      	bne.n	8005ee2 <HAL_TIMEx_MasterConfigSynchronization+0x5a>
 8005ed8:	688a      	ldr	r2, [r1, #8]
 8005eda:	f025 0580 	bic.w	r5, r5, #128	; 0x80
 8005ede:	4315      	orrs	r5, r2
 8005ee0:	609d      	str	r5, [r3, #8]
 8005ee2:	2300      	movs	r3, #0
 8005ee4:	2201      	movs	r2, #1
 8005ee6:	f880 203d 	strb.w	r2, [r0, #61]	; 0x3d
 8005eea:	f880 303c 	strb.w	r3, [r0, #60]	; 0x3c
 8005eee:	bcf0      	pop	{r4, r5, r6, r7}
 8005ef0:	4618      	mov	r0, r3
 8005ef2:	4770      	bx	lr
 8005ef4:	684c      	ldr	r4, [r1, #4]
 8005ef6:	f422 0270 	bic.w	r2, r2, #15728640	; 0xf00000
 8005efa:	4322      	orrs	r2, r4
 8005efc:	f022 0270 	bic.w	r2, r2, #112	; 0x70
 8005f00:	4332      	orrs	r2, r6
 8005f02:	605a      	str	r2, [r3, #4]
 8005f04:	e7e8      	b.n	8005ed8 <HAL_TIMEx_MasterConfigSynchronization+0x50>
 8005f06:	684f      	ldr	r7, [r1, #4]
 8005f08:	f422 0470 	bic.w	r4, r2, #15728640	; 0xf00000
 8005f0c:	433c      	orrs	r4, r7
 8005f0e:	f024 0470 	bic.w	r4, r4, #112	; 0x70
 8005f12:	4334      	orrs	r4, r6
 8005f14:	605c      	str	r4, [r3, #4]
 8005f16:	e7df      	b.n	8005ed8 <HAL_TIMEx_MasterConfigSynchronization+0x50>
 8005f18:	2002      	movs	r0, #2
 8005f1a:	4770      	bx	lr
 8005f1c:	40012c00 	.word	0x40012c00
 8005f20:	40000400 	.word	0x40000400

08005f24 <HAL_TIMEx_ConfigBreakDeadTime>:
 8005f24:	f890 303c 	ldrb.w	r3, [r0, #60]	; 0x3c
 8005f28:	2b01      	cmp	r3, #1
 8005f2a:	d03c      	beq.n	8005fa6 <HAL_TIMEx_ConfigBreakDeadTime+0x82>
 8005f2c:	b430      	push	{r4, r5}
 8005f2e:	e9d1 5302 	ldrd	r5, r3, [r1, #8]
 8005f32:	4602      	mov	r2, r0
 8005f34:	f423 7340 	bic.w	r3, r3, #768	; 0x300
 8005f38:	e9d1 0400 	ldrd	r0, r4, [r1]
 8005f3c:	432b      	orrs	r3, r5
 8005f3e:	f423 6380 	bic.w	r3, r3, #1024	; 0x400
 8005f42:	4323      	orrs	r3, r4
 8005f44:	f423 6300 	bic.w	r3, r3, #2048	; 0x800
 8005f48:	e9d1 5404 	ldrd	r5, r4, [r1, #16]
 8005f4c:	4303      	orrs	r3, r0
 8005f4e:	f423 5380 	bic.w	r3, r3, #4096	; 0x1000
 8005f52:	432b      	orrs	r3, r5
 8005f54:	f423 5300 	bic.w	r3, r3, #8192	; 0x2000
 8005f58:	6a88      	ldr	r0, [r1, #40]	; 0x28
 8005f5a:	698d      	ldr	r5, [r1, #24]
 8005f5c:	4323      	orrs	r3, r4
 8005f5e:	f423 4380 	bic.w	r3, r3, #16384	; 0x4000
 8005f62:	4303      	orrs	r3, r0
 8005f64:	4c11      	ldr	r4, [pc, #68]	; (8005fac <HAL_TIMEx_ConfigBreakDeadTime+0x88>)
 8005f66:	6810      	ldr	r0, [r2, #0]
 8005f68:	f423 2370 	bic.w	r3, r3, #983040	; 0xf0000
 8005f6c:	42a0      	cmp	r0, r4
 8005f6e:	ea43 4305 	orr.w	r3, r3, r5, lsl #16
 8005f72:	d00a      	beq.n	8005f8a <HAL_TIMEx_ConfigBreakDeadTime+0x66>
 8005f74:	f504 6400 	add.w	r4, r4, #2048	; 0x800
 8005f78:	42a0      	cmp	r0, r4
 8005f7a:	d006      	beq.n	8005f8a <HAL_TIMEx_ConfigBreakDeadTime+0x66>
 8005f7c:	2100      	movs	r1, #0
 8005f7e:	6443      	str	r3, [r0, #68]	; 0x44
 8005f80:	bc30      	pop	{r4, r5}
 8005f82:	4608      	mov	r0, r1
 8005f84:	f882 103c 	strb.w	r1, [r2, #60]	; 0x3c
 8005f88:	4770      	bx	lr
 8005f8a:	6a4d      	ldr	r5, [r1, #36]	; 0x24
 8005f8c:	f423 0370 	bic.w	r3, r3, #15728640	; 0xf00000
 8005f90:	e9d1 4107 	ldrd	r4, r1, [r1, #28]
 8005f94:	ea43 5305 	orr.w	r3, r3, r5, lsl #20
 8005f98:	f023 7380 	bic.w	r3, r3, #16777216	; 0x1000000
 8005f9c:	4323      	orrs	r3, r4
 8005f9e:	f023 7300 	bic.w	r3, r3, #33554432	; 0x2000000
 8005fa2:	430b      	orrs	r3, r1
 8005fa4:	e7ea      	b.n	8005f7c <HAL_TIMEx_ConfigBreakDeadTime+0x58>
 8005fa6:	2002      	movs	r0, #2
 8005fa8:	4770      	bx	lr
 8005faa:	bf00      	nop
 8005fac:	40012c00 	.word	0x40012c00

08005fb0 <UART_AdvFeatureConfig>:
 8005fb0:	6a43      	ldr	r3, [r0, #36]	; 0x24
 8005fb2:	07da      	lsls	r2, r3, #31
 8005fb4:	b410      	push	{r4}
 8005fb6:	d506      	bpl.n	8005fc6 <UART_AdvFeatureConfig+0x16>
 8005fb8:	6801      	ldr	r1, [r0, #0]
 8005fba:	6a84      	ldr	r4, [r0, #40]	; 0x28
 8005fbc:	684a      	ldr	r2, [r1, #4]
 8005fbe:	f422 3200 	bic.w	r2, r2, #131072	; 0x20000
 8005fc2:	4322      	orrs	r2, r4
 8005fc4:	604a      	str	r2, [r1, #4]
 8005fc6:	079c      	lsls	r4, r3, #30
 8005fc8:	d506      	bpl.n	8005fd8 <UART_AdvFeatureConfig+0x28>
 8005fca:	6801      	ldr	r1, [r0, #0]
 8005fcc:	6ac4      	ldr	r4, [r0, #44]	; 0x2c
 8005fce:	684a      	ldr	r2, [r1, #4]
 8005fd0:	f422 3280 	bic.w	r2, r2, #65536	; 0x10000
 8005fd4:	4322      	orrs	r2, r4
 8005fd6:	604a      	str	r2, [r1, #4]
 8005fd8:	0759      	lsls	r1, r3, #29
 8005fda:	d506      	bpl.n	8005fea <UART_AdvFeatureConfig+0x3a>
 8005fdc:	6801      	ldr	r1, [r0, #0]
 8005fde:	6b04      	ldr	r4, [r0, #48]	; 0x30
 8005fe0:	684a      	ldr	r2, [r1, #4]
 8005fe2:	f422 2280 	bic.w	r2, r2, #262144	; 0x40000
 8005fe6:	4322      	orrs	r2, r4
 8005fe8:	604a      	str	r2, [r1, #4]
 8005fea:	071a      	lsls	r2, r3, #28
 8005fec:	d506      	bpl.n	8005ffc <UART_AdvFeatureConfig+0x4c>
 8005fee:	6801      	ldr	r1, [r0, #0]
 8005ff0:	6b44      	ldr	r4, [r0, #52]	; 0x34
 8005ff2:	684a      	ldr	r2, [r1, #4]
 8005ff4:	f422 4200 	bic.w	r2, r2, #32768	; 0x8000
 8005ff8:	4322      	orrs	r2, r4
 8005ffa:	604a      	str	r2, [r1, #4]
 8005ffc:	06dc      	lsls	r4, r3, #27
 8005ffe:	d506      	bpl.n	800600e <UART_AdvFeatureConfig+0x5e>
 8006000:	6801      	ldr	r1, [r0, #0]
 8006002:	6b84      	ldr	r4, [r0, #56]	; 0x38
 8006004:	688a      	ldr	r2, [r1, #8]
 8006006:	f422 5280 	bic.w	r2, r2, #4096	; 0x1000
 800600a:	4322      	orrs	r2, r4
 800600c:	608a      	str	r2, [r1, #8]
 800600e:	0699      	lsls	r1, r3, #26
 8006010:	d506      	bpl.n	8006020 <UART_AdvFeatureConfig+0x70>
 8006012:	6801      	ldr	r1, [r0, #0]
 8006014:	6bc4      	ldr	r4, [r0, #60]	; 0x3c
 8006016:	688a      	ldr	r2, [r1, #8]
 8006018:	f422 5200 	bic.w	r2, r2, #8192	; 0x2000
 800601c:	4322      	orrs	r2, r4
 800601e:	608a      	str	r2, [r1, #8]
 8006020:	065a      	lsls	r2, r3, #25
 8006022:	d509      	bpl.n	8006038 <UART_AdvFeatureConfig+0x88>
 8006024:	6801      	ldr	r1, [r0, #0]
 8006026:	6c04      	ldr	r4, [r0, #64]	; 0x40
 8006028:	684a      	ldr	r2, [r1, #4]
 800602a:	f422 1280 	bic.w	r2, r2, #1048576	; 0x100000
 800602e:	4322      	orrs	r2, r4
 8006030:	f5b4 1f80 	cmp.w	r4, #1048576	; 0x100000
 8006034:	604a      	str	r2, [r1, #4]
 8006036:	d00b      	beq.n	8006050 <UART_AdvFeatureConfig+0xa0>
 8006038:	061b      	lsls	r3, r3, #24
 800603a:	d506      	bpl.n	800604a <UART_AdvFeatureConfig+0x9a>
 800603c:	6802      	ldr	r2, [r0, #0]
 800603e:	6c81      	ldr	r1, [r0, #72]	; 0x48
 8006040:	6853      	ldr	r3, [r2, #4]
 8006042:	f423 2300 	bic.w	r3, r3, #524288	; 0x80000
 8006046:	430b      	orrs	r3, r1
 8006048:	6053      	str	r3, [r2, #4]
 800604a:	f85d 4b04 	ldr.w	r4, [sp], #4
 800604e:	4770      	bx	lr
 8006050:	684a      	ldr	r2, [r1, #4]
 8006052:	6c44      	ldr	r4, [r0, #68]	; 0x44
 8006054:	f422 02c0 	bic.w	r2, r2, #6291456	; 0x600000
 8006058:	4322      	orrs	r2, r4
 800605a:	604a      	str	r2, [r1, #4]
 800605c:	e7ec      	b.n	8006038 <UART_AdvFeatureConfig+0x88>
 800605e:	bf00      	nop

08006060 <HAL_UART_Init>:
 8006060:	2800      	cmp	r0, #0
 8006062:	d042      	beq.n	80060ea <HAL_UART_Init+0x8a>
 8006064:	6f43      	ldr	r3, [r0, #116]	; 0x74
 8006066:	b570      	push	{r4, r5, r6, lr}
 8006068:	4604      	mov	r4, r0
 800606a:	2b00      	cmp	r3, #0
 800606c:	d038      	beq.n	80060e0 <HAL_UART_Init+0x80>
 800606e:	6823      	ldr	r3, [r4, #0]
 8006070:	69e0      	ldr	r0, [r4, #28]
 8006072:	2224      	movs	r2, #36	; 0x24
 8006074:	6762      	str	r2, [r4, #116]	; 0x74
 8006076:	6819      	ldr	r1, [r3, #0]
 8006078:	68a2      	ldr	r2, [r4, #8]
 800607a:	e9d4 6504 	ldrd	r6, r5, [r4, #16]
 800607e:	f021 0101 	bic.w	r1, r1, #1
 8006082:	6019      	str	r1, [r3, #0]
 8006084:	6819      	ldr	r1, [r3, #0]
 8006086:	4332      	orrs	r2, r6
 8006088:	432a      	orrs	r2, r5
 800608a:	f421 4116 	bic.w	r1, r1, #38400	; 0x9600
 800608e:	f021 010c 	bic.w	r1, r1, #12
 8006092:	4302      	orrs	r2, r0
 8006094:	430a      	orrs	r2, r1
 8006096:	601a      	str	r2, [r3, #0]
 8006098:	6859      	ldr	r1, [r3, #4]
 800609a:	68e5      	ldr	r5, [r4, #12]
 800609c:	69a2      	ldr	r2, [r4, #24]
 800609e:	6a26      	ldr	r6, [r4, #32]
 80060a0:	f421 5140 	bic.w	r1, r1, #12288	; 0x3000
 80060a4:	4329      	orrs	r1, r5
 80060a6:	6059      	str	r1, [r3, #4]
 80060a8:	6899      	ldr	r1, [r3, #8]
 80060aa:	4dbd      	ldr	r5, [pc, #756]	; (80063a0 <HAL_UART_Init+0x340>)
 80060ac:	f421 6130 	bic.w	r1, r1, #2816	; 0xb00
 80060b0:	4332      	orrs	r2, r6
 80060b2:	430a      	orrs	r2, r1
 80060b4:	42ab      	cmp	r3, r5
 80060b6:	609a      	str	r2, [r3, #8]
 80060b8:	d019      	beq.n	80060ee <HAL_UART_Init+0x8e>
 80060ba:	4aba      	ldr	r2, [pc, #744]	; (80063a4 <HAL_UART_Init+0x344>)
 80060bc:	4293      	cmp	r3, r2
 80060be:	d037      	beq.n	8006130 <HAL_UART_Init+0xd0>
 80060c0:	4ab9      	ldr	r2, [pc, #740]	; (80063a8 <HAL_UART_Init+0x348>)
 80060c2:	4293      	cmp	r3, r2
 80060c4:	f000 80e6 	beq.w	8006294 <HAL_UART_Init+0x234>
 80060c8:	4ab8      	ldr	r2, [pc, #736]	; (80063ac <HAL_UART_Init+0x34c>)
 80060ca:	4293      	cmp	r3, r2
 80060cc:	d065      	beq.n	800619a <HAL_UART_Init+0x13a>
 80060ce:	4ab8      	ldr	r2, [pc, #736]	; (80063b0 <HAL_UART_Init+0x350>)
 80060d0:	4293      	cmp	r3, r2
 80060d2:	f000 8105 	beq.w	80062e0 <HAL_UART_Init+0x280>
 80060d6:	2300      	movs	r3, #0
 80060d8:	e9c4 3318 	strd	r3, r3, [r4, #96]	; 0x60
 80060dc:	2001      	movs	r0, #1
 80060de:	bd70      	pop	{r4, r5, r6, pc}
 80060e0:	f880 3070 	strb.w	r3, [r0, #112]	; 0x70
 80060e4:	f7fc fc1c 	bl	8002920 <HAL_UART_MspInit>
 80060e8:	e7c1      	b.n	800606e <HAL_UART_Init+0xe>
 80060ea:	2001      	movs	r0, #1
 80060ec:	4770      	bx	lr
 80060ee:	4bb1      	ldr	r3, [pc, #708]	; (80063b4 <HAL_UART_Init+0x354>)
 80060f0:	4ab1      	ldr	r2, [pc, #708]	; (80063b8 <HAL_UART_Init+0x358>)
 80060f2:	6b1b      	ldr	r3, [r3, #48]	; 0x30
 80060f4:	f003 0303 	and.w	r3, r3, #3
 80060f8:	f5b0 4f00 	cmp.w	r0, #32768	; 0x8000
 80060fc:	5cd3      	ldrb	r3, [r2, r3]
 80060fe:	f000 811a 	beq.w	8006336 <HAL_UART_Init+0x2d6>
 8006102:	2b08      	cmp	r3, #8
 8006104:	d8e7      	bhi.n	80060d6 <HAL_UART_Init+0x76>
 8006106:	a201      	add	r2, pc, #4	; (adr r2, 800610c <HAL_UART_Init+0xac>)
 8006108:	f852 f023 	ldr.w	pc, [r2, r3, lsl #2]
 800610c:	080062cf 	.word	0x080062cf
 8006110:	080061bd 	.word	0x080061bd
 8006114:	08006307 	.word	0x08006307
 8006118:	080060d7 	.word	0x080060d7
 800611c:	080062f5 	.word	0x080062f5
 8006120:	080060d7 	.word	0x080060d7
 8006124:	080060d7 	.word	0x080060d7
 8006128:	080060d7 	.word	0x080060d7
 800612c:	080062b3 	.word	0x080062b3
 8006130:	4ba0      	ldr	r3, [pc, #640]	; (80063b4 <HAL_UART_Init+0x354>)
 8006132:	6b1b      	ldr	r3, [r3, #48]	; 0x30
 8006134:	f403 3340 	and.w	r3, r3, #196608	; 0x30000
 8006138:	f5b3 3f80 	cmp.w	r3, #65536	; 0x10000
 800613c:	f000 80d7 	beq.w	80062ee <HAL_UART_Init+0x28e>
 8006140:	f240 80bf 	bls.w	80062c2 <HAL_UART_Init+0x262>
 8006144:	f5b3 3f00 	cmp.w	r3, #131072	; 0x20000
 8006148:	f000 80af 	beq.w	80062aa <HAL_UART_Init+0x24a>
 800614c:	f5b3 3f40 	cmp.w	r3, #196608	; 0x30000
 8006150:	d1c1      	bne.n	80060d6 <HAL_UART_Init+0x76>
 8006152:	f5b0 4f00 	cmp.w	r0, #32768	; 0x8000
 8006156:	f040 80d6 	bne.w	8006306 <HAL_UART_Init+0x2a6>
 800615a:	6862      	ldr	r2, [r4, #4]
 800615c:	0853      	lsrs	r3, r2, #1
 800615e:	f503 0374 	add.w	r3, r3, #15990784	; 0xf40000
 8006162:	f503 5310 	add.w	r3, r3, #9216	; 0x2400
 8006166:	fbb3 f3f2 	udiv	r3, r3, r2
 800616a:	b29b      	uxth	r3, r3
 800616c:	f1a3 0110 	sub.w	r1, r3, #16
 8006170:	f64f 72ef 	movw	r2, #65519	; 0xffef
 8006174:	4291      	cmp	r1, r2
 8006176:	d8ae      	bhi.n	80060d6 <HAL_UART_Init+0x76>
 8006178:	f023 010f 	bic.w	r1, r3, #15
 800617c:	f3c3 0242 	ubfx	r2, r3, #1, #3
 8006180:	6823      	ldr	r3, [r4, #0]
 8006182:	430a      	orrs	r2, r1
 8006184:	60da      	str	r2, [r3, #12]
 8006186:	6a62      	ldr	r2, [r4, #36]	; 0x24
 8006188:	2100      	movs	r1, #0
 800618a:	e9c4 1118 	strd	r1, r1, [r4, #96]	; 0x60
 800618e:	b362      	cbz	r2, 80061ea <HAL_UART_Init+0x18a>
 8006190:	4620      	mov	r0, r4
 8006192:	f7ff ff0d 	bl	8005fb0 <UART_AdvFeatureConfig>
 8006196:	6823      	ldr	r3, [r4, #0]
 8006198:	e027      	b.n	80061ea <HAL_UART_Init+0x18a>
 800619a:	4b86      	ldr	r3, [pc, #536]	; (80063b4 <HAL_UART_Init+0x354>)
 800619c:	6b1b      	ldr	r3, [r3, #48]	; 0x30
 800619e:	f403 1340 	and.w	r3, r3, #3145728	; 0x300000
 80061a2:	f5b3 1f80 	cmp.w	r3, #1048576	; 0x100000
 80061a6:	f000 80a2 	beq.w	80062ee <HAL_UART_Init+0x28e>
 80061aa:	f240 808a 	bls.w	80062c2 <HAL_UART_Init+0x262>
 80061ae:	f5b3 1f00 	cmp.w	r3, #2097152	; 0x200000
 80061b2:	d07a      	beq.n	80062aa <HAL_UART_Init+0x24a>
 80061b4:	f5b3 1f40 	cmp.w	r3, #3145728	; 0x300000
 80061b8:	d0cb      	beq.n	8006152 <HAL_UART_Init+0xf2>
 80061ba:	e78c      	b.n	80060d6 <HAL_UART_Init+0x76>
 80061bc:	f7fe fe4e 	bl	8004e5c <HAL_RCC_GetPCLK2Freq>
 80061c0:	6863      	ldr	r3, [r4, #4]
 80061c2:	eb00 0253 	add.w	r2, r0, r3, lsr #1
 80061c6:	fbb2 f2f3 	udiv	r2, r2, r3
 80061ca:	b292      	uxth	r2, r2
 80061cc:	f1a2 0110 	sub.w	r1, r2, #16
 80061d0:	f64f 73ef 	movw	r3, #65519	; 0xffef
 80061d4:	4299      	cmp	r1, r3
 80061d6:	f63f af7e 	bhi.w	80060d6 <HAL_UART_Init+0x76>
 80061da:	6823      	ldr	r3, [r4, #0]
 80061dc:	60da      	str	r2, [r3, #12]
 80061de:	6a62      	ldr	r2, [r4, #36]	; 0x24
 80061e0:	2100      	movs	r1, #0
 80061e2:	e9c4 1118 	strd	r1, r1, [r4, #96]	; 0x60
 80061e6:	2a00      	cmp	r2, #0
 80061e8:	d1d2      	bne.n	8006190 <HAL_UART_Init+0x130>
 80061ea:	685a      	ldr	r2, [r3, #4]
 80061ec:	f422 4290 	bic.w	r2, r2, #18432	; 0x4800
 80061f0:	605a      	str	r2, [r3, #4]
 80061f2:	689a      	ldr	r2, [r3, #8]
 80061f4:	f022 022a 	bic.w	r2, r2, #42	; 0x2a
 80061f8:	609a      	str	r2, [r3, #8]
 80061fa:	681a      	ldr	r2, [r3, #0]
 80061fc:	2100      	movs	r1, #0
 80061fe:	f042 0201 	orr.w	r2, r2, #1
 8006202:	601a      	str	r2, [r3, #0]
 8006204:	67e1      	str	r1, [r4, #124]	; 0x7c
 8006206:	f7fd f9a3 	bl	8003550 <HAL_GetTick>
 800620a:	6823      	ldr	r3, [r4, #0]
 800620c:	681a      	ldr	r2, [r3, #0]
 800620e:	4606      	mov	r6, r0
 8006210:	0710      	lsls	r0, r2, #28
 8006212:	d409      	bmi.n	8006228 <HAL_UART_Init+0x1c8>
 8006214:	681a      	ldr	r2, [r3, #0]
 8006216:	0750      	lsls	r0, r2, #29
 8006218:	d42a      	bmi.n	8006270 <HAL_UART_Init+0x210>
 800621a:	2320      	movs	r3, #32
 800621c:	2000      	movs	r0, #0
 800621e:	6763      	str	r3, [r4, #116]	; 0x74
 8006220:	f884 0070 	strb.w	r0, [r4, #112]	; 0x70
 8006224:	67a3      	str	r3, [r4, #120]	; 0x78
 8006226:	bd70      	pop	{r4, r5, r6, pc}
 8006228:	69dd      	ldr	r5, [r3, #28]
 800622a:	f415 1500 	ands.w	r5, r5, #2097152	; 0x200000
 800622e:	d1f1      	bne.n	8006214 <HAL_UART_Init+0x1b4>
 8006230:	f7fd f98e 	bl	8003550 <HAL_GetTick>
 8006234:	6823      	ldr	r3, [r4, #0]
 8006236:	1b80      	subs	r0, r0, r6
 8006238:	f1b0 7f00 	cmp.w	r0, #33554432	; 0x2000000
 800623c:	681a      	ldr	r2, [r3, #0]
 800623e:	d26c      	bcs.n	800631a <HAL_UART_Init+0x2ba>
 8006240:	0751      	lsls	r1, r2, #29
 8006242:	d5f1      	bpl.n	8006228 <HAL_UART_Init+0x1c8>
 8006244:	69da      	ldr	r2, [r3, #28]
 8006246:	0512      	lsls	r2, r2, #20
 8006248:	d5ee      	bpl.n	8006228 <HAL_UART_Init+0x1c8>
 800624a:	f44f 6200 	mov.w	r2, #2048	; 0x800
 800624e:	621a      	str	r2, [r3, #32]
 8006250:	681a      	ldr	r2, [r3, #0]
 8006252:	f422 72d0 	bic.w	r2, r2, #416	; 0x1a0
 8006256:	601a      	str	r2, [r3, #0]
 8006258:	6899      	ldr	r1, [r3, #8]
 800625a:	2220      	movs	r2, #32
 800625c:	f021 0101 	bic.w	r1, r1, #1
 8006260:	6099      	str	r1, [r3, #8]
 8006262:	2003      	movs	r0, #3
 8006264:	6762      	str	r2, [r4, #116]	; 0x74
 8006266:	f884 5070 	strb.w	r5, [r4, #112]	; 0x70
 800626a:	67a2      	str	r2, [r4, #120]	; 0x78
 800626c:	67e2      	str	r2, [r4, #124]	; 0x7c
 800626e:	bd70      	pop	{r4, r5, r6, pc}
 8006270:	69dd      	ldr	r5, [r3, #28]
 8006272:	f415 0580 	ands.w	r5, r5, #4194304	; 0x400000
 8006276:	d1d0      	bne.n	800621a <HAL_UART_Init+0x1ba>
 8006278:	f7fd f96a 	bl	8003550 <HAL_GetTick>
 800627c:	6823      	ldr	r3, [r4, #0]
 800627e:	1b80      	subs	r0, r0, r6
 8006280:	f1b0 7f00 	cmp.w	r0, #33554432	; 0x2000000
 8006284:	681a      	ldr	r2, [r3, #0]
 8006286:	d248      	bcs.n	800631a <HAL_UART_Init+0x2ba>
 8006288:	0751      	lsls	r1, r2, #29
 800628a:	d5f1      	bpl.n	8006270 <HAL_UART_Init+0x210>
 800628c:	69da      	ldr	r2, [r3, #28]
 800628e:	0512      	lsls	r2, r2, #20
 8006290:	d5ee      	bpl.n	8006270 <HAL_UART_Init+0x210>
 8006292:	e7da      	b.n	800624a <HAL_UART_Init+0x1ea>
 8006294:	4b47      	ldr	r3, [pc, #284]	; (80063b4 <HAL_UART_Init+0x354>)
 8006296:	6b1b      	ldr	r3, [r3, #48]	; 0x30
 8006298:	f403 2340 	and.w	r3, r3, #786432	; 0xc0000
 800629c:	f5b3 2f80 	cmp.w	r3, #262144	; 0x40000
 80062a0:	d025      	beq.n	80062ee <HAL_UART_Init+0x28e>
 80062a2:	d90e      	bls.n	80062c2 <HAL_UART_Init+0x262>
 80062a4:	f5b3 2f00 	cmp.w	r3, #524288	; 0x80000
 80062a8:	d167      	bne.n	800637a <HAL_UART_Init+0x31a>
 80062aa:	f5b0 4f00 	cmp.w	r0, #32768	; 0x8000
 80062ae:	f000 8085 	beq.w	80063bc <HAL_UART_Init+0x35c>
 80062b2:	6863      	ldr	r3, [r4, #4]
 80062b4:	085a      	lsrs	r2, r3, #1
 80062b6:	f502 4200 	add.w	r2, r2, #32768	; 0x8000
 80062ba:	fbb2 f2f3 	udiv	r2, r2, r3
 80062be:	b292      	uxth	r2, r2
 80062c0:	e784      	b.n	80061cc <HAL_UART_Init+0x16c>
 80062c2:	2b00      	cmp	r3, #0
 80062c4:	f47f af07 	bne.w	80060d6 <HAL_UART_Init+0x76>
 80062c8:	f5b0 4f00 	cmp.w	r0, #32768	; 0x8000
 80062cc:	d07e      	beq.n	80063cc <HAL_UART_Init+0x36c>
 80062ce:	f7fe fdad 	bl	8004e2c <HAL_RCC_GetPCLK1Freq>
 80062d2:	6863      	ldr	r3, [r4, #4]
 80062d4:	eb00 0253 	add.w	r2, r0, r3, lsr #1
 80062d8:	fbb2 f2f3 	udiv	r2, r2, r3
 80062dc:	b292      	uxth	r2, r2
 80062de:	e775      	b.n	80061cc <HAL_UART_Init+0x16c>
 80062e0:	4b34      	ldr	r3, [pc, #208]	; (80063b4 <HAL_UART_Init+0x354>)
 80062e2:	6b1b      	ldr	r3, [r3, #48]	; 0x30
 80062e4:	f403 0340 	and.w	r3, r3, #12582912	; 0xc00000
 80062e8:	f5b3 0f80 	cmp.w	r3, #4194304	; 0x400000
 80062ec:	d13c      	bne.n	8006368 <HAL_UART_Init+0x308>
 80062ee:	f5b0 4f00 	cmp.w	r0, #32768	; 0x8000
 80062f2:	d047      	beq.n	8006384 <HAL_UART_Init+0x324>
 80062f4:	f7fe fd60 	bl	8004db8 <HAL_RCC_GetSysClockFreq>
 80062f8:	6863      	ldr	r3, [r4, #4]
 80062fa:	eb00 0253 	add.w	r2, r0, r3, lsr #1
 80062fe:	fbb2 f2f3 	udiv	r2, r2, r3
 8006302:	b292      	uxth	r2, r2
 8006304:	e762      	b.n	80061cc <HAL_UART_Init+0x16c>
 8006306:	6863      	ldr	r3, [r4, #4]
 8006308:	085a      	lsrs	r2, r3, #1
 800630a:	f502 02f4 	add.w	r2, r2, #7995392	; 0x7a0000
 800630e:	f502 5290 	add.w	r2, r2, #4608	; 0x1200
 8006312:	fbb2 f2f3 	udiv	r2, r2, r3
 8006316:	b292      	uxth	r2, r2
 8006318:	e758      	b.n	80061cc <HAL_UART_Init+0x16c>
 800631a:	f422 72d0 	bic.w	r2, r2, #416	; 0x1a0
 800631e:	601a      	str	r2, [r3, #0]
 8006320:	689a      	ldr	r2, [r3, #8]
 8006322:	2120      	movs	r1, #32
 8006324:	f022 0201 	bic.w	r2, r2, #1
 8006328:	609a      	str	r2, [r3, #8]
 800632a:	2003      	movs	r0, #3
 800632c:	6761      	str	r1, [r4, #116]	; 0x74
 800632e:	f884 5070 	strb.w	r5, [r4, #112]	; 0x70
 8006332:	67a1      	str	r1, [r4, #120]	; 0x78
 8006334:	bd70      	pop	{r4, r5, r6, pc}
 8006336:	2b08      	cmp	r3, #8
 8006338:	f63f aecd 	bhi.w	80060d6 <HAL_UART_Init+0x76>
 800633c:	a201      	add	r2, pc, #4	; (adr r2, 8006344 <HAL_UART_Init+0x2e4>)
 800633e:	f852 f023 	ldr.w	pc, [r2, r3, lsl #2]
 8006342:	bf00      	nop
 8006344:	080063cd 	.word	0x080063cd
 8006348:	08006399 	.word	0x08006399
 800634c:	0800615b 	.word	0x0800615b
 8006350:	080060d7 	.word	0x080060d7
 8006354:	08006385 	.word	0x08006385
 8006358:	080060d7 	.word	0x080060d7
 800635c:	080060d7 	.word	0x080060d7
 8006360:	080060d7 	.word	0x080060d7
 8006364:	080063bd 	.word	0x080063bd
 8006368:	d9ab      	bls.n	80062c2 <HAL_UART_Init+0x262>
 800636a:	f5b3 0f00 	cmp.w	r3, #8388608	; 0x800000
 800636e:	d09c      	beq.n	80062aa <HAL_UART_Init+0x24a>
 8006370:	f5b3 0f40 	cmp.w	r3, #12582912	; 0xc00000
 8006374:	f43f aeed 	beq.w	8006152 <HAL_UART_Init+0xf2>
 8006378:	e6ad      	b.n	80060d6 <HAL_UART_Init+0x76>
 800637a:	f5b3 2f40 	cmp.w	r3, #786432	; 0xc0000
 800637e:	f43f aee8 	beq.w	8006152 <HAL_UART_Init+0xf2>
 8006382:	e6a8      	b.n	80060d6 <HAL_UART_Init+0x76>
 8006384:	f7fe fd18 	bl	8004db8 <HAL_RCC_GetSysClockFreq>
 8006388:	6862      	ldr	r2, [r4, #4]
 800638a:	0853      	lsrs	r3, r2, #1
 800638c:	eb03 0340 	add.w	r3, r3, r0, lsl #1
 8006390:	fbb3 f3f2 	udiv	r3, r3, r2
 8006394:	b29b      	uxth	r3, r3
 8006396:	e6e9      	b.n	800616c <HAL_UART_Init+0x10c>
 8006398:	f7fe fd60 	bl	8004e5c <HAL_RCC_GetPCLK2Freq>
 800639c:	e7f4      	b.n	8006388 <HAL_UART_Init+0x328>
 800639e:	bf00      	nop
 80063a0:	40013800 	.word	0x40013800
 80063a4:	40004400 	.word	0x40004400
 80063a8:	40004800 	.word	0x40004800
 80063ac:	40004c00 	.word	0x40004c00
 80063b0:	40005000 	.word	0x40005000
 80063b4:	40021000 	.word	0x40021000
 80063b8:	08008c5c 	.word	0x08008c5c
 80063bc:	6862      	ldr	r2, [r4, #4]
 80063be:	0853      	lsrs	r3, r2, #1
 80063c0:	f503 3380 	add.w	r3, r3, #65536	; 0x10000
 80063c4:	fbb3 f3f2 	udiv	r3, r3, r2
 80063c8:	b29b      	uxth	r3, r3
 80063ca:	e6cf      	b.n	800616c <HAL_UART_Init+0x10c>
 80063cc:	f7fe fd2e 	bl	8004e2c <HAL_RCC_GetPCLK1Freq>
 80063d0:	e7da      	b.n	8006388 <HAL_UART_Init+0x328>
 80063d2:	bf00      	nop

080063d4 <VBS_GetAvBusVoltage_d>:
 80063d4:	88c0      	ldrh	r0, [r0, #6]
 80063d6:	4770      	bx	lr

080063d8 <VBS_GetAvBusVoltage_V>:
 80063d8:	88c3      	ldrh	r3, [r0, #6]
 80063da:	8840      	ldrh	r0, [r0, #2]
 80063dc:	fb03 f000 	mul.w	r0, r3, r0
 80063e0:	0c00      	lsrs	r0, r0, #16
 80063e2:	4770      	bx	lr

080063e4 <Circle_Limitation>:
 80063e4:	b410      	push	{r4}
 80063e6:	140b      	asrs	r3, r1, #16
 80063e8:	8802      	ldrh	r2, [r0, #0]
 80063ea:	b209      	sxth	r1, r1
 80063ec:	fb03 f403 	mul.w	r4, r3, r3
 80063f0:	fb02 f202 	mul.w	r2, r2, r2
 80063f4:	fb01 4401 	mla	r4, r1, r1, r4
 80063f8:	42a2      	cmp	r2, r4
 80063fa:	b085      	sub	sp, #20
 80063fc:	d219      	bcs.n	8006432 <Circle_Limitation+0x4e>
 80063fe:	f890 20b2 	ldrb.w	r2, [r0, #178]	; 0xb2
 8006402:	ebc2 6414 	rsb	r4, r2, r4, lsr #24
 8006406:	b2e4      	uxtb	r4, r4
 8006408:	eb00 0044 	add.w	r0, r0, r4, lsl #1
 800640c:	8882      	ldrh	r2, [r0, #4]
 800640e:	fb02 f101 	mul.w	r1, r2, r1
 8006412:	2900      	cmp	r1, #0
 8006414:	fb02 f303 	mul.w	r3, r2, r3
 8006418:	bfbc      	itt	lt
 800641a:	f501 41ff 	addlt.w	r1, r1, #32640	; 0x7f80
 800641e:	317f      	addlt	r1, #127	; 0x7f
 8006420:	2b00      	cmp	r3, #0
 8006422:	bfbc      	itt	lt
 8006424:	f503 43ff 	addlt.w	r3, r3, #32640	; 0x7f80
 8006428:	337f      	addlt	r3, #127	; 0x7f
 800642a:	f341 31cf 	sbfx	r1, r1, #15, #16
 800642e:	f343 33cf 	sbfx	r3, r3, #15, #16
 8006432:	b289      	uxth	r1, r1
 8006434:	2000      	movs	r0, #0
 8006436:	b29b      	uxth	r3, r3
 8006438:	f361 000f 	bfi	r0, r1, #0, #16
 800643c:	f363 401f 	bfi	r0, r3, #16, #16
 8006440:	b005      	add	sp, #20
 8006442:	f85d 4b04 	ldr.w	r4, [sp], #4
 8006446:	4770      	bx	lr

08006448 <FCP_Init>:
 8006448:	2300      	movs	r3, #0
 800644a:	8243      	strh	r3, [r0, #18]
 800644c:	8283      	strh	r3, [r0, #20]
 800644e:	f8c0 3096 	str.w	r3, [r0, #150]	; 0x96
 8006452:	f880 309a 	strb.w	r3, [r0, #154]	; 0x9a
 8006456:	f880 311b 	strb.w	r3, [r0, #283]	; 0x11b
 800645a:	f880 311c 	strb.w	r3, [r0, #284]	; 0x11c
 800645e:	f880 311d 	strb.w	r3, [r0, #285]	; 0x11d
 8006462:	4770      	bx	lr

08006464 <FCP_SetClient>:
 8006464:	b120      	cbz	r0, 8006470 <FCP_SetClient+0xc>
 8006466:	e9c0 1200 	strd	r1, r2, [r0]
 800646a:	6083      	str	r3, [r0, #8]
 800646c:	9b00      	ldr	r3, [sp, #0]
 800646e:	60c3      	str	r3, [r0, #12]
 8006470:	4770      	bx	lr
 8006472:	bf00      	nop

08006474 <FCP_CalcCRC>:
 8006474:	b190      	cbz	r0, 800649c <FCP_CalcCRC+0x28>
 8006476:	7841      	ldrb	r1, [r0, #1]
 8006478:	7802      	ldrb	r2, [r0, #0]
 800647a:	1853      	adds	r3, r2, r1
 800647c:	b151      	cbz	r1, 8006494 <FCP_CalcCRC+0x20>
 800647e:	1e4a      	subs	r2, r1, #1
 8006480:	1c81      	adds	r1, r0, #2
 8006482:	fa51 f282 	uxtab	r2, r1, r2
 8006486:	3001      	adds	r0, #1
 8006488:	f810 1f01 	ldrb.w	r1, [r0, #1]!
 800648c:	440b      	add	r3, r1
 800648e:	4282      	cmp	r2, r0
 8006490:	b29b      	uxth	r3, r3
 8006492:	d1f9      	bne.n	8006488 <FCP_CalcCRC+0x14>
 8006494:	eb03 2313 	add.w	r3, r3, r3, lsr #8
 8006498:	f003 00ff 	and.w	r0, r3, #255	; 0xff
 800649c:	4770      	bx	lr
 800649e:	bf00      	nop

080064a0 <MPM_Clear>:
 80064a0:	b508      	push	{r3, lr}
 80064a2:	f44f 7280 	mov.w	r2, #256	; 0x100
 80064a6:	2100      	movs	r1, #0
 80064a8:	f002 fa40 	bl	800892c <memset>
 80064ac:	2200      	movs	r2, #0
 80064ae:	f8c0 2100 	str.w	r2, [r0, #256]	; 0x100
 80064b2:	bd08      	pop	{r3, pc}

080064b4 <MPM_CalcElMotorPower>:
 80064b4:	f8b0 2100 	ldrh.w	r2, [r0, #256]	; 0x100
 80064b8:	1c53      	adds	r3, r2, #1
 80064ba:	b29b      	uxth	r3, r3
 80064bc:	2b7f      	cmp	r3, #127	; 0x7f
 80064be:	bf88      	it	hi
 80064c0:	2300      	movhi	r3, #0
 80064c2:	b430      	push	{r4, r5}
 80064c4:	f820 1012 	strh.w	r1, [r0, r2, lsl #1]
 80064c8:	f100 05fe 	add.w	r5, r0, #254	; 0xfe
 80064cc:	f8a0 2102 	strh.w	r2, [r0, #258]	; 0x102
 80064d0:	f8a0 3100 	strh.w	r3, [r0, #256]	; 0x100
 80064d4:	2200      	movs	r2, #0
 80064d6:	1e83      	subs	r3, r0, #2
 80064d8:	f933 4f02 	ldrsh.w	r4, [r3, #2]!
 80064dc:	42ab      	cmp	r3, r5
 80064de:	4422      	add	r2, r4
 80064e0:	d1fa      	bne.n	80064d8 <MPM_CalcElMotorPower+0x24>
 80064e2:	2a00      	cmp	r2, #0
 80064e4:	bfb8      	it	lt
 80064e6:	327f      	addlt	r2, #127	; 0x7f
 80064e8:	11d2      	asrs	r2, r2, #7
 80064ea:	f8a0 2104 	strh.w	r2, [r0, #260]	; 0x104
 80064ee:	bc30      	pop	{r4, r5}
 80064f0:	4608      	mov	r0, r1
 80064f2:	4770      	bx	lr

080064f4 <MPM_GetAvrgElMotorPowerW>:
 80064f4:	f9b0 0104 	ldrsh.w	r0, [r0, #260]	; 0x104
 80064f8:	4770      	bx	lr
 80064fa:	bf00      	nop

080064fc <NTC_SetFaultState>:
 80064fc:	8a03      	ldrh	r3, [r0, #16]
 80064fe:	8b42      	ldrh	r2, [r0, #26]
 8006500:	429a      	cmp	r2, r3
 8006502:	d306      	bcc.n	8006512 <NTC_SetFaultState+0x16>
 8006504:	8b82      	ldrh	r2, [r0, #28]
 8006506:	429a      	cmp	r2, r3
 8006508:	d801      	bhi.n	800650e <NTC_SetFaultState+0x12>
 800650a:	8ac0      	ldrh	r0, [r0, #22]
 800650c:	4770      	bx	lr
 800650e:	2000      	movs	r0, #0
 8006510:	4770      	bx	lr
 8006512:	2008      	movs	r0, #8
 8006514:	4770      	bx	lr
 8006516:	bf00      	nop

08006518 <NTC_Clear>:
 8006518:	2300      	movs	r3, #0
 800651a:	8203      	strh	r3, [r0, #16]
 800651c:	4770      	bx	lr
 800651e:	bf00      	nop

08006520 <NTC_Init>:
 8006520:	7803      	ldrb	r3, [r0, #0]
 8006522:	b123      	cbz	r3, 800652e <NTC_Init+0xe>
 8006524:	2200      	movs	r2, #0
 8006526:	8a43      	ldrh	r3, [r0, #18]
 8006528:	82c2      	strh	r2, [r0, #22]
 800652a:	8203      	strh	r3, [r0, #16]
 800652c:	4770      	bx	lr
 800652e:	b510      	push	{r4, lr}
 8006530:	4604      	mov	r4, r0
 8006532:	3004      	adds	r0, #4
 8006534:	f7fb fdb2 	bl	800209c <RCM_RegisterRegConv>
 8006538:	f884 0026 	strb.w	r0, [r4, #38]	; 0x26
 800653c:	4620      	mov	r0, r4
 800653e:	f7ff ffeb 	bl	8006518 <NTC_Clear>
 8006542:	bd10      	pop	{r4, pc}

08006544 <NTC_CalcAvTemp>:
 8006544:	7803      	ldrb	r3, [r0, #0]
 8006546:	b11b      	cbz	r3, 8006550 <NTC_CalcAvTemp+0xc>
 8006548:	2300      	movs	r3, #0
 800654a:	82c3      	strh	r3, [r0, #22]
 800654c:	4618      	mov	r0, r3
 800654e:	4770      	bx	lr
 8006550:	b510      	push	{r4, lr}
 8006552:	4604      	mov	r4, r0
 8006554:	f890 0026 	ldrb.w	r0, [r0, #38]	; 0x26
 8006558:	f7fb fe7a 	bl	8002250 <RCM_ExecRegularConv>
 800655c:	f64f 73ff 	movw	r3, #65535	; 0xffff
 8006560:	4298      	cmp	r0, r3
 8006562:	d007      	beq.n	8006574 <NTC_CalcAvTemp+0x30>
 8006564:	8b22      	ldrh	r2, [r4, #24]
 8006566:	8a23      	ldrh	r3, [r4, #16]
 8006568:	1e51      	subs	r1, r2, #1
 800656a:	fb01 0003 	mla	r0, r1, r3, r0
 800656e:	fbb0 f0f2 	udiv	r0, r0, r2
 8006572:	8220      	strh	r0, [r4, #16]
 8006574:	4620      	mov	r0, r4
 8006576:	f7ff ffc1 	bl	80064fc <NTC_SetFaultState>
 800657a:	82e0      	strh	r0, [r4, #22]
 800657c:	bd10      	pop	{r4, pc}
 800657e:	bf00      	nop

08006580 <NTC_GetAvTemp_C>:
 8006580:	7803      	ldrb	r3, [r0, #0]
 8006582:	b113      	cbz	r3, 800658a <NTC_GetAvTemp_C+0xa>
 8006584:	8a80      	ldrh	r0, [r0, #20]
 8006586:	b200      	sxth	r0, r0
 8006588:	4770      	bx	lr
 800658a:	8a03      	ldrh	r3, [r0, #16]
 800658c:	6a01      	ldr	r1, [r0, #32]
 800658e:	f9b0 201e 	ldrsh.w	r2, [r0, #30]
 8006592:	8c80      	ldrh	r0, [r0, #36]	; 0x24
 8006594:	1a5b      	subs	r3, r3, r1
 8006596:	fb03 f302 	mul.w	r3, r3, r2
 800659a:	2b00      	cmp	r3, #0
 800659c:	bfbc      	itt	lt
 800659e:	f503 437f 	addlt.w	r3, r3, #65280	; 0xff00
 80065a2:	33ff      	addlt	r3, #255	; 0xff
 80065a4:	eb00 4023 	add.w	r0, r0, r3, asr #16
 80065a8:	b200      	sxth	r0, r0
 80065aa:	4770      	bx	lr

080065ac <PID_HandleInit>:
 80065ac:	2300      	movs	r3, #0
 80065ae:	6801      	ldr	r1, [r0, #0]
 80065b0:	8c02      	ldrh	r2, [r0, #32]
 80065b2:	6041      	str	r1, [r0, #4]
 80065b4:	8442      	strh	r2, [r0, #34]	; 0x22
 80065b6:	6083      	str	r3, [r0, #8]
 80065b8:	6283      	str	r3, [r0, #40]	; 0x28
 80065ba:	4770      	bx	lr

080065bc <PID_SetKP>:
 80065bc:	8081      	strh	r1, [r0, #4]
 80065be:	4770      	bx	lr

080065c0 <PID_SetKI>:
 80065c0:	80c1      	strh	r1, [r0, #6]
 80065c2:	4770      	bx	lr

080065c4 <PID_GetKP>:
 80065c4:	f9b0 0004 	ldrsh.w	r0, [r0, #4]
 80065c8:	4770      	bx	lr
 80065ca:	bf00      	nop

080065cc <PID_GetKI>:
 80065cc:	f9b0 0006 	ldrsh.w	r0, [r0, #6]
 80065d0:	4770      	bx	lr
 80065d2:	bf00      	nop

080065d4 <PID_SetIntegralTerm>:
 80065d4:	6081      	str	r1, [r0, #8]
 80065d6:	4770      	bx	lr

080065d8 <PID_GetKPDivisor>:
 80065d8:	8b00      	ldrh	r0, [r0, #24]
 80065da:	4770      	bx	lr

080065dc <PID_GetKIDivisor>:
 80065dc:	8b40      	ldrh	r0, [r0, #26]
 80065de:	4770      	bx	lr

080065e0 <PID_SetKD>:
 80065e0:	8441      	strh	r1, [r0, #34]	; 0x22
 80065e2:	4770      	bx	lr

080065e4 <PID_GetKD>:
 80065e4:	f9b0 0022 	ldrsh.w	r0, [r0, #34]	; 0x22
 80065e8:	4770      	bx	lr
 80065ea:	bf00      	nop

080065ec <PI_Controller>:
 80065ec:	f9b0 2004 	ldrsh.w	r2, [r0, #4]
 80065f0:	f9b0 3006 	ldrsh.w	r3, [r0, #6]
 80065f4:	b4f0      	push	{r4, r5, r6, r7}
 80065f6:	fb01 f202 	mul.w	r2, r1, r2
 80065fa:	f9b0 5014 	ldrsh.w	r5, [r0, #20]
 80065fe:	f9b0 6016 	ldrsh.w	r6, [r0, #22]
 8006602:	b18b      	cbz	r3, 8006628 <PI_Controller+0x3c>
 8006604:	e9d0 7402 	ldrd	r7, r4, [r0, #8]
 8006608:	fb01 f103 	mul.w	r1, r1, r3
 800660c:	187b      	adds	r3, r7, r1
 800660e:	d424      	bmi.n	800665a <PI_Controller+0x6e>
 8006610:	2f00      	cmp	r7, #0
 8006612:	da04      	bge.n	800661e <PI_Controller+0x32>
 8006614:	4f16      	ldr	r7, [pc, #88]	; (8006670 <PI_Controller+0x84>)
 8006616:	ea33 0321 	bics.w	r3, r3, r1, asr #32
 800661a:	bf28      	it	cs
 800661c:	463b      	movcs	r3, r7
 800661e:	42a3      	cmp	r3, r4
 8006620:	dc03      	bgt.n	800662a <PI_Controller+0x3e>
 8006622:	6904      	ldr	r4, [r0, #16]
 8006624:	429c      	cmp	r4, r3
 8006626:	dc00      	bgt.n	800662a <PI_Controller+0x3e>
 8006628:	461c      	mov	r4, r3
 800662a:	8b81      	ldrh	r1, [r0, #28]
 800662c:	8bc3      	ldrh	r3, [r0, #30]
 800662e:	410a      	asrs	r2, r1
 8006630:	fa44 f303 	asr.w	r3, r4, r3
 8006634:	4413      	add	r3, r2
 8006636:	429d      	cmp	r5, r3
 8006638:	db08      	blt.n	800664c <PI_Controller+0x60>
 800663a:	429e      	cmp	r6, r3
 800663c:	dd02      	ble.n	8006644 <PI_Controller+0x58>
 800663e:	1af3      	subs	r3, r6, r3
 8006640:	441c      	add	r4, r3
 8006642:	4633      	mov	r3, r6
 8006644:	6084      	str	r4, [r0, #8]
 8006646:	b218      	sxth	r0, r3
 8006648:	bcf0      	pop	{r4, r5, r6, r7}
 800664a:	4770      	bx	lr
 800664c:	1aeb      	subs	r3, r5, r3
 800664e:	441c      	add	r4, r3
 8006650:	462b      	mov	r3, r5
 8006652:	6084      	str	r4, [r0, #8]
 8006654:	b218      	sxth	r0, r3
 8006656:	bcf0      	pop	{r4, r5, r6, r7}
 8006658:	4770      	bx	lr
 800665a:	2f00      	cmp	r7, #0
 800665c:	dddf      	ble.n	800661e <PI_Controller+0x32>
 800665e:	2900      	cmp	r1, #0
 8006660:	dddd      	ble.n	800661e <PI_Controller+0x32>
 8006662:	f06f 4300 	mvn.w	r3, #2147483648	; 0x80000000
 8006666:	429c      	cmp	r4, r3
 8006668:	d1df      	bne.n	800662a <PI_Controller+0x3e>
 800666a:	4623      	mov	r3, r4
 800666c:	e7dc      	b.n	8006628 <PI_Controller+0x3c>
 800666e:	bf00      	nop
 8006670:	80000001 	.word	0x80000001

08006674 <PQD_CalcElMotorPower>:
 8006674:	f8d0 110c 	ldr.w	r1, [r0, #268]	; 0x10c
 8006678:	b570      	push	{r4, r5, r6, lr}
 800667a:	8b0c      	ldrh	r4, [r1, #24]
 800667c:	89cd      	ldrh	r5, [r1, #14]
 800667e:	898a      	ldrh	r2, [r1, #12]
 8006680:	8acb      	ldrh	r3, [r1, #22]
 8006682:	4606      	mov	r6, r0
 8006684:	fb15 f504 	smulbb	r5, r5, r4
 8006688:	f8d0 0110 	ldr.w	r0, [r0, #272]	; 0x110
 800668c:	f8d6 4108 	ldr.w	r4, [r6, #264]	; 0x108
 8006690:	fb12 5503 	smlabb	r5, r2, r3, r5
 8006694:	f7ff fea0 	bl	80063d8 <VBS_GetAvBusVoltage_V>
 8006698:	1e2a      	subs	r2, r5, #0
 800669a:	4b0f      	ldr	r3, [pc, #60]	; (80066d8 <PQD_CalcElMotorPower+0x64>)
 800669c:	490f      	ldr	r1, [pc, #60]	; (80066dc <PQD_CalcElMotorPower+0x68>)
 800669e:	fb04 f000 	mul.w	r0, r4, r0
 80066a2:	bfb8      	it	lt
 80066a4:	f502 427f 	addlt.w	r2, r2, #65280	; 0xff00
 80066a8:	fb83 4300 	smull	r4, r3, r3, r0
 80066ac:	bfb8      	it	lt
 80066ae:	32ff      	addlt	r2, #255	; 0xff
 80066b0:	17c0      	asrs	r0, r0, #31
 80066b2:	1412      	asrs	r2, r2, #16
 80066b4:	ebc0 13a3 	rsb	r3, r0, r3, asr #6
 80066b8:	fb03 f302 	mul.w	r3, r3, r2
 80066bc:	eb03 0343 	add.w	r3, r3, r3, lsl #1
 80066c0:	005b      	lsls	r3, r3, #1
 80066c2:	fb81 2103 	smull	r2, r1, r1, r3
 80066c6:	17db      	asrs	r3, r3, #31
 80066c8:	4630      	mov	r0, r6
 80066ca:	ebc3 41a1 	rsb	r1, r3, r1, asr #18
 80066ce:	e8bd 4070 	ldmia.w	sp!, {r4, r5, r6, lr}
 80066d2:	f7ff beef 	b.w	80064b4 <MPM_CalcElMotorPower>
 80066d6:	bf00      	nop
 80066d8:	1b4e81b5 	.word	0x1b4e81b5
 80066dc:	66666667 	.word	0x66666667

080066e0 <startTimers>:
 80066e0:	4b17      	ldr	r3, [pc, #92]	; (8006740 <startTimers+0x60>)
 80066e2:	69da      	ldr	r2, [r3, #28]
 80066e4:	07d2      	lsls	r2, r2, #31
 80066e6:	d514      	bpl.n	8006712 <startTimers+0x32>
 80066e8:	f04f 4380 	mov.w	r3, #1073741824	; 0x40000000
 80066ec:	685a      	ldr	r2, [r3, #4]
 80066ee:	6859      	ldr	r1, [r3, #4]
 80066f0:	f021 0170 	bic.w	r1, r1, #112	; 0x70
 80066f4:	f041 0120 	orr.w	r1, r1, #32
 80066f8:	6059      	str	r1, [r3, #4]
 80066fa:	6959      	ldr	r1, [r3, #20]
 80066fc:	f041 0101 	orr.w	r1, r1, #1
 8006700:	6159      	str	r1, [r3, #20]
 8006702:	6859      	ldr	r1, [r3, #4]
 8006704:	f002 0270 	and.w	r2, r2, #112	; 0x70
 8006708:	f021 0170 	bic.w	r1, r1, #112	; 0x70
 800670c:	430a      	orrs	r2, r1
 800670e:	605a      	str	r2, [r3, #4]
 8006710:	4770      	bx	lr
 8006712:	69da      	ldr	r2, [r3, #28]
 8006714:	f042 0201 	orr.w	r2, r2, #1
 8006718:	61da      	str	r2, [r3, #28]
 800671a:	69da      	ldr	r2, [r3, #28]
 800671c:	b082      	sub	sp, #8
 800671e:	f04f 4180 	mov.w	r1, #1073741824	; 0x40000000
 8006722:	f002 0201 	and.w	r2, r2, #1
 8006726:	9201      	str	r2, [sp, #4]
 8006728:	9a01      	ldr	r2, [sp, #4]
 800672a:	694a      	ldr	r2, [r1, #20]
 800672c:	f042 0201 	orr.w	r2, r2, #1
 8006730:	614a      	str	r2, [r1, #20]
 8006732:	69da      	ldr	r2, [r3, #28]
 8006734:	f022 0201 	bic.w	r2, r2, #1
 8006738:	61da      	str	r2, [r3, #28]
 800673a:	b002      	add	sp, #8
 800673c:	4770      	bx	lr
 800673e:	bf00      	nop
 8006740:	40021000 	.word	0x40021000

08006744 <waitForPolarizationEnd>:
 8006744:	b470      	push	{r4, r5, r6}
 8006746:	6804      	ldr	r4, [r0, #0]
 8006748:	f004 0460 	and.w	r4, r4, #96	; 0x60
 800674c:	3201      	adds	r2, #1
 800674e:	2c60      	cmp	r4, #96	; 0x60
 8006750:	f06f 0602 	mvn.w	r6, #2
 8006754:	bf18      	it	ne
 8006756:	0852      	lsrne	r2, r2, #1
 8006758:	6106      	str	r6, [r0, #16]
 800675a:	0155      	lsls	r5, r2, #5
 800675c:	781a      	ldrb	r2, [r3, #0]
 800675e:	2400      	movs	r4, #0
 8006760:	2a0f      	cmp	r2, #15
 8006762:	d80c      	bhi.n	800677e <waitForPolarizationEnd+0x3a>
 8006764:	6902      	ldr	r2, [r0, #16]
 8006766:	0792      	lsls	r2, r2, #30
 8006768:	d5fc      	bpl.n	8006764 <waitForPolarizationEnd+0x20>
 800676a:	3401      	adds	r4, #1
 800676c:	b2a4      	uxth	r4, r4
 800676e:	6106      	str	r6, [r0, #16]
 8006770:	42a5      	cmp	r5, r4
 8006772:	781a      	ldrb	r2, [r3, #0]
 8006774:	d8f4      	bhi.n	8006760 <waitForPolarizationEnd+0x1c>
 8006776:	2a0f      	cmp	r2, #15
 8006778:	d8f2      	bhi.n	8006760 <waitForPolarizationEnd+0x1c>
 800677a:	2301      	movs	r3, #1
 800677c:	800b      	strh	r3, [r1, #0]
 800677e:	bc70      	pop	{r4, r5, r6}
 8006780:	4770      	bx	lr
 8006782:	bf00      	nop

08006784 <PWMC_GetPhaseCurrents>:
 8006784:	6843      	ldr	r3, [r0, #4]
 8006786:	4718      	bx	r3

08006788 <PWMC_SetPhaseVoltage>:
 8006788:	b4f0      	push	{r4, r5, r6, r7}
 800678a:	f8b0 5050 	ldrh.w	r5, [r0, #80]	; 0x50
 800678e:	8e07      	ldrh	r7, [r0, #48]	; 0x30
 8006790:	140b      	asrs	r3, r1, #16
 8006792:	b082      	sub	sp, #8
 8006794:	fb05 f303 	mul.w	r3, r5, r3
 8006798:	9101      	str	r1, [sp, #4]
 800679a:	ebc3 73c3 	rsb	r3, r3, r3, lsl #31
 800679e:	b209      	sxth	r1, r1
 80067a0:	005b      	lsls	r3, r3, #1
 80067a2:	fb07 f101 	mul.w	r1, r7, r1
 80067a6:	1a5f      	subs	r7, r3, r1
 80067a8:	4419      	add	r1, r3
 80067aa:	eb01 72d1 	add.w	r2, r1, r1, lsr #31
 80067ae:	eb07 74d7 	add.w	r4, r7, r7, lsr #31
 80067b2:	1052      	asrs	r2, r2, #1
 80067b4:	ea4f 0695 	mov.w	r6, r5, lsr #2
 80067b8:	ea4f 0464 	mov.w	r4, r4, asr #1
 80067bc:	d46b      	bmi.n	8006896 <PWMC_SetPhaseVoltage+0x10e>
 80067be:	2c00      	cmp	r4, #0
 80067c0:	db46      	blt.n	8006850 <PWMC_SetPhaseVoltage+0xc8>
 80067c2:	1b12      	subs	r2, r2, r4
 80067c4:	bf44      	itt	mi
 80067c6:	f502 327f 	addmi.w	r2, r2, #261120	; 0x3fc00
 80067ca:	f202 32ff 	addwmi	r2, r2, #1023	; 0x3ff
 80067ce:	1e3c      	subs	r4, r7, #0
 80067d0:	bfbc      	itt	lt
 80067d2:	f504 347f 	addlt.w	r4, r4, #261120	; 0x3fc00
 80067d6:	f204 34ff 	addwlt	r4, r4, #1023	; 0x3ff
 80067da:	2900      	cmp	r1, #0
 80067dc:	bfb8      	it	lt
 80067de:	f501 317f 	addlt.w	r1, r1, #261120	; 0x3fc00
 80067e2:	eb06 42a2 	add.w	r2, r6, r2, asr #18
 80067e6:	bfb8      	it	lt
 80067e8:	f201 31ff 	addwlt	r1, r1, #1023	; 0x3ff
 80067ec:	eb02 44a4 	add.w	r4, r2, r4, asr #18
 80067f0:	b295      	uxth	r5, r2
 80067f2:	eba2 42a1 	sub.w	r2, r2, r1, asr #18
 80067f6:	2301      	movs	r3, #1
 80067f8:	b2a4      	uxth	r4, r4
 80067fa:	b292      	uxth	r2, r2
 80067fc:	f880 303a 	strb.w	r3, [r0, #58]	; 0x3a
 8006800:	8784      	strh	r4, [r0, #60]	; 0x3c
 8006802:	87c5      	strh	r5, [r0, #62]	; 0x3e
 8006804:	f8a0 2040 	strh.w	r2, [r0, #64]	; 0x40
 8006808:	f8b0 304e 	ldrh.w	r3, [r0, #78]	; 0x4e
 800680c:	8645      	strh	r5, [r0, #50]	; 0x32
 800680e:	2b01      	cmp	r3, #1
 8006810:	8684      	strh	r4, [r0, #52]	; 0x34
 8006812:	86c2      	strh	r2, [r0, #54]	; 0x36
 8006814:	d118      	bne.n	8006848 <PWMC_SetPhaseVoltage+0xc0>
 8006816:	f9b0 3048 	ldrsh.w	r3, [r0, #72]	; 0x48
 800681a:	f8b0 7054 	ldrh.w	r7, [r0, #84]	; 0x54
 800681e:	2b00      	cmp	r3, #0
 8006820:	f9b0 304a 	ldrsh.w	r3, [r0, #74]	; 0x4a
 8006824:	bfcc      	ite	gt
 8006826:	19ed      	addgt	r5, r5, r7
 8006828:	1bed      	suble	r5, r5, r7
 800682a:	2b00      	cmp	r3, #0
 800682c:	f9b0 304c 	ldrsh.w	r3, [r0, #76]	; 0x4c
 8006830:	bfcc      	ite	gt
 8006832:	19e4      	addgt	r4, r4, r7
 8006834:	1be4      	suble	r4, r4, r7
 8006836:	2b00      	cmp	r3, #0
 8006838:	b2ad      	uxth	r5, r5
 800683a:	b2a4      	uxth	r4, r4
 800683c:	bfcc      	ite	gt
 800683e:	19d2      	addgt	r2, r2, r7
 8006840:	1bd2      	suble	r2, r2, r7
 8006842:	8645      	strh	r5, [r0, #50]	; 0x32
 8006844:	8684      	strh	r4, [r0, #52]	; 0x34
 8006846:	86c2      	strh	r2, [r0, #54]	; 0x36
 8006848:	6983      	ldr	r3, [r0, #24]
 800684a:	b002      	add	sp, #8
 800684c:	bcf0      	pop	{r4, r5, r6, r7}
 800684e:	4718      	bx	r3
 8006850:	2b00      	cmp	r3, #0
 8006852:	dd42      	ble.n	80068da <PWMC_SetPhaseVoltage+0x152>
 8006854:	2f00      	cmp	r7, #0
 8006856:	bfb8      	it	lt
 8006858:	f507 377f 	addlt.w	r7, r7, #261120	; 0x3fc00
 800685c:	eba3 0404 	sub.w	r4, r3, r4
 8006860:	bfb8      	it	lt
 8006862:	f207 37ff 	addwlt	r7, r7, #1023	; 0x3ff
 8006866:	2b00      	cmp	r3, #0
 8006868:	eb06 45a4 	add.w	r5, r6, r4, asr #18
 800686c:	bfb8      	it	lt
 800686e:	f503 33ff 	addlt.w	r3, r3, #130560	; 0x1fe00
 8006872:	eb05 47a7 	add.w	r7, r5, r7, asr #18
 8006876:	bfb8      	it	lt
 8006878:	f203 13ff 	addwlt	r3, r3, #511	; 0x1ff
 800687c:	2200      	movs	r2, #0
 800687e:	b2bc      	uxth	r4, r7
 8006880:	eba7 4763 	sub.w	r7, r7, r3, asr #17
 8006884:	f880 203a 	strb.w	r2, [r0, #58]	; 0x3a
 8006888:	b2ad      	uxth	r5, r5
 800688a:	b2ba      	uxth	r2, r7
 800688c:	8785      	strh	r5, [r0, #60]	; 0x3c
 800688e:	87c4      	strh	r4, [r0, #62]	; 0x3e
 8006890:	f8a0 2040 	strh.w	r2, [r0, #64]	; 0x40
 8006894:	e7b8      	b.n	8006808 <PWMC_SetPhaseVoltage+0x80>
 8006896:	2c00      	cmp	r4, #0
 8006898:	db65      	blt.n	8006966 <PWMC_SetPhaseVoltage+0x1de>
 800689a:	2b00      	cmp	r3, #0
 800689c:	dd3e      	ble.n	800691c <PWMC_SetPhaseVoltage+0x194>
 800689e:	1ad5      	subs	r5, r2, r3
 80068a0:	bf44      	itt	mi
 80068a2:	f505 357f 	addmi.w	r5, r5, #261120	; 0x3fc00
 80068a6:	f205 35ff 	addwmi	r5, r5, #1023	; 0x3ff
 80068aa:	2900      	cmp	r1, #0
 80068ac:	bfb8      	it	lt
 80068ae:	f501 317f 	addlt.w	r1, r1, #261120	; 0x3fc00
 80068b2:	eb06 45a5 	add.w	r5, r6, r5, asr #18
 80068b6:	bfb8      	it	lt
 80068b8:	f201 31ff 	addwlt	r1, r1, #1023	; 0x3ff
 80068bc:	eba5 42a1 	sub.w	r2, r5, r1, asr #18
 80068c0:	2402      	movs	r4, #2
 80068c2:	f880 403a 	strb.w	r4, [r0, #58]	; 0x3a
 80068c6:	eb02 4463 	add.w	r4, r2, r3, asr #17
 80068ca:	b2a4      	uxth	r4, r4
 80068cc:	b292      	uxth	r2, r2
 80068ce:	b2ad      	uxth	r5, r5
 80068d0:	8784      	strh	r4, [r0, #60]	; 0x3c
 80068d2:	87c2      	strh	r2, [r0, #62]	; 0x3e
 80068d4:	f8a0 5040 	strh.w	r5, [r0, #64]	; 0x40
 80068d8:	e796      	b.n	8006808 <PWMC_SetPhaseVoltage+0x80>
 80068da:	2900      	cmp	r1, #0
 80068dc:	bfb8      	it	lt
 80068de:	f501 317f 	addlt.w	r1, r1, #261120	; 0x3fc00
 80068e2:	eba2 0503 	sub.w	r5, r2, r3
 80068e6:	bfb8      	it	lt
 80068e8:	f201 31ff 	addwlt	r1, r1, #1023	; 0x3ff
 80068ec:	1e1c      	subs	r4, r3, #0
 80068ee:	eb06 45a5 	add.w	r5, r6, r5, asr #18
 80068f2:	bfb8      	it	lt
 80068f4:	f504 34ff 	addlt.w	r4, r4, #130560	; 0x1fe00
 80068f8:	eba5 41a1 	sub.w	r1, r5, r1, asr #18
 80068fc:	bfb8      	it	lt
 80068fe:	f204 14ff 	addwlt	r4, r4, #511	; 0x1ff
 8006902:	2205      	movs	r2, #5
 8006904:	eb01 4464 	add.w	r4, r1, r4, asr #17
 8006908:	f880 203a 	strb.w	r2, [r0, #58]	; 0x3a
 800690c:	b2ad      	uxth	r5, r5
 800690e:	b28a      	uxth	r2, r1
 8006910:	b2a4      	uxth	r4, r4
 8006912:	8785      	strh	r5, [r0, #60]	; 0x3c
 8006914:	87c2      	strh	r2, [r0, #62]	; 0x3e
 8006916:	f8a0 4040 	strh.w	r4, [r0, #64]	; 0x40
 800691a:	e775      	b.n	8006808 <PWMC_SetPhaseVoltage+0x80>
 800691c:	1b1c      	subs	r4, r3, r4
 800691e:	bf44      	itt	mi
 8006920:	f504 347f 	addmi.w	r4, r4, #261120	; 0x3fc00
 8006924:	f204 34ff 	addwmi	r4, r4, #1023	; 0x3ff
 8006928:	eb06 45a4 	add.w	r5, r6, r4, asr #18
 800692c:	1e3c      	subs	r4, r7, #0
 800692e:	bfbc      	itt	lt
 8006930:	f504 347f 	addlt.w	r4, r4, #261120	; 0x3fc00
 8006934:	f204 34ff 	addwlt	r4, r4, #1023	; 0x3ff
 8006938:	2b00      	cmp	r3, #0
 800693a:	bfb8      	it	lt
 800693c:	f503 33ff 	addlt.w	r3, r3, #130560	; 0x1fe00
 8006940:	eb05 44a4 	add.w	r4, r5, r4, asr #18
 8006944:	f04f 0203 	mov.w	r2, #3
 8006948:	bfb8      	it	lt
 800694a:	f203 13ff 	addwlt	r3, r3, #511	; 0x1ff
 800694e:	f880 203a 	strb.w	r2, [r0, #58]	; 0x3a
 8006952:	eba4 4263 	sub.w	r2, r4, r3, asr #17
 8006956:	b292      	uxth	r2, r2
 8006958:	b2a4      	uxth	r4, r4
 800695a:	b2ad      	uxth	r5, r5
 800695c:	8782      	strh	r2, [r0, #60]	; 0x3c
 800695e:	87c4      	strh	r4, [r0, #62]	; 0x3e
 8006960:	f8a0 5040 	strh.w	r5, [r0, #64]	; 0x40
 8006964:	e750      	b.n	8006808 <PWMC_SetPhaseVoltage+0x80>
 8006966:	1b14      	subs	r4, r2, r4
 8006968:	bf44      	itt	mi
 800696a:	f504 347f 	addmi.w	r4, r4, #261120	; 0x3fc00
 800696e:	f204 34ff 	addwmi	r4, r4, #1023	; 0x3ff
 8006972:	2900      	cmp	r1, #0
 8006974:	bfbc      	itt	lt
 8006976:	f501 317f 	addlt.w	r1, r1, #261120	; 0x3fc00
 800697a:	f201 31ff 	addwlt	r1, r1, #1023	; 0x3ff
 800697e:	2f00      	cmp	r7, #0
 8006980:	bfb8      	it	lt
 8006982:	f507 377f 	addlt.w	r7, r7, #261120	; 0x3fc00
 8006986:	eb06 44a4 	add.w	r4, r6, r4, asr #18
 800698a:	bfb8      	it	lt
 800698c:	f207 37ff 	addwlt	r7, r7, #1023	; 0x3ff
 8006990:	eba4 42a1 	sub.w	r2, r4, r1, asr #18
 8006994:	b2a5      	uxth	r5, r4
 8006996:	eb04 44a7 	add.w	r4, r4, r7, asr #18
 800699a:	2304      	movs	r3, #4
 800699c:	b292      	uxth	r2, r2
 800699e:	b2a4      	uxth	r4, r4
 80069a0:	f880 303a 	strb.w	r3, [r0, #58]	; 0x3a
 80069a4:	8782      	strh	r2, [r0, #60]	; 0x3c
 80069a6:	87c5      	strh	r5, [r0, #62]	; 0x3e
 80069a8:	f8a0 4040 	strh.w	r4, [r0, #64]	; 0x40
 80069ac:	e72c      	b.n	8006808 <PWMC_SetPhaseVoltage+0x80>
 80069ae:	bf00      	nop

080069b0 <PWMC_SwitchOffPWM>:
 80069b0:	6883      	ldr	r3, [r0, #8]
 80069b2:	4718      	bx	r3

080069b4 <PWMC_CurrentReadingCalibr>:
 80069b4:	b510      	push	{r4, lr}
 80069b6:	4604      	mov	r4, r0
 80069b8:	b082      	sub	sp, #8
 80069ba:	b1a1      	cbz	r1, 80069e6 <PWMC_CurrentReadingCalibr+0x32>
 80069bc:	2901      	cmp	r1, #1
 80069be:	d002      	beq.n	80069c6 <PWMC_CurrentReadingCalibr+0x12>
 80069c0:	2000      	movs	r0, #0
 80069c2:	b002      	add	sp, #8
 80069c4:	bd10      	pop	{r4, pc}
 80069c6:	f8b0 3044 	ldrh.w	r3, [r0, #68]	; 0x44
 80069ca:	b1d3      	cbz	r3, 8006a02 <PWMC_CurrentReadingCalibr+0x4e>
 80069cc:	3b01      	subs	r3, #1
 80069ce:	b29b      	uxth	r3, r3
 80069d0:	9101      	str	r1, [sp, #4]
 80069d2:	f8a0 3044 	strh.w	r3, [r0, #68]	; 0x44
 80069d6:	2b00      	cmp	r3, #0
 80069d8:	d1f2      	bne.n	80069c0 <PWMC_CurrentReadingCalibr+0xc>
 80069da:	6903      	ldr	r3, [r0, #16]
 80069dc:	4798      	blx	r3
 80069de:	9901      	ldr	r1, [sp, #4]
 80069e0:	4608      	mov	r0, r1
 80069e2:	b002      	add	sp, #8
 80069e4:	bd10      	pop	{r4, pc}
 80069e6:	f7ff ffe3 	bl	80069b0 <PWMC_SwitchOffPWM>
 80069ea:	f8b4 3052 	ldrh.w	r3, [r4, #82]	; 0x52
 80069ee:	f8a4 3044 	strh.w	r3, [r4, #68]	; 0x44
 80069f2:	2b00      	cmp	r3, #0
 80069f4:	d1e4      	bne.n	80069c0 <PWMC_CurrentReadingCalibr+0xc>
 80069f6:	4620      	mov	r0, r4
 80069f8:	6923      	ldr	r3, [r4, #16]
 80069fa:	4798      	blx	r3
 80069fc:	2001      	movs	r0, #1
 80069fe:	b002      	add	sp, #8
 8006a00:	bd10      	pop	{r4, pc}
 8006a02:	4608      	mov	r0, r1
 8006a04:	b002      	add	sp, #8
 8006a06:	bd10      	pop	{r4, pc}

08006a08 <PWMC_CheckOverCurrent>:
 8006a08:	69c3      	ldr	r3, [r0, #28]
 8006a0a:	4718      	bx	r3

08006a0c <R3_1_GetPhaseCurrents>:
 8006a0c:	b4f0      	push	{r4, r5, r6, r7}
 8006a0e:	6f43      	ldr	r3, [r0, #116]	; 0x74
 8006a10:	f890 403a 	ldrb.w	r4, [r0, #58]	; 0x3a
 8006a14:	685d      	ldr	r5, [r3, #4]
 8006a16:	eb03 0384 	add.w	r3, r3, r4, lsl #2
 8006a1a:	2c05      	cmp	r4, #5
 8006a1c:	6a5a      	ldr	r2, [r3, #36]	; 0x24
 8006a1e:	6bde      	ldr	r6, [r3, #60]	; 0x3c
 8006a20:	6813      	ldr	r3, [r2, #0]
 8006a22:	6836      	ldr	r6, [r6, #0]
 8006a24:	686a      	ldr	r2, [r5, #4]
 8006a26:	f022 0270 	bic.w	r2, r2, #112	; 0x70
 8006a2a:	606a      	str	r2, [r5, #4]
 8006a2c:	d821      	bhi.n	8006a72 <R3_1_GetPhaseCurrents+0x66>
 8006a2e:	2501      	movs	r5, #1
 8006a30:	fa05 f404 	lsl.w	r4, r5, r4
 8006a34:	f014 0f21 	tst.w	r4, #33	; 0x21
 8006a38:	d12c      	bne.n	8006a94 <R3_1_GetPhaseCurrents+0x88>
 8006a3a:	f014 0f06 	tst.w	r4, #6
 8006a3e:	d044      	beq.n	8006aca <R3_1_GetPhaseCurrents+0xbe>
 8006a40:	6dc2      	ldr	r2, [r0, #92]	; 0x5c
 8006a42:	4d53      	ldr	r5, [pc, #332]	; (8006b90 <R3_1_GetPhaseCurrents+0x184>)
 8006a44:	1ad4      	subs	r4, r2, r3
 8006a46:	42ac      	cmp	r4, r5
 8006a48:	da75      	bge.n	8006b36 <R3_1_GetPhaseCurrents+0x12a>
 8006a4a:	462c      	mov	r4, r5
 8006a4c:	800d      	strh	r5, [r1, #0]
 8006a4e:	462f      	mov	r7, r5
 8006a50:	f248 0301 	movw	r3, #32769	; 0x8001
 8006a54:	6e42      	ldr	r2, [r0, #100]	; 0x64
 8006a56:	1ab2      	subs	r2, r6, r2
 8006a58:	1b12      	subs	r2, r2, r4
 8006a5a:	f5b2 4f00 	cmp.w	r2, #32768	; 0x8000
 8006a5e:	da74      	bge.n	8006b4a <R3_1_GetPhaseCurrents+0x13e>
 8006a60:	4c4b      	ldr	r4, [pc, #300]	; (8006b90 <R3_1_GetPhaseCurrents+0x184>)
 8006a62:	42a2      	cmp	r2, r4
 8006a64:	db7d      	blt.n	8006b62 <R3_1_GetPhaseCurrents+0x156>
 8006a66:	fa0f fc82 	sxth.w	ip, r2
 8006a6a:	f8a1 c002 	strh.w	ip, [r1, #2]
 8006a6e:	b292      	uxth	r2, r2
 8006a70:	e006      	b.n	8006a80 <R3_1_GetPhaseCurrents+0x74>
 8006a72:	f9b1 7000 	ldrsh.w	r7, [r1]
 8006a76:	f9b1 c002 	ldrsh.w	ip, [r1, #2]
 8006a7a:	b2bb      	uxth	r3, r7
 8006a7c:	fa1f f28c 	uxth.w	r2, ip
 8006a80:	4413      	add	r3, r2
 8006a82:	425b      	negs	r3, r3
 8006a84:	f8a0 7048 	strh.w	r7, [r0, #72]	; 0x48
 8006a88:	f8a0 304c 	strh.w	r3, [r0, #76]	; 0x4c
 8006a8c:	f8a0 c04a 	strh.w	ip, [r0, #74]	; 0x4a
 8006a90:	bcf0      	pop	{r4, r5, r6, r7}
 8006a92:	4770      	bx	lr
 8006a94:	6e04      	ldr	r4, [r0, #96]	; 0x60
 8006a96:	4d3e      	ldr	r5, [pc, #248]	; (8006b90 <R3_1_GetPhaseCurrents+0x184>)
 8006a98:	1ae4      	subs	r4, r4, r3
 8006a9a:	42ac      	cmp	r4, r5
 8006a9c:	db35      	blt.n	8006b0a <R3_1_GetPhaseCurrents+0xfe>
 8006a9e:	f5b4 4f00 	cmp.w	r4, #32768	; 0x8000
 8006aa2:	db42      	blt.n	8006b2a <R3_1_GetPhaseCurrents+0x11e>
 8006aa4:	f647 73ff 	movw	r3, #32767	; 0x7fff
 8006aa8:	461a      	mov	r2, r3
 8006aaa:	804b      	strh	r3, [r1, #2]
 8006aac:	461c      	mov	r4, r3
 8006aae:	469c      	mov	ip, r3
 8006ab0:	6e45      	ldr	r5, [r0, #100]	; 0x64
 8006ab2:	1b73      	subs	r3, r6, r5
 8006ab4:	1b1c      	subs	r4, r3, r4
 8006ab6:	f5b4 4f00 	cmp.w	r4, #32768	; 0x8000
 8006aba:	da2c      	bge.n	8006b16 <R3_1_GetPhaseCurrents+0x10a>
 8006abc:	4f34      	ldr	r7, [pc, #208]	; (8006b90 <R3_1_GetPhaseCurrents+0x184>)
 8006abe:	42bc      	cmp	r4, r7
 8006ac0:	da2f      	bge.n	8006b22 <R3_1_GetPhaseCurrents+0x116>
 8006ac2:	800f      	strh	r7, [r1, #0]
 8006ac4:	f248 0301 	movw	r3, #32769	; 0x8001
 8006ac8:	e7da      	b.n	8006a80 <R3_1_GetPhaseCurrents+0x74>
 8006aca:	f014 0f18 	tst.w	r4, #24
 8006ace:	d0d0      	beq.n	8006a72 <R3_1_GetPhaseCurrents+0x66>
 8006ad0:	6dc4      	ldr	r4, [r0, #92]	; 0x5c
 8006ad2:	4a2f      	ldr	r2, [pc, #188]	; (8006b90 <R3_1_GetPhaseCurrents+0x184>)
 8006ad4:	1ae4      	subs	r4, r4, r3
 8006ad6:	4294      	cmp	r4, r2
 8006ad8:	db41      	blt.n	8006b5e <R3_1_GetPhaseCurrents+0x152>
 8006ada:	f5b4 4f00 	cmp.w	r4, #32768	; 0x8000
 8006ade:	bfa6      	itte	ge
 8006ae0:	f647 73ff 	movwge	r3, #32767	; 0x7fff
 8006ae4:	800b      	strhge	r3, [r1, #0]
 8006ae6:	800c      	strhlt	r4, [r1, #0]
 8006ae8:	6e02      	ldr	r2, [r0, #96]	; 0x60
 8006aea:	4b29      	ldr	r3, [pc, #164]	; (8006b90 <R3_1_GetPhaseCurrents+0x184>)
 8006aec:	1b92      	subs	r2, r2, r6
 8006aee:	429a      	cmp	r2, r3
 8006af0:	db3c      	blt.n	8006b6c <R3_1_GetPhaseCurrents+0x160>
 8006af2:	f5b2 4f00 	cmp.w	r2, #32768	; 0x8000
 8006af6:	db41      	blt.n	8006b7c <R3_1_GetPhaseCurrents+0x170>
 8006af8:	f9b1 7000 	ldrsh.w	r7, [r1]
 8006afc:	f647 73ff 	movw	r3, #32767	; 0x7fff
 8006b00:	804b      	strh	r3, [r1, #2]
 8006b02:	461a      	mov	r2, r3
 8006b04:	469c      	mov	ip, r3
 8006b06:	b2bb      	uxth	r3, r7
 8006b08:	e7ba      	b.n	8006a80 <R3_1_GetPhaseCurrents+0x74>
 8006b0a:	462c      	mov	r4, r5
 8006b0c:	804d      	strh	r5, [r1, #2]
 8006b0e:	46ac      	mov	ip, r5
 8006b10:	f248 0201 	movw	r2, #32769	; 0x8001
 8006b14:	e7cc      	b.n	8006ab0 <R3_1_GetPhaseCurrents+0xa4>
 8006b16:	f647 74ff 	movw	r4, #32767	; 0x7fff
 8006b1a:	4623      	mov	r3, r4
 8006b1c:	800c      	strh	r4, [r1, #0]
 8006b1e:	4627      	mov	r7, r4
 8006b20:	e7ae      	b.n	8006a80 <R3_1_GetPhaseCurrents+0x74>
 8006b22:	b227      	sxth	r7, r4
 8006b24:	800f      	strh	r7, [r1, #0]
 8006b26:	b2a3      	uxth	r3, r4
 8006b28:	e7aa      	b.n	8006a80 <R3_1_GetPhaseCurrents+0x74>
 8006b2a:	fa0f fc84 	sxth.w	ip, r4
 8006b2e:	f8a1 c002 	strh.w	ip, [r1, #2]
 8006b32:	b2a2      	uxth	r2, r4
 8006b34:	e7bc      	b.n	8006ab0 <R3_1_GetPhaseCurrents+0xa4>
 8006b36:	f5b4 4f00 	cmp.w	r4, #32768	; 0x8000
 8006b3a:	db0c      	blt.n	8006b56 <R3_1_GetPhaseCurrents+0x14a>
 8006b3c:	f647 72ff 	movw	r2, #32767	; 0x7fff
 8006b40:	4613      	mov	r3, r2
 8006b42:	800a      	strh	r2, [r1, #0]
 8006b44:	4614      	mov	r4, r2
 8006b46:	4617      	mov	r7, r2
 8006b48:	e784      	b.n	8006a54 <R3_1_GetPhaseCurrents+0x48>
 8006b4a:	f647 74ff 	movw	r4, #32767	; 0x7fff
 8006b4e:	4622      	mov	r2, r4
 8006b50:	804c      	strh	r4, [r1, #2]
 8006b52:	46a4      	mov	ip, r4
 8006b54:	e794      	b.n	8006a80 <R3_1_GetPhaseCurrents+0x74>
 8006b56:	b227      	sxth	r7, r4
 8006b58:	800f      	strh	r7, [r1, #0]
 8006b5a:	b2a3      	uxth	r3, r4
 8006b5c:	e77a      	b.n	8006a54 <R3_1_GetPhaseCurrents+0x48>
 8006b5e:	800a      	strh	r2, [r1, #0]
 8006b60:	e7c2      	b.n	8006ae8 <R3_1_GetPhaseCurrents+0xdc>
 8006b62:	804c      	strh	r4, [r1, #2]
 8006b64:	46a4      	mov	ip, r4
 8006b66:	f248 0201 	movw	r2, #32769	; 0x8001
 8006b6a:	e789      	b.n	8006a80 <R3_1_GetPhaseCurrents+0x74>
 8006b6c:	f9b1 7000 	ldrsh.w	r7, [r1]
 8006b70:	804b      	strh	r3, [r1, #2]
 8006b72:	469c      	mov	ip, r3
 8006b74:	f248 0201 	movw	r2, #32769	; 0x8001
 8006b78:	b2bb      	uxth	r3, r7
 8006b7a:	e781      	b.n	8006a80 <R3_1_GetPhaseCurrents+0x74>
 8006b7c:	f9b1 7000 	ldrsh.w	r7, [r1]
 8006b80:	fa0f fc82 	sxth.w	ip, r2
 8006b84:	b2bb      	uxth	r3, r7
 8006b86:	f8a1 c002 	strh.w	ip, [r1, #2]
 8006b8a:	b292      	uxth	r2, r2
 8006b8c:	e778      	b.n	8006a80 <R3_1_GetPhaseCurrents+0x74>
 8006b8e:	bf00      	nop
 8006b90:	ffff8001 	.word	0xffff8001

08006b94 <R3_1_SetADCSampPointPolarization>:
 8006b94:	b430      	push	{r4, r5}
 8006b96:	6f43      	ldr	r3, [r0, #116]	; 0x74
 8006b98:	f890 106f 	ldrb.w	r1, [r0, #111]	; 0x6f
 8006b9c:	f8b0 2068 	ldrh.w	r2, [r0, #104]	; 0x68
 8006ba0:	f880 103a 	strb.w	r1, [r0, #58]	; 0x3a
 8006ba4:	685b      	ldr	r3, [r3, #4]
 8006ba6:	8e45      	ldrh	r5, [r0, #50]	; 0x32
 8006ba8:	8e84      	ldrh	r4, [r0, #52]	; 0x34
 8006baa:	8ec1      	ldrh	r1, [r0, #54]	; 0x36
 8006bac:	635d      	str	r5, [r3, #52]	; 0x34
 8006bae:	3a01      	subs	r2, #1
 8006bb0:	b292      	uxth	r2, r2
 8006bb2:	639c      	str	r4, [r3, #56]	; 0x38
 8006bb4:	63d9      	str	r1, [r3, #60]	; 0x3c
 8006bb6:	641a      	str	r2, [r3, #64]	; 0x40
 8006bb8:	685b      	ldr	r3, [r3, #4]
 8006bba:	f013 0f70 	tst.w	r3, #112	; 0x70
 8006bbe:	bf14      	ite	ne
 8006bc0:	2001      	movne	r0, #1
 8006bc2:	2000      	moveq	r0, #0
 8006bc4:	bc30      	pop	{r4, r5}
 8006bc6:	4770      	bx	lr

08006bc8 <R3_1_SetADCSampPointSectX>:
 8006bc8:	b470      	push	{r4, r5, r6}
 8006bca:	f8b0 1068 	ldrh.w	r1, [r0, #104]	; 0x68
 8006bce:	8f83      	ldrh	r3, [r0, #60]	; 0x3c
 8006bd0:	6f44      	ldr	r4, [r0, #116]	; 0x74
 8006bd2:	1aca      	subs	r2, r1, r3
 8006bd4:	f8b4 6072 	ldrh.w	r6, [r4, #114]	; 0x72
 8006bd8:	b292      	uxth	r2, r2
 8006bda:	42b2      	cmp	r2, r6
 8006bdc:	d914      	bls.n	8006c08 <R3_1_SetADCSampPointSectX+0x40>
 8006bde:	1e4b      	subs	r3, r1, #1
 8006be0:	2204      	movs	r2, #4
 8006be2:	b29b      	uxth	r3, r3
 8006be4:	f880 203a 	strb.w	r2, [r0, #58]	; 0x3a
 8006be8:	6862      	ldr	r2, [r4, #4]
 8006bea:	8e45      	ldrh	r5, [r0, #50]	; 0x32
 8006bec:	8e84      	ldrh	r4, [r0, #52]	; 0x34
 8006bee:	8ec1      	ldrh	r1, [r0, #54]	; 0x36
 8006bf0:	6355      	str	r5, [r2, #52]	; 0x34
 8006bf2:	6394      	str	r4, [r2, #56]	; 0x38
 8006bf4:	63d1      	str	r1, [r2, #60]	; 0x3c
 8006bf6:	6413      	str	r3, [r2, #64]	; 0x40
 8006bf8:	6853      	ldr	r3, [r2, #4]
 8006bfa:	f013 0f70 	tst.w	r3, #112	; 0x70
 8006bfe:	bf14      	ite	ne
 8006c00:	2001      	movne	r0, #1
 8006c02:	2000      	moveq	r0, #0
 8006c04:	bc70      	pop	{r4, r5, r6}
 8006c06:	4770      	bx	lr
 8006c08:	8fc5      	ldrh	r5, [r0, #62]	; 0x3e
 8006c0a:	1b5d      	subs	r5, r3, r5
 8006c0c:	b2ad      	uxth	r5, r5
 8006c0e:	ebb5 0f42 	cmp.w	r5, r2, lsl #1
 8006c12:	d904      	bls.n	8006c1e <R3_1_SetADCSampPointSectX+0x56>
 8006c14:	f8b4 2074 	ldrh.w	r2, [r4, #116]	; 0x74
 8006c18:	1a9b      	subs	r3, r3, r2
 8006c1a:	b29b      	uxth	r3, r3
 8006c1c:	e7e4      	b.n	8006be8 <R3_1_SetADCSampPointSectX+0x20>
 8006c1e:	4433      	add	r3, r6
 8006c20:	b29b      	uxth	r3, r3
 8006c22:	4299      	cmp	r1, r3
 8006c24:	d8e0      	bhi.n	8006be8 <R3_1_SetADCSampPointSectX+0x20>
 8006c26:	43db      	mvns	r3, r3
 8006c28:	eb03 0341 	add.w	r3, r3, r1, lsl #1
 8006c2c:	2280      	movs	r2, #128	; 0x80
 8006c2e:	b29b      	uxth	r3, r3
 8006c30:	f8a0 206c 	strh.w	r2, [r0, #108]	; 0x6c
 8006c34:	e7d8      	b.n	8006be8 <R3_1_SetADCSampPointSectX+0x20>
 8006c36:	bf00      	nop

08006c38 <R3_1_HFCurrentsPolarizationAB>:
 8006c38:	b470      	push	{r4, r5, r6}
 8006c3a:	6f43      	ldr	r3, [r0, #116]	; 0x74
 8006c3c:	f890 406f 	ldrb.w	r4, [r0, #111]	; 0x6f
 8006c40:	685a      	ldr	r2, [r3, #4]
 8006c42:	eb03 0384 	add.w	r3, r3, r4, lsl #2
 8006c46:	6a5c      	ldr	r4, [r3, #36]	; 0x24
 8006c48:	6bdb      	ldr	r3, [r3, #60]	; 0x3c
 8006c4a:	6826      	ldr	r6, [r4, #0]
 8006c4c:	681d      	ldr	r5, [r3, #0]
 8006c4e:	6853      	ldr	r3, [r2, #4]
 8006c50:	f023 0370 	bic.w	r3, r3, #112	; 0x70
 8006c54:	6053      	str	r3, [r2, #4]
 8006c56:	f890 306e 	ldrb.w	r3, [r0, #110]	; 0x6e
 8006c5a:	2b0f      	cmp	r3, #15
 8006c5c:	d808      	bhi.n	8006c70 <R3_1_HFCurrentsPolarizationAB+0x38>
 8006c5e:	e9d0 4217 	ldrd	r4, r2, [r0, #92]	; 0x5c
 8006c62:	4434      	add	r4, r6
 8006c64:	442a      	add	r2, r5
 8006c66:	e9c0 4217 	strd	r4, r2, [r0, #92]	; 0x5c
 8006c6a:	3301      	adds	r3, #1
 8006c6c:	f880 306e 	strb.w	r3, [r0, #110]	; 0x6e
 8006c70:	2300      	movs	r3, #0
 8006c72:	600b      	str	r3, [r1, #0]
 8006c74:	bc70      	pop	{r4, r5, r6}
 8006c76:	4770      	bx	lr

08006c78 <R3_1_HFCurrentsPolarizationC>:
 8006c78:	6f43      	ldr	r3, [r0, #116]	; 0x74
 8006c7a:	b410      	push	{r4}
 8006c7c:	f890 406f 	ldrb.w	r4, [r0, #111]	; 0x6f
 8006c80:	685a      	ldr	r2, [r3, #4]
 8006c82:	eb03 0384 	add.w	r3, r3, r4, lsl #2
 8006c86:	6bdb      	ldr	r3, [r3, #60]	; 0x3c
 8006c88:	681c      	ldr	r4, [r3, #0]
 8006c8a:	6853      	ldr	r3, [r2, #4]
 8006c8c:	f023 0370 	bic.w	r3, r3, #112	; 0x70
 8006c90:	6053      	str	r3, [r2, #4]
 8006c92:	f890 306e 	ldrb.w	r3, [r0, #110]	; 0x6e
 8006c96:	2b0f      	cmp	r3, #15
 8006c98:	d805      	bhi.n	8006ca6 <R3_1_HFCurrentsPolarizationC+0x2e>
 8006c9a:	6e42      	ldr	r2, [r0, #100]	; 0x64
 8006c9c:	3301      	adds	r3, #1
 8006c9e:	4422      	add	r2, r4
 8006ca0:	f880 306e 	strb.w	r3, [r0, #110]	; 0x6e
 8006ca4:	6642      	str	r2, [r0, #100]	; 0x64
 8006ca6:	2300      	movs	r3, #0
 8006ca8:	600b      	str	r3, [r1, #0]
 8006caa:	f85d 4b04 	ldr.w	r4, [sp], #4
 8006cae:	4770      	bx	lr

08006cb0 <R3_1_TurnOnLowSides>:
 8006cb0:	6f41      	ldr	r1, [r0, #116]	; 0x74
 8006cb2:	2201      	movs	r2, #1
 8006cb4:	684b      	ldr	r3, [r1, #4]
 8006cb6:	f880 2042 	strb.w	r2, [r0, #66]	; 0x42
 8006cba:	2200      	movs	r2, #0
 8006cbc:	f06f 0001 	mvn.w	r0, #1
 8006cc0:	6118      	str	r0, [r3, #16]
 8006cc2:	635a      	str	r2, [r3, #52]	; 0x34
 8006cc4:	639a      	str	r2, [r3, #56]	; 0x38
 8006cc6:	63da      	str	r2, [r3, #60]	; 0x3c
 8006cc8:	691a      	ldr	r2, [r3, #16]
 8006cca:	07d2      	lsls	r2, r2, #31
 8006ccc:	d5fc      	bpl.n	8006cc8 <R3_1_TurnOnLowSides+0x18>
 8006cce:	6c5a      	ldr	r2, [r3, #68]	; 0x44
 8006cd0:	f891 007a 	ldrb.w	r0, [r1, #122]	; 0x7a
 8006cd4:	f442 4200 	orr.w	r2, r2, #32768	; 0x8000
 8006cd8:	2802      	cmp	r0, #2
 8006cda:	645a      	str	r2, [r3, #68]	; 0x44
 8006cdc:	d000      	beq.n	8006ce0 <R3_1_TurnOnLowSides+0x30>
 8006cde:	4770      	bx	lr
 8006ce0:	b470      	push	{r4, r5, r6}
 8006ce2:	e9d1 5006 	ldrd	r5, r0, [r1, #24]
 8006ce6:	6a0b      	ldr	r3, [r1, #32]
 8006ce8:	f8b1 606c 	ldrh.w	r6, [r1, #108]	; 0x6c
 8006cec:	f8b1 406e 	ldrh.w	r4, [r1, #110]	; 0x6e
 8006cf0:	f8b1 2070 	ldrh.w	r2, [r1, #112]	; 0x70
 8006cf4:	61ae      	str	r6, [r5, #24]
 8006cf6:	6184      	str	r4, [r0, #24]
 8006cf8:	619a      	str	r2, [r3, #24]
 8006cfa:	bc70      	pop	{r4, r5, r6}
 8006cfc:	4770      	bx	lr
 8006cfe:	bf00      	nop

08006d00 <R3_1_SwitchOnPWM>:
 8006d00:	6f41      	ldr	r1, [r0, #116]	; 0x74
 8006d02:	f8b0 2068 	ldrh.w	r2, [r0, #104]	; 0x68
 8006d06:	684b      	ldr	r3, [r1, #4]
 8006d08:	b4f0      	push	{r4, r5, r6, r7}
 8006d0a:	2400      	movs	r4, #0
 8006d0c:	f880 4042 	strb.w	r4, [r0, #66]	; 0x42
 8006d10:	0850      	lsrs	r0, r2, #1
 8006d12:	f06f 0401 	mvn.w	r4, #1
 8006d16:	3a05      	subs	r2, #5
 8006d18:	6358      	str	r0, [r3, #52]	; 0x34
 8006d1a:	6398      	str	r0, [r3, #56]	; 0x38
 8006d1c:	63d8      	str	r0, [r3, #60]	; 0x3c
 8006d1e:	641a      	str	r2, [r3, #64]	; 0x40
 8006d20:	611c      	str	r4, [r3, #16]
 8006d22:	691a      	ldr	r2, [r3, #16]
 8006d24:	07d2      	lsls	r2, r2, #31
 8006d26:	d5fc      	bpl.n	8006d22 <R3_1_SwitchOnPWM+0x22>
 8006d28:	f06f 0201 	mvn.w	r2, #1
 8006d2c:	611a      	str	r2, [r3, #16]
 8006d2e:	6c5a      	ldr	r2, [r3, #68]	; 0x44
 8006d30:	f891 007a 	ldrb.w	r0, [r1, #122]	; 0x7a
 8006d34:	f442 6280 	orr.w	r2, r2, #1024	; 0x400
 8006d38:	645a      	str	r2, [r3, #68]	; 0x44
 8006d3a:	6c5a      	ldr	r2, [r3, #68]	; 0x44
 8006d3c:	2802      	cmp	r0, #2
 8006d3e:	f442 4200 	orr.w	r2, r2, #32768	; 0x8000
 8006d42:	645a      	str	r2, [r3, #68]	; 0x44
 8006d44:	d008      	beq.n	8006d58 <R3_1_SwitchOnPWM+0x58>
 8006d46:	f06f 0201 	mvn.w	r2, #1
 8006d4a:	611a      	str	r2, [r3, #16]
 8006d4c:	68da      	ldr	r2, [r3, #12]
 8006d4e:	f042 0201 	orr.w	r2, r2, #1
 8006d52:	60da      	str	r2, [r3, #12]
 8006d54:	bcf0      	pop	{r4, r5, r6, r7}
 8006d56:	4770      	bx	lr
 8006d58:	f8d3 c020 	ldr.w	ip, [r3, #32]
 8006d5c:	698d      	ldr	r5, [r1, #24]
 8006d5e:	f8b1 606c 	ldrh.w	r6, [r1, #108]	; 0x6c
 8006d62:	69c8      	ldr	r0, [r1, #28]
 8006d64:	f8b1 406e 	ldrh.w	r4, [r1, #110]	; 0x6e
 8006d68:	6a0a      	ldr	r2, [r1, #32]
 8006d6a:	f8b1 1070 	ldrh.w	r1, [r1, #112]	; 0x70
 8006d6e:	f240 5755 	movw	r7, #1365	; 0x555
 8006d72:	ea1c 0f07 	tst.w	ip, r7
 8006d76:	d103      	bne.n	8006d80 <R3_1_SwitchOnPWM+0x80>
 8006d78:	62ae      	str	r6, [r5, #40]	; 0x28
 8006d7a:	6284      	str	r4, [r0, #40]	; 0x28
 8006d7c:	6291      	str	r1, [r2, #40]	; 0x28
 8006d7e:	e7e2      	b.n	8006d46 <R3_1_SwitchOnPWM+0x46>
 8006d80:	61ae      	str	r6, [r5, #24]
 8006d82:	6184      	str	r4, [r0, #24]
 8006d84:	6191      	str	r1, [r2, #24]
 8006d86:	e7de      	b.n	8006d46 <R3_1_SwitchOnPWM+0x46>

08006d88 <R3_1_SwitchOffPWM>:
 8006d88:	6f41      	ldr	r1, [r0, #116]	; 0x74
 8006d8a:	684b      	ldr	r3, [r1, #4]
 8006d8c:	68da      	ldr	r2, [r3, #12]
 8006d8e:	f022 0201 	bic.w	r2, r2, #1
 8006d92:	b430      	push	{r4, r5}
 8006d94:	f890 4072 	ldrb.w	r4, [r0, #114]	; 0x72
 8006d98:	60da      	str	r2, [r3, #12]
 8006d9a:	6c5a      	ldr	r2, [r3, #68]	; 0x44
 8006d9c:	2500      	movs	r5, #0
 8006d9e:	f422 4200 	bic.w	r2, r2, #32768	; 0x8000
 8006da2:	f880 5042 	strb.w	r5, [r0, #66]	; 0x42
 8006da6:	645a      	str	r2, [r3, #68]	; 0x44
 8006da8:	b91c      	cbnz	r4, 8006db2 <R3_1_SwitchOffPWM+0x2a>
 8006daa:	f891 207a 	ldrb.w	r2, [r1, #122]	; 0x7a
 8006dae:	2a02      	cmp	r2, #2
 8006db0:	d00a      	beq.n	8006dc8 <R3_1_SwitchOffPWM+0x40>
 8006db2:	f06f 0201 	mvn.w	r2, #1
 8006db6:	611a      	str	r2, [r3, #16]
 8006db8:	691a      	ldr	r2, [r3, #16]
 8006dba:	07d2      	lsls	r2, r2, #31
 8006dbc:	d5fc      	bpl.n	8006db8 <R3_1_SwitchOffPWM+0x30>
 8006dbe:	f06f 0201 	mvn.w	r2, #1
 8006dc2:	611a      	str	r2, [r3, #16]
 8006dc4:	bc30      	pop	{r4, r5}
 8006dc6:	4770      	bx	lr
 8006dc8:	e9d1 4006 	ldrd	r4, r0, [r1, #24]
 8006dcc:	6a0a      	ldr	r2, [r1, #32]
 8006dce:	f8b1 506c 	ldrh.w	r5, [r1, #108]	; 0x6c
 8006dd2:	62a5      	str	r5, [r4, #40]	; 0x28
 8006dd4:	f8b1 406e 	ldrh.w	r4, [r1, #110]	; 0x6e
 8006dd8:	f8b1 1070 	ldrh.w	r1, [r1, #112]	; 0x70
 8006ddc:	6284      	str	r4, [r0, #40]	; 0x28
 8006dde:	6291      	str	r1, [r2, #40]	; 0x28
 8006de0:	e7e7      	b.n	8006db2 <R3_1_SwitchOffPWM+0x2a>
 8006de2:	bf00      	nop

08006de4 <R3_1_RLGetPhaseCurrents>:
 8006de4:	6f42      	ldr	r2, [r0, #116]	; 0x74
 8006de6:	6e03      	ldr	r3, [r0, #96]	; 0x60
 8006de8:	b430      	push	{r4, r5}
 8006dea:	6855      	ldr	r5, [r2, #4]
 8006dec:	686c      	ldr	r4, [r5, #4]
 8006dee:	f024 0470 	bic.w	r4, r4, #112	; 0x70
 8006df2:	606c      	str	r4, [r5, #4]
 8006df4:	f890 403a 	ldrb.w	r4, [r0, #58]	; 0x3a
 8006df8:	480d      	ldr	r0, [pc, #52]	; (8006e30 <R3_1_RLGetPhaseCurrents+0x4c>)
 8006dfa:	eb02 0284 	add.w	r2, r2, r4, lsl #2
 8006dfe:	6bd2      	ldr	r2, [r2, #60]	; 0x3c
 8006e00:	6812      	ldr	r2, [r2, #0]
 8006e02:	1a9b      	subs	r3, r3, r2
 8006e04:	4283      	cmp	r3, r0
 8006e06:	db0e      	blt.n	8006e26 <R3_1_RLGetPhaseCurrents+0x42>
 8006e08:	f647 72fe 	movw	r2, #32766	; 0x7ffe
 8006e0c:	4293      	cmp	r3, r2
 8006e0e:	dd05      	ble.n	8006e1c <R3_1_RLGetPhaseCurrents+0x38>
 8006e10:	f647 73ff 	movw	r3, #32767	; 0x7fff
 8006e14:	800b      	strh	r3, [r1, #0]
 8006e16:	804b      	strh	r3, [r1, #2]
 8006e18:	bc30      	pop	{r4, r5}
 8006e1a:	4770      	bx	lr
 8006e1c:	b21b      	sxth	r3, r3
 8006e1e:	800b      	strh	r3, [r1, #0]
 8006e20:	804b      	strh	r3, [r1, #2]
 8006e22:	bc30      	pop	{r4, r5}
 8006e24:	4770      	bx	lr
 8006e26:	4b03      	ldr	r3, [pc, #12]	; (8006e34 <R3_1_RLGetPhaseCurrents+0x50>)
 8006e28:	800b      	strh	r3, [r1, #0]
 8006e2a:	804b      	strh	r3, [r1, #2]
 8006e2c:	bc30      	pop	{r4, r5}
 8006e2e:	4770      	bx	lr
 8006e30:	ffff8002 	.word	0xffff8002
 8006e34:	ffff8001 	.word	0xffff8001

08006e38 <R3_1_RLTurnOnLowSides>:
 8006e38:	6f41      	ldr	r1, [r0, #116]	; 0x74
 8006e3a:	684a      	ldr	r2, [r1, #4]
 8006e3c:	2000      	movs	r0, #0
 8006e3e:	f06f 0301 	mvn.w	r3, #1
 8006e42:	6350      	str	r0, [r2, #52]	; 0x34
 8006e44:	6113      	str	r3, [r2, #16]
 8006e46:	6913      	ldr	r3, [r2, #16]
 8006e48:	07db      	lsls	r3, r3, #31
 8006e4a:	d5fc      	bpl.n	8006e46 <R3_1_RLTurnOnLowSides+0xe>
 8006e4c:	f06f 0301 	mvn.w	r3, #1
 8006e50:	6113      	str	r3, [r2, #16]
 8006e52:	6c53      	ldr	r3, [r2, #68]	; 0x44
 8006e54:	f891 007a 	ldrb.w	r0, [r1, #122]	; 0x7a
 8006e58:	f443 4300 	orr.w	r3, r3, #32768	; 0x8000
 8006e5c:	2802      	cmp	r0, #2
 8006e5e:	6453      	str	r3, [r2, #68]	; 0x44
 8006e60:	d000      	beq.n	8006e64 <R3_1_RLTurnOnLowSides+0x2c>
 8006e62:	4770      	bx	lr
 8006e64:	b470      	push	{r4, r5, r6}
 8006e66:	e9d1 5006 	ldrd	r5, r0, [r1, #24]
 8006e6a:	6a0b      	ldr	r3, [r1, #32]
 8006e6c:	f8b1 606c 	ldrh.w	r6, [r1, #108]	; 0x6c
 8006e70:	f8b1 406e 	ldrh.w	r4, [r1, #110]	; 0x6e
 8006e74:	f8b1 2070 	ldrh.w	r2, [r1, #112]	; 0x70
 8006e78:	61ae      	str	r6, [r5, #24]
 8006e7a:	6284      	str	r4, [r0, #40]	; 0x28
 8006e7c:	629a      	str	r2, [r3, #40]	; 0x28
 8006e7e:	bc70      	pop	{r4, r5, r6}
 8006e80:	4770      	bx	lr
 8006e82:	bf00      	nop

08006e84 <R3_1_RLSwitchOnPWM>:
 8006e84:	6f41      	ldr	r1, [r0, #116]	; 0x74
 8006e86:	2200      	movs	r2, #0
 8006e88:	e92d 41f0 	stmdb	sp!, {r4, r5, r6, r7, r8, lr}
 8006e8c:	e9d1 4300 	ldrd	r4, r3, [r1]
 8006e90:	f880 2042 	strb.w	r2, [r0, #66]	; 0x42
 8006e94:	681a      	ldr	r2, [r3, #0]
 8006e96:	06d6      	lsls	r6, r2, #27
 8006e98:	d4fc      	bmi.n	8006e94 <R3_1_RLSwitchOnPWM+0x10>
 8006e9a:	681a      	ldr	r2, [r3, #0]
 8006e9c:	06d5      	lsls	r5, r2, #27
 8006e9e:	d5fc      	bpl.n	8006e9a <R3_1_RLSwitchOnPWM+0x16>
 8006ea0:	f8b0 2068 	ldrh.w	r2, [r0, #104]	; 0x68
 8006ea4:	2601      	movs	r6, #1
 8006ea6:	3a05      	subs	r2, #5
 8006ea8:	f06f 0501 	mvn.w	r5, #1
 8006eac:	635e      	str	r6, [r3, #52]	; 0x34
 8006eae:	641a      	str	r2, [r3, #64]	; 0x40
 8006eb0:	611d      	str	r5, [r3, #16]
 8006eb2:	691a      	ldr	r2, [r3, #16]
 8006eb4:	07d2      	lsls	r2, r2, #31
 8006eb6:	d5fc      	bpl.n	8006eb2 <R3_1_RLSwitchOnPWM+0x2e>
 8006eb8:	f06f 0201 	mvn.w	r2, #1
 8006ebc:	611a      	str	r2, [r3, #16]
 8006ebe:	6c5a      	ldr	r2, [r3, #68]	; 0x44
 8006ec0:	f891 507a 	ldrb.w	r5, [r1, #122]	; 0x7a
 8006ec4:	f442 6280 	orr.w	r2, r2, #1024	; 0x400
 8006ec8:	645a      	str	r2, [r3, #68]	; 0x44
 8006eca:	6c5a      	ldr	r2, [r3, #68]	; 0x44
 8006ecc:	2d02      	cmp	r5, #2
 8006ece:	f442 4200 	orr.w	r2, r2, #32768	; 0x8000
 8006ed2:	645a      	str	r2, [r3, #68]	; 0x44
 8006ed4:	d116      	bne.n	8006f04 <R3_1_RLSwitchOnPWM+0x80>
 8006ed6:	f8d3 8020 	ldr.w	r8, [r3, #32]
 8006eda:	698f      	ldr	r7, [r1, #24]
 8006edc:	69cd      	ldr	r5, [r1, #28]
 8006ede:	6a0a      	ldr	r2, [r1, #32]
 8006ee0:	f8b1 c06c 	ldrh.w	ip, [r1, #108]	; 0x6c
 8006ee4:	f8b1 606e 	ldrh.w	r6, [r1, #110]	; 0x6e
 8006ee8:	f8b1 1070 	ldrh.w	r1, [r1, #112]	; 0x70
 8006eec:	f240 5e55 	movw	lr, #1365	; 0x555
 8006ef0:	ea18 0f0e 	tst.w	r8, lr
 8006ef4:	bf15      	itete	ne
 8006ef6:	f8c7 c018 	strne.w	ip, [r7, #24]
 8006efa:	f8c7 c028 	streq.w	ip, [r7, #40]	; 0x28
 8006efe:	61ae      	strne	r6, [r5, #24]
 8006f00:	62ae      	streq	r6, [r5, #40]	; 0x28
 8006f02:	6291      	str	r1, [r2, #40]	; 0x28
 8006f04:	2203      	movs	r2, #3
 8006f06:	f880 203a 	strb.w	r2, [r0, #58]	; 0x3a
 8006f0a:	68a2      	ldr	r2, [r4, #8]
 8006f0c:	f022 4200 	bic.w	r2, r2, #2147483648	; 0x80000000
 8006f10:	f022 023f 	bic.w	r2, r2, #63	; 0x3f
 8006f14:	f042 0208 	orr.w	r2, r2, #8
 8006f18:	60a2      	str	r2, [r4, #8]
 8006f1a:	68da      	ldr	r2, [r3, #12]
 8006f1c:	f042 0201 	orr.w	r2, r2, #1
 8006f20:	60da      	str	r2, [r3, #12]
 8006f22:	e8bd 81f0 	ldmia.w	sp!, {r4, r5, r6, r7, r8, pc}
 8006f26:	bf00      	nop

08006f28 <R3_1_Init>:
 8006f28:	6f41      	ldr	r1, [r0, #116]	; 0x74
 8006f2a:	680a      	ldr	r2, [r1, #0]
 8006f2c:	684b      	ldr	r3, [r1, #4]
 8006f2e:	e92d 47f0 	stmdb	sp!, {r4, r5, r6, r7, r8, r9, sl, lr}
 8006f32:	6854      	ldr	r4, [r2, #4]
 8006f34:	688e      	ldr	r6, [r1, #8]
 8006f36:	694d      	ldr	r5, [r1, #20]
 8006f38:	f04f 0e04 	mov.w	lr, #4
 8006f3c:	f024 0404 	bic.w	r4, r4, #4
 8006f40:	e9d1 c703 	ldrd	ip, r7, [r1, #12]
 8006f44:	6054      	str	r4, [r2, #4]
 8006f46:	f8c2 e000 	str.w	lr, [r2]
 8006f4a:	6854      	ldr	r4, [r2, #4]
 8006f4c:	f8df e37c 	ldr.w	lr, [pc, #892]	; 80072cc <R3_1_Init+0x3a4>
 8006f50:	f024 0420 	bic.w	r4, r4, #32
 8006f54:	6054      	str	r4, [r2, #4]
 8006f56:	4573      	cmp	r3, lr
 8006f58:	f04f 0420 	mov.w	r4, #32
 8006f5c:	f8df e370 	ldr.w	lr, [pc, #880]	; 80072d0 <R3_1_Init+0x3a8>
 8006f60:	6014      	str	r4, [r2, #0]
 8006f62:	f8de 400c 	ldr.w	r4, [lr, #12]
 8006f66:	bf0c      	ite	eq
 8006f68:	f044 0401 	orreq.w	r4, r4, #1
 8006f6c:	f044 0402 	orrne.w	r4, r4, #2
 8006f70:	b082      	sub	sp, #8
 8006f72:	f8ce 400c 	str.w	r4, [lr, #12]
 8006f76:	b1be      	cbz	r6, 8006fa8 <R3_1_Init+0x80>
 8006f78:	f891 407d 	ldrb.w	r4, [r1, #125]	; 0x7d
 8006f7c:	2c01      	cmp	r4, #1
 8006f7e:	d00b      	beq.n	8006f98 <R3_1_Init+0x70>
 8006f80:	6834      	ldr	r4, [r6, #0]
 8006f82:	f004 0470 	and.w	r4, r4, #112	; 0x70
 8006f86:	2c40      	cmp	r4, #64	; 0x40
 8006f88:	f000 8147 	beq.w	800721a <R3_1_Init+0x2f2>
 8006f8c:	6834      	ldr	r4, [r6, #0]
 8006f8e:	f004 0470 	and.w	r4, r4, #112	; 0x70
 8006f92:	2c50      	cmp	r4, #80	; 0x50
 8006f94:	f000 80f0 	beq.w	8007178 <R3_1_Init+0x250>
 8006f98:	6834      	ldr	r4, [r6, #0]
 8006f9a:	f044 0401 	orr.w	r4, r4, #1
 8006f9e:	6034      	str	r4, [r6, #0]
 8006fa0:	6834      	ldr	r4, [r6, #0]
 8006fa2:	f044 4400 	orr.w	r4, r4, #2147483648	; 0x80000000
 8006fa6:	6034      	str	r4, [r6, #0]
 8006fa8:	f1bc 0f00 	cmp.w	ip, #0
 8006fac:	d00b      	beq.n	8006fc6 <R3_1_Init+0x9e>
 8006fae:	f8dc 4000 	ldr.w	r4, [ip]
 8006fb2:	f044 0401 	orr.w	r4, r4, #1
 8006fb6:	f8cc 4000 	str.w	r4, [ip]
 8006fba:	f8dc 4000 	ldr.w	r4, [ip]
 8006fbe:	f044 4400 	orr.w	r4, r4, #2147483648	; 0x80000000
 8006fc2:	f8cc 4000 	str.w	r4, [ip]
 8006fc6:	b13f      	cbz	r7, 8006fd8 <R3_1_Init+0xb0>
 8006fc8:	683c      	ldr	r4, [r7, #0]
 8006fca:	f044 0401 	orr.w	r4, r4, #1
 8006fce:	603c      	str	r4, [r7, #0]
 8006fd0:	683c      	ldr	r4, [r7, #0]
 8006fd2:	f044 4400 	orr.w	r4, r4, #2147483648	; 0x80000000
 8006fd6:	603c      	str	r4, [r7, #0]
 8006fd8:	b1bd      	cbz	r5, 800700a <R3_1_Init+0xe2>
 8006fda:	f891 4080 	ldrb.w	r4, [r1, #128]	; 0x80
 8006fde:	2c01      	cmp	r4, #1
 8006fe0:	d00b      	beq.n	8006ffa <R3_1_Init+0xd2>
 8006fe2:	682c      	ldr	r4, [r5, #0]
 8006fe4:	f004 0470 	and.w	r4, r4, #112	; 0x70
 8006fe8:	2c40      	cmp	r4, #64	; 0x40
 8006fea:	f000 8142 	beq.w	8007272 <R3_1_Init+0x34a>
 8006fee:	682c      	ldr	r4, [r5, #0]
 8006ff0:	f004 0470 	and.w	r4, r4, #112	; 0x70
 8006ff4:	2c50      	cmp	r4, #80	; 0x50
 8006ff6:	f000 80eb 	beq.w	80071d0 <R3_1_Init+0x2a8>
 8006ffa:	682c      	ldr	r4, [r5, #0]
 8006ffc:	f044 0401 	orr.w	r4, r4, #1
 8007000:	602c      	str	r4, [r5, #0]
 8007002:	682c      	ldr	r4, [r5, #0]
 8007004:	f044 4400 	orr.w	r4, r4, #2147483648	; 0x80000000
 8007008:	602c      	str	r4, [r5, #0]
 800700a:	6894      	ldr	r4, [r2, #8]
 800700c:	07e6      	lsls	r6, r4, #31
 800700e:	d55d      	bpl.n	80070cc <R3_1_Init+0x1a4>
 8007010:	681a      	ldr	r2, [r3, #0]
 8007012:	f022 0201 	bic.w	r2, r2, #1
 8007016:	601a      	str	r2, [r3, #0]
 8007018:	685a      	ldr	r2, [r3, #4]
 800701a:	f022 0270 	bic.w	r2, r2, #112	; 0x70
 800701e:	605a      	str	r2, [r3, #4]
 8007020:	699a      	ldr	r2, [r3, #24]
 8007022:	f042 0208 	orr.w	r2, r2, #8
 8007026:	619a      	str	r2, [r3, #24]
 8007028:	699a      	ldr	r2, [r3, #24]
 800702a:	f442 6200 	orr.w	r2, r2, #2048	; 0x800
 800702e:	619a      	str	r2, [r3, #24]
 8007030:	69da      	ldr	r2, [r3, #28]
 8007032:	f042 0208 	orr.w	r2, r2, #8
 8007036:	61da      	str	r2, [r3, #28]
 8007038:	69da      	ldr	r2, [r3, #28]
 800703a:	f442 6200 	orr.w	r2, r2, #2048	; 0x800
 800703e:	61da      	str	r2, [r3, #28]
 8007040:	695a      	ldr	r2, [r3, #20]
 8007042:	f042 0201 	orr.w	r2, r2, #1
 8007046:	615a      	str	r2, [r3, #20]
 8007048:	f891 2081 	ldrb.w	r2, [r1, #129]	; 0x81
 800704c:	2a02      	cmp	r2, #2
 800704e:	d02a      	beq.n	80070a6 <R3_1_Init+0x17e>
 8007050:	f890 2046 	ldrb.w	r2, [r0, #70]	; 0x46
 8007054:	b932      	cbnz	r2, 8007064 <R3_1_Init+0x13c>
 8007056:	f891 207b 	ldrb.w	r2, [r1, #123]	; 0x7b
 800705a:	2a01      	cmp	r2, #1
 800705c:	d031      	beq.n	80070c2 <R3_1_Init+0x19a>
 800705e:	2a03      	cmp	r2, #3
 8007060:	f000 8082 	beq.w	8007168 <R3_1_Init+0x240>
 8007064:	f06f 0280 	mvn.w	r2, #128	; 0x80
 8007068:	611a      	str	r2, [r3, #16]
 800706a:	f891 207c 	ldrb.w	r2, [r1, #124]	; 0x7c
 800706e:	b16a      	cbz	r2, 800708c <R3_1_Init+0x164>
 8007070:	691a      	ldr	r2, [r3, #16]
 8007072:	05d0      	lsls	r0, r2, #23
 8007074:	d50a      	bpl.n	800708c <R3_1_Init+0x164>
 8007076:	f44f 727a 	mov.w	r2, #1000	; 0x3e8
 800707a:	f46f 7080 	mvn.w	r0, #256	; 0x100
 800707e:	e001      	b.n	8007084 <R3_1_Init+0x15c>
 8007080:	3a01      	subs	r2, #1
 8007082:	d003      	beq.n	800708c <R3_1_Init+0x164>
 8007084:	6118      	str	r0, [r3, #16]
 8007086:	6919      	ldr	r1, [r3, #16]
 8007088:	05c9      	lsls	r1, r1, #23
 800708a:	d4f9      	bmi.n	8007080 <R3_1_Init+0x158>
 800708c:	68da      	ldr	r2, [r3, #12]
 800708e:	f042 0280 	orr.w	r2, r2, #128	; 0x80
 8007092:	60da      	str	r2, [r3, #12]
 8007094:	6a1a      	ldr	r2, [r3, #32]
 8007096:	f442 62aa 	orr.w	r2, r2, #1360	; 0x550
 800709a:	f042 0205 	orr.w	r2, r2, #5
 800709e:	621a      	str	r2, [r3, #32]
 80070a0:	b002      	add	sp, #8
 80070a2:	e8bd 87f0 	ldmia.w	sp!, {r4, r5, r6, r7, r8, r9, sl, pc}
 80070a6:	f891 2082 	ldrb.w	r2, [r1, #130]	; 0x82
 80070aa:	2a01      	cmp	r2, #1
 80070ac:	d109      	bne.n	80070c2 <R3_1_Init+0x19a>
 80070ae:	f891 407b 	ldrb.w	r4, [r1, #123]	; 0x7b
 80070b2:	2c03      	cmp	r4, #3
 80070b4:	d105      	bne.n	80070c2 <R3_1_Init+0x19a>
 80070b6:	631a      	str	r2, [r3, #48]	; 0x30
 80070b8:	695a      	ldr	r2, [r3, #20]
 80070ba:	f042 0201 	orr.w	r2, r2, #1
 80070be:	615a      	str	r2, [r3, #20]
 80070c0:	631c      	str	r4, [r3, #48]	; 0x30
 80070c2:	f8b0 2068 	ldrh.w	r2, [r0, #104]	; 0x68
 80070c6:	3a01      	subs	r2, #1
 80070c8:	625a      	str	r2, [r3, #36]	; 0x24
 80070ca:	e7cb      	b.n	8007064 <R3_1_Init+0x13c>
 80070cc:	6894      	ldr	r4, [r2, #8]
 80070ce:	f004 5440 	and.w	r4, r4, #805306368	; 0x30000000
 80070d2:	f1b4 5f80 	cmp.w	r4, #268435456	; 0x10000000
 80070d6:	d01b      	beq.n	8007110 <R3_1_Init+0x1e8>
 80070d8:	6895      	ldr	r5, [r2, #8]
 80070da:	4c78      	ldr	r4, [pc, #480]	; (80072bc <R3_1_Init+0x394>)
 80070dc:	4e78      	ldr	r6, [pc, #480]	; (80072c0 <R3_1_Init+0x398>)
 80070de:	6824      	ldr	r4, [r4, #0]
 80070e0:	f025 5540 	bic.w	r5, r5, #805306368	; 0x30000000
 80070e4:	6095      	str	r5, [r2, #8]
 80070e6:	6895      	ldr	r5, [r2, #8]
 80070e8:	09a4      	lsrs	r4, r4, #6
 80070ea:	f025 4510 	bic.w	r5, r5, #2415919104	; 0x90000000
 80070ee:	f025 053f 	bic.w	r5, r5, #63	; 0x3f
 80070f2:	fba6 6404 	umull	r6, r4, r6, r4
 80070f6:	09a4      	lsrs	r4, r4, #6
 80070f8:	f045 5580 	orr.w	r5, r5, #268435456	; 0x10000000
 80070fc:	6095      	str	r5, [r2, #8]
 80070fe:	9401      	str	r4, [sp, #4]
 8007100:	9c01      	ldr	r4, [sp, #4]
 8007102:	b12c      	cbz	r4, 8007110 <R3_1_Init+0x1e8>
 8007104:	9c01      	ldr	r4, [sp, #4]
 8007106:	3c01      	subs	r4, #1
 8007108:	9401      	str	r4, [sp, #4]
 800710a:	9c01      	ldr	r4, [sp, #4]
 800710c:	2c00      	cmp	r4, #0
 800710e:	d1f9      	bne.n	8007104 <R3_1_Init+0x1dc>
 8007110:	6894      	ldr	r4, [r2, #8]
 8007112:	f024 4440 	bic.w	r4, r4, #3221225472	; 0xc0000000
 8007116:	f024 043f 	bic.w	r4, r4, #63	; 0x3f
 800711a:	f044 4400 	orr.w	r4, r4, #2147483648	; 0x80000000
 800711e:	6094      	str	r4, [r2, #8]
 8007120:	6894      	ldr	r4, [r2, #8]
 8007122:	2c00      	cmp	r4, #0
 8007124:	dbfc      	blt.n	8007120 <R3_1_Init+0x1f8>
 8007126:	6814      	ldr	r4, [r2, #0]
 8007128:	07e5      	lsls	r5, r4, #31
 800712a:	d408      	bmi.n	800713e <R3_1_Init+0x216>
 800712c:	4d65      	ldr	r5, [pc, #404]	; (80072c4 <R3_1_Init+0x39c>)
 800712e:	6894      	ldr	r4, [r2, #8]
 8007130:	402c      	ands	r4, r5
 8007132:	f044 0401 	orr.w	r4, r4, #1
 8007136:	6094      	str	r4, [r2, #8]
 8007138:	6814      	ldr	r4, [r2, #0]
 800713a:	07e4      	lsls	r4, r4, #31
 800713c:	d5f7      	bpl.n	800712e <R3_1_Init+0x206>
 800713e:	6895      	ldr	r5, [r2, #8]
 8007140:	4e60      	ldr	r6, [pc, #384]	; (80072c4 <R3_1_Init+0x39c>)
 8007142:	4035      	ands	r5, r6
 8007144:	f045 0508 	orr.w	r5, r5, #8
 8007148:	6095      	str	r5, [r2, #8]
 800714a:	6894      	ldr	r4, [r2, #8]
 800714c:	4034      	ands	r4, r6
 800714e:	f044 0420 	orr.w	r4, r4, #32
 8007152:	6094      	str	r4, [r2, #8]
 8007154:	68d4      	ldr	r4, [r2, #12]
 8007156:	2540      	movs	r5, #64	; 0x40
 8007158:	f444 1400 	orr.w	r4, r4, #2097152	; 0x200000
 800715c:	60d4      	str	r4, [r2, #12]
 800715e:	6015      	str	r5, [r2, #0]
 8007160:	6854      	ldr	r4, [r2, #4]
 8007162:	432c      	orrs	r4, r5
 8007164:	6054      	str	r4, [r2, #4]
 8007166:	e753      	b.n	8007010 <R3_1_Init+0xe8>
 8007168:	2001      	movs	r0, #1
 800716a:	6318      	str	r0, [r3, #48]	; 0x30
 800716c:	6958      	ldr	r0, [r3, #20]
 800716e:	f040 0001 	orr.w	r0, r0, #1
 8007172:	6158      	str	r0, [r3, #20]
 8007174:	631a      	str	r2, [r3, #48]	; 0x30
 8007176:	e775      	b.n	8007064 <R3_1_Init+0x13c>
 8007178:	f44f 0470 	mov.w	r4, #15728640	; 0xf00000
 800717c:	fa94 f4a4 	rbit	r4, r4
 8007180:	f44f 0880 	mov.w	r8, #4194304	; 0x400000
 8007184:	fab4 f484 	clz	r4, r4
 8007188:	fa28 f804 	lsr.w	r8, r8, r4
 800718c:	f8df 9144 	ldr.w	r9, [pc, #324]	; 80072d4 <R3_1_Init+0x3ac>
 8007190:	f8b1 a076 	ldrh.w	sl, [r1, #118]	; 0x76
 8007194:	f859 4028 	ldr.w	r4, [r9, r8, lsl #2]
 8007198:	f8df e12c 	ldr.w	lr, [pc, #300]	; 80072c8 <R3_1_Init+0x3a0>
 800719c:	f424 447f 	bic.w	r4, r4, #65280	; 0xff00
 80071a0:	f024 04f0 	bic.w	r4, r4, #240	; 0xf0
 80071a4:	ea4a 0404 	orr.w	r4, sl, r4
 80071a8:	f849 4028 	str.w	r4, [r9, r8, lsl #2]
 80071ac:	f8de 4004 	ldr.w	r4, [lr, #4]
 80071b0:	f044 0402 	orr.w	r4, r4, #2
 80071b4:	f8ce 4004 	str.w	r4, [lr, #4]
 80071b8:	f8de 4000 	ldr.w	r4, [lr]
 80071bc:	03e4      	lsls	r4, r4, #15
 80071be:	f53f aeeb 	bmi.w	8006f98 <R3_1_Init+0x70>
 80071c2:	f8de 4000 	ldr.w	r4, [lr]
 80071c6:	f444 3480 	orr.w	r4, r4, #65536	; 0x10000
 80071ca:	f8ce 4000 	str.w	r4, [lr]
 80071ce:	e6e3      	b.n	8006f98 <R3_1_Init+0x70>
 80071d0:	f44f 0470 	mov.w	r4, #15728640	; 0xf00000
 80071d4:	fa94 f4a4 	rbit	r4, r4
 80071d8:	f44f 0780 	mov.w	r7, #4194304	; 0x400000
 80071dc:	fab4 f484 	clz	r4, r4
 80071e0:	40e7      	lsrs	r7, r4
 80071e2:	f8df e0f0 	ldr.w	lr, [pc, #240]	; 80072d4 <R3_1_Init+0x3ac>
 80071e6:	f8b1 c078 	ldrh.w	ip, [r1, #120]	; 0x78
 80071ea:	f85e 4027 	ldr.w	r4, [lr, r7, lsl #2]
 80071ee:	4e36      	ldr	r6, [pc, #216]	; (80072c8 <R3_1_Init+0x3a0>)
 80071f0:	f424 447f 	bic.w	r4, r4, #65280	; 0xff00
 80071f4:	f024 04f0 	bic.w	r4, r4, #240	; 0xf0
 80071f8:	ea4c 0404 	orr.w	r4, ip, r4
 80071fc:	f84e 4027 	str.w	r4, [lr, r7, lsl #2]
 8007200:	6874      	ldr	r4, [r6, #4]
 8007202:	f044 0402 	orr.w	r4, r4, #2
 8007206:	6074      	str	r4, [r6, #4]
 8007208:	6834      	ldr	r4, [r6, #0]
 800720a:	03e7      	lsls	r7, r4, #15
 800720c:	f53f aef5 	bmi.w	8006ffa <R3_1_Init+0xd2>
 8007210:	6834      	ldr	r4, [r6, #0]
 8007212:	f444 3480 	orr.w	r4, r4, #65536	; 0x10000
 8007216:	6034      	str	r4, [r6, #0]
 8007218:	e6ef      	b.n	8006ffa <R3_1_Init+0xd2>
 800721a:	f44f 0470 	mov.w	r4, #15728640	; 0xf00000
 800721e:	fa94 f4a4 	rbit	r4, r4
 8007222:	f44f 1880 	mov.w	r8, #1048576	; 0x100000
 8007226:	fab4 f484 	clz	r4, r4
 800722a:	fa28 f804 	lsr.w	r8, r8, r4
 800722e:	f8df 90a4 	ldr.w	r9, [pc, #164]	; 80072d4 <R3_1_Init+0x3ac>
 8007232:	f8b1 a076 	ldrh.w	sl, [r1, #118]	; 0x76
 8007236:	f859 4028 	ldr.w	r4, [r9, r8, lsl #2]
 800723a:	f8df e08c 	ldr.w	lr, [pc, #140]	; 80072c8 <R3_1_Init+0x3a0>
 800723e:	f424 447f 	bic.w	r4, r4, #65280	; 0xff00
 8007242:	f024 04f0 	bic.w	r4, r4, #240	; 0xf0
 8007246:	ea4a 0404 	orr.w	r4, sl, r4
 800724a:	f849 4028 	str.w	r4, [r9, r8, lsl #2]
 800724e:	f8de 4004 	ldr.w	r4, [lr, #4]
 8007252:	f044 0401 	orr.w	r4, r4, #1
 8007256:	f8ce 4004 	str.w	r4, [lr, #4]
 800725a:	f8de 4000 	ldr.w	r4, [lr]
 800725e:	07e4      	lsls	r4, r4, #31
 8007260:	f53f ae9a 	bmi.w	8006f98 <R3_1_Init+0x70>
 8007264:	f8de 4000 	ldr.w	r4, [lr]
 8007268:	f044 0401 	orr.w	r4, r4, #1
 800726c:	f8ce 4000 	str.w	r4, [lr]
 8007270:	e692      	b.n	8006f98 <R3_1_Init+0x70>
 8007272:	f44f 0470 	mov.w	r4, #15728640	; 0xf00000
 8007276:	fa94 f4a4 	rbit	r4, r4
 800727a:	f44f 1780 	mov.w	r7, #1048576	; 0x100000
 800727e:	fab4 f484 	clz	r4, r4
 8007282:	40e7      	lsrs	r7, r4
 8007284:	f8df e04c 	ldr.w	lr, [pc, #76]	; 80072d4 <R3_1_Init+0x3ac>
 8007288:	f8b1 c078 	ldrh.w	ip, [r1, #120]	; 0x78
 800728c:	f85e 4027 	ldr.w	r4, [lr, r7, lsl #2]
 8007290:	4e0d      	ldr	r6, [pc, #52]	; (80072c8 <R3_1_Init+0x3a0>)
 8007292:	f424 447f 	bic.w	r4, r4, #65280	; 0xff00
 8007296:	f024 04f0 	bic.w	r4, r4, #240	; 0xf0
 800729a:	ea4c 0404 	orr.w	r4, ip, r4
 800729e:	f84e 4027 	str.w	r4, [lr, r7, lsl #2]
 80072a2:	6874      	ldr	r4, [r6, #4]
 80072a4:	f044 0401 	orr.w	r4, r4, #1
 80072a8:	6074      	str	r4, [r6, #4]
 80072aa:	6834      	ldr	r4, [r6, #0]
 80072ac:	07e4      	lsls	r4, r4, #31
 80072ae:	f53f aea4 	bmi.w	8006ffa <R3_1_Init+0xd2>
 80072b2:	6834      	ldr	r4, [r6, #0]
 80072b4:	f044 0401 	orr.w	r4, r4, #1
 80072b8:	6034      	str	r4, [r6, #0]
 80072ba:	e69e      	b.n	8006ffa <R3_1_Init+0xd2>
 80072bc:	200006d0 	.word	0x200006d0
 80072c0:	053e2d63 	.word	0x053e2d63
 80072c4:	7fffffc0 	.word	0x7fffffc0
 80072c8:	40007400 	.word	0x40007400
 80072cc:	40012c00 	.word	0x40012c00
 80072d0:	e0042000 	.word	0xe0042000
 80072d4:	40007408 	.word	0x40007408

080072d8 <R3_1_CurrentReadingPolarization>:
 80072d8:	6f43      	ldr	r3, [r0, #116]	; 0x74
 80072da:	4943      	ldr	r1, [pc, #268]	; (80073e8 <R3_1_CurrentReadingPolarization+0x110>)
 80072dc:	e92d 41f0 	stmdb	sp!, {r4, r5, r6, r7, r8, lr}
 80072e0:	e9d3 6500 	ldrd	r6, r5, [r3]
 80072e4:	2200      	movs	r2, #0
 80072e6:	f880 206e 	strb.w	r2, [r0, #110]	; 0x6e
 80072ea:	6a2b      	ldr	r3, [r5, #32]
 80072ec:	65c2      	str	r2, [r0, #92]	; 0x5c
 80072ee:	f423 63aa 	bic.w	r3, r3, #1360	; 0x550
 80072f2:	f023 0305 	bic.w	r3, r3, #5
 80072f6:	e9c0 2218 	strd	r2, r2, [r0, #96]	; 0x60
 80072fa:	622b      	str	r3, [r5, #32]
 80072fc:	4b3b      	ldr	r3, [pc, #236]	; (80073ec <R3_1_CurrentReadingPolarization+0x114>)
 80072fe:	6183      	str	r3, [r0, #24]
 8007300:	2240      	movs	r2, #64	; 0x40
 8007302:	2304      	movs	r3, #4
 8007304:	6041      	str	r1, [r0, #4]
 8007306:	f8a0 206c 	strh.w	r2, [r0, #108]	; 0x6c
 800730a:	f880 306f 	strb.w	r3, [r0, #111]	; 0x6f
 800730e:	f880 303a 	strb.w	r3, [r0, #58]	; 0x3a
 8007312:	4604      	mov	r4, r0
 8007314:	f7ff fcf4 	bl	8006d00 <R3_1_SwitchOnPWM>
 8007318:	686b      	ldr	r3, [r5, #4]
 800731a:	f003 0370 	and.w	r3, r3, #112	; 0x70
 800731e:	2b70      	cmp	r3, #112	; 0x70
 8007320:	d1fa      	bne.n	8007318 <R3_1_CurrentReadingPolarization+0x40>
 8007322:	68b3      	ldr	r3, [r6, #8]
 8007324:	6f62      	ldr	r2, [r4, #116]	; 0x74
 8007326:	f023 4300 	bic.w	r3, r3, #2147483648	; 0x80000000
 800732a:	f023 033f 	bic.w	r3, r3, #63	; 0x3f
 800732e:	f043 0308 	orr.w	r3, r3, #8
 8007332:	60b3      	str	r3, [r6, #8]
 8007334:	f104 0738 	add.w	r7, r4, #56	; 0x38
 8007338:	f104 086e 	add.w	r8, r4, #110	; 0x6e
 800733c:	4639      	mov	r1, r7
 800733e:	f892 207b 	ldrb.w	r2, [r2, #123]	; 0x7b
 8007342:	4643      	mov	r3, r8
 8007344:	4628      	mov	r0, r5
 8007346:	f7ff f9fd 	bl	8006744 <waitForPolarizationEnd>
 800734a:	4620      	mov	r0, r4
 800734c:	f7ff fd1c 	bl	8006d88 <R3_1_SwitchOffPWM>
 8007350:	2600      	movs	r6, #0
 8007352:	4b27      	ldr	r3, [pc, #156]	; (80073f0 <R3_1_CurrentReadingPolarization+0x118>)
 8007354:	6063      	str	r3, [r4, #4]
 8007356:	4620      	mov	r0, r4
 8007358:	f8a4 606e 	strh.w	r6, [r4, #110]	; 0x6e
 800735c:	f884 603a 	strb.w	r6, [r4, #58]	; 0x3a
 8007360:	f7ff fcce 	bl	8006d00 <R3_1_SwitchOnPWM>
 8007364:	6f62      	ldr	r2, [r4, #116]	; 0x74
 8007366:	4639      	mov	r1, r7
 8007368:	4643      	mov	r3, r8
 800736a:	f892 207b 	ldrb.w	r2, [r2, #123]	; 0x7b
 800736e:	4f21      	ldr	r7, [pc, #132]	; (80073f4 <R3_1_CurrentReadingPolarization+0x11c>)
 8007370:	4628      	mov	r0, r5
 8007372:	f7ff f9e7 	bl	8006744 <waitForPolarizationEnd>
 8007376:	4620      	mov	r0, r4
 8007378:	f7ff fd06 	bl	8006d88 <R3_1_SwitchOffPWM>
 800737c:	e9d4 1217 	ldrd	r1, r2, [r4, #92]	; 0x5c
 8007380:	6e63      	ldr	r3, [r4, #100]	; 0x64
 8007382:	481d      	ldr	r0, [pc, #116]	; (80073f8 <R3_1_CurrentReadingPolarization+0x120>)
 8007384:	6067      	str	r7, [r4, #4]
 8007386:	0912      	lsrs	r2, r2, #4
 8007388:	0909      	lsrs	r1, r1, #4
 800738a:	e9c4 1217 	strd	r1, r2, [r4, #92]	; 0x5c
 800738e:	091b      	lsrs	r3, r3, #4
 8007390:	6663      	str	r3, [r4, #100]	; 0x64
 8007392:	69ab      	ldr	r3, [r5, #24]
 8007394:	61a0      	str	r0, [r4, #24]
 8007396:	f023 0308 	bic.w	r3, r3, #8
 800739a:	61ab      	str	r3, [r5, #24]
 800739c:	69aa      	ldr	r2, [r5, #24]
 800739e:	f8b4 3068 	ldrh.w	r3, [r4, #104]	; 0x68
 80073a2:	f422 6200 	bic.w	r2, r2, #2048	; 0x800
 80073a6:	61aa      	str	r2, [r5, #24]
 80073a8:	69ea      	ldr	r2, [r5, #28]
 80073aa:	f022 0208 	bic.w	r2, r2, #8
 80073ae:	61ea      	str	r2, [r5, #28]
 80073b0:	636b      	str	r3, [r5, #52]	; 0x34
 80073b2:	63ab      	str	r3, [r5, #56]	; 0x38
 80073b4:	63eb      	str	r3, [r5, #60]	; 0x3c
 80073b6:	69ab      	ldr	r3, [r5, #24]
 80073b8:	f043 0308 	orr.w	r3, r3, #8
 80073bc:	61ab      	str	r3, [r5, #24]
 80073be:	69ab      	ldr	r3, [r5, #24]
 80073c0:	f443 6300 	orr.w	r3, r3, #2048	; 0x800
 80073c4:	61ab      	str	r3, [r5, #24]
 80073c6:	69eb      	ldr	r3, [r5, #28]
 80073c8:	f043 0308 	orr.w	r3, r3, #8
 80073cc:	61eb      	str	r3, [r5, #28]
 80073ce:	6a2b      	ldr	r3, [r5, #32]
 80073d0:	f443 63aa 	orr.w	r3, r3, #1360	; 0x550
 80073d4:	f043 0305 	orr.w	r3, r3, #5
 80073d8:	2204      	movs	r2, #4
 80073da:	622b      	str	r3, [r5, #32]
 80073dc:	f884 203a 	strb.w	r2, [r4, #58]	; 0x3a
 80073e0:	f884 6072 	strb.w	r6, [r4, #114]	; 0x72
 80073e4:	e8bd 81f0 	ldmia.w	sp!, {r4, r5, r6, r7, r8, pc}
 80073e8:	08006c39 	.word	0x08006c39
 80073ec:	08006b95 	.word	0x08006b95
 80073f0:	08006c79 	.word	0x08006c79
 80073f4:	08006a0d 	.word	0x08006a0d
 80073f8:	08006bc9 	.word	0x08006bc9

080073fc <R3_1_TIMx_UP_IRQHandler>:
 80073fc:	b430      	push	{r4, r5}
 80073fe:	4603      	mov	r3, r0
 8007400:	6f40      	ldr	r0, [r0, #116]	; 0x74
 8007402:	f893 103a 	ldrb.w	r1, [r3, #58]	; 0x3a
 8007406:	f8b3 206c 	ldrh.w	r2, [r3, #108]	; 0x6c
 800740a:	6805      	ldr	r5, [r0, #0]
 800740c:	eb00 0181 	add.w	r1, r0, r1, lsl #2
 8007410:	6840      	ldr	r0, [r0, #4]
 8007412:	6d49      	ldr	r1, [r1, #84]	; 0x54
 8007414:	430a      	orrs	r2, r1
 8007416:	64ea      	str	r2, [r5, #76]	; 0x4c
 8007418:	6842      	ldr	r2, [r0, #4]
 800741a:	2440      	movs	r4, #64	; 0x40
 800741c:	f042 0270 	orr.w	r2, r2, #112	; 0x70
 8007420:	6042      	str	r2, [r0, #4]
 8007422:	f103 0046 	add.w	r0, r3, #70	; 0x46
 8007426:	f8a3 406c 	strh.w	r4, [r3, #108]	; 0x6c
 800742a:	bc30      	pop	{r4, r5}
 800742c:	4770      	bx	lr
 800742e:	bf00      	nop

08007430 <R3_1_BRK2_IRQHandler>:
 8007430:	f890 3072 	ldrb.w	r3, [r0, #114]	; 0x72
 8007434:	b923      	cbnz	r3, 8007440 <R3_1_BRK2_IRQHandler+0x10>
 8007436:	6f43      	ldr	r3, [r0, #116]	; 0x74
 8007438:	f893 207a 	ldrb.w	r2, [r3, #122]	; 0x7a
 800743c:	2a02      	cmp	r2, #2
 800743e:	d004      	beq.n	800744a <R3_1_BRK2_IRQHandler+0x1a>
 8007440:	2301      	movs	r3, #1
 8007442:	f880 3070 	strb.w	r3, [r0, #112]	; 0x70
 8007446:	3046      	adds	r0, #70	; 0x46
 8007448:	4770      	bx	lr
 800744a:	b430      	push	{r4, r5}
 800744c:	e9d3 4106 	ldrd	r4, r1, [r3, #24]
 8007450:	f8b3 506c 	ldrh.w	r5, [r3, #108]	; 0x6c
 8007454:	6a1a      	ldr	r2, [r3, #32]
 8007456:	62a5      	str	r5, [r4, #40]	; 0x28
 8007458:	f8b3 406e 	ldrh.w	r4, [r3, #110]	; 0x6e
 800745c:	f8b3 3070 	ldrh.w	r3, [r3, #112]	; 0x70
 8007460:	628c      	str	r4, [r1, #40]	; 0x28
 8007462:	6293      	str	r3, [r2, #40]	; 0x28
 8007464:	2301      	movs	r3, #1
 8007466:	f880 3070 	strb.w	r3, [r0, #112]	; 0x70
 800746a:	bc30      	pop	{r4, r5}
 800746c:	3046      	adds	r0, #70	; 0x46
 800746e:	4770      	bx	lr

08007470 <R3_1_BRK_IRQHandler>:
 8007470:	6f42      	ldr	r2, [r0, #116]	; 0x74
 8007472:	4603      	mov	r3, r0
 8007474:	6850      	ldr	r0, [r2, #4]
 8007476:	6c42      	ldr	r2, [r0, #68]	; 0x44
 8007478:	2101      	movs	r1, #1
 800747a:	f442 6280 	orr.w	r2, r2, #1024	; 0x400
 800747e:	6442      	str	r2, [r0, #68]	; 0x44
 8007480:	f103 0046 	add.w	r0, r3, #70	; 0x46
 8007484:	f883 1071 	strb.w	r1, [r3, #113]	; 0x71
 8007488:	f883 1072 	strb.w	r1, [r3, #114]	; 0x72
 800748c:	4770      	bx	lr
 800748e:	bf00      	nop

08007490 <R3_1_IsOverCurrentOccurred>:
 8007490:	4602      	mov	r2, r0
 8007492:	f890 0071 	ldrb.w	r0, [r0, #113]	; 0x71
 8007496:	b160      	cbz	r0, 80074b2 <R3_1_IsOverCurrentOccurred+0x22>
 8007498:	2300      	movs	r3, #0
 800749a:	f882 3071 	strb.w	r3, [r2, #113]	; 0x71
 800749e:	2142      	movs	r1, #66	; 0x42
 80074a0:	2002      	movs	r0, #2
 80074a2:	f892 3070 	ldrb.w	r3, [r2, #112]	; 0x70
 80074a6:	b11b      	cbz	r3, 80074b0 <R3_1_IsOverCurrentOccurred+0x20>
 80074a8:	2300      	movs	r3, #0
 80074aa:	4608      	mov	r0, r1
 80074ac:	f882 3070 	strb.w	r3, [r2, #112]	; 0x70
 80074b0:	4770      	bx	lr
 80074b2:	2140      	movs	r1, #64	; 0x40
 80074b4:	e7f5      	b.n	80074a2 <R3_1_IsOverCurrentOccurred+0x12>
 80074b6:	bf00      	nop

080074b8 <R3_1_RLDetectionModeEnable>:
 80074b8:	f890 1047 	ldrb.w	r1, [r0, #71]	; 0x47
 80074bc:	b430      	push	{r4, r5}
 80074be:	2900      	cmp	r1, #0
 80074c0:	d13a      	bne.n	8007538 <R3_1_RLDetectionModeEnable+0x80>
 80074c2:	6f42      	ldr	r2, [r0, #116]	; 0x74
 80074c4:	6853      	ldr	r3, [r2, #4]
 80074c6:	f892 507a 	ldrb.w	r5, [r2, #122]	; 0x7a
 80074ca:	699a      	ldr	r2, [r3, #24]
 80074cc:	f422 3280 	bic.w	r2, r2, #65536	; 0x10000
 80074d0:	f022 0273 	bic.w	r2, r2, #115	; 0x73
 80074d4:	f042 0260 	orr.w	r2, r2, #96	; 0x60
 80074d8:	619a      	str	r2, [r3, #24]
 80074da:	6a1a      	ldr	r2, [r3, #32]
 80074dc:	f042 0201 	orr.w	r2, r2, #1
 80074e0:	621a      	str	r2, [r3, #32]
 80074e2:	6a1a      	ldr	r2, [r3, #32]
 80074e4:	2d01      	cmp	r5, #1
 80074e6:	f022 0204 	bic.w	r2, r2, #4
 80074ea:	621a      	str	r2, [r3, #32]
 80074ec:	f103 0418 	add.w	r4, r3, #24
 80074f0:	6359      	str	r1, [r3, #52]	; 0x34
 80074f2:	d02e      	beq.n	8007552 <R3_1_RLDetectionModeEnable+0x9a>
 80074f4:	2d02      	cmp	r5, #2
 80074f6:	d10f      	bne.n	8007518 <R3_1_RLDetectionModeEnable+0x60>
 80074f8:	699a      	ldr	r2, [r3, #24]
 80074fa:	f022 7280 	bic.w	r2, r2, #16777216	; 0x1000000
 80074fe:	f422 42e6 	bic.w	r2, r2, #29440	; 0x7300
 8007502:	f442 5200 	orr.w	r2, r2, #8192	; 0x2000
 8007506:	619a      	str	r2, [r3, #24]
 8007508:	6a1a      	ldr	r2, [r3, #32]
 800750a:	f042 0210 	orr.w	r2, r2, #16
 800750e:	621a      	str	r2, [r3, #32]
 8007510:	6a1a      	ldr	r2, [r3, #32]
 8007512:	f022 0240 	bic.w	r2, r2, #64	; 0x40
 8007516:	621a      	str	r2, [r3, #32]
 8007518:	6862      	ldr	r2, [r4, #4]
 800751a:	f422 3280 	bic.w	r2, r2, #65536	; 0x10000
 800751e:	f022 0273 	bic.w	r2, r2, #115	; 0x73
 8007522:	f042 0270 	orr.w	r2, r2, #112	; 0x70
 8007526:	6062      	str	r2, [r4, #4]
 8007528:	6a1a      	ldr	r2, [r3, #32]
 800752a:	f422 7280 	bic.w	r2, r2, #256	; 0x100
 800752e:	621a      	str	r2, [r3, #32]
 8007530:	6a1a      	ldr	r2, [r3, #32]
 8007532:	f422 6280 	bic.w	r2, r2, #1024	; 0x400
 8007536:	621a      	str	r2, [r3, #32]
 8007538:	4b0e      	ldr	r3, [pc, #56]	; (8007574 <R3_1_RLDetectionModeEnable+0xbc>)
 800753a:	490f      	ldr	r1, [pc, #60]	; (8007578 <R3_1_RLDetectionModeEnable+0xc0>)
 800753c:	4a0f      	ldr	r2, [pc, #60]	; (800757c <R3_1_RLDetectionModeEnable+0xc4>)
 800753e:	4c10      	ldr	r4, [pc, #64]	; (8007580 <R3_1_RLDetectionModeEnable+0xc8>)
 8007540:	6043      	str	r3, [r0, #4]
 8007542:	2301      	movs	r3, #1
 8007544:	6144      	str	r4, [r0, #20]
 8007546:	e9c0 2102 	strd	r2, r1, [r0, #8]
 800754a:	f880 3047 	strb.w	r3, [r0, #71]	; 0x47
 800754e:	bc30      	pop	{r4, r5}
 8007550:	4770      	bx	lr
 8007552:	699a      	ldr	r2, [r3, #24]
 8007554:	f022 7280 	bic.w	r2, r2, #16777216	; 0x1000000
 8007558:	f422 42e6 	bic.w	r2, r2, #29440	; 0x7300
 800755c:	f442 5280 	orr.w	r2, r2, #4096	; 0x1000
 8007560:	619a      	str	r2, [r3, #24]
 8007562:	6a1a      	ldr	r2, [r3, #32]
 8007564:	f022 0210 	bic.w	r2, r2, #16
 8007568:	621a      	str	r2, [r3, #32]
 800756a:	6a1a      	ldr	r2, [r3, #32]
 800756c:	f042 0240 	orr.w	r2, r2, #64	; 0x40
 8007570:	621a      	str	r2, [r3, #32]
 8007572:	e7d1      	b.n	8007518 <R3_1_RLDetectionModeEnable+0x60>
 8007574:	08006de5 	.word	0x08006de5
 8007578:	08006e85 	.word	0x08006e85
 800757c:	08006d89 	.word	0x08006d89
 8007580:	08006e39 	.word	0x08006e39

08007584 <R3_1_RLDetectionModeDisable>:
 8007584:	f890 3047 	ldrb.w	r3, [r0, #71]	; 0x47
 8007588:	2b00      	cmp	r3, #0
 800758a:	d046      	beq.n	800761a <R3_1_RLDetectionModeDisable+0x96>
 800758c:	b4f0      	push	{r4, r5, r6, r7}
 800758e:	6f41      	ldr	r1, [r0, #116]	; 0x74
 8007590:	684b      	ldr	r3, [r1, #4]
 8007592:	681a      	ldr	r2, [r3, #0]
 8007594:	06d4      	lsls	r4, r2, #27
 8007596:	d5fc      	bpl.n	8007592 <R3_1_RLDetectionModeDisable+0xe>
 8007598:	681a      	ldr	r2, [r3, #0]
 800759a:	06d2      	lsls	r2, r2, #27
 800759c:	d4fc      	bmi.n	8007598 <R3_1_RLDetectionModeDisable+0x14>
 800759e:	699a      	ldr	r2, [r3, #24]
 80075a0:	4d42      	ldr	r5, [pc, #264]	; (80076ac <R3_1_RLDetectionModeDisable+0x128>)
 80075a2:	f8b0 7068 	ldrh.w	r7, [r0, #104]	; 0x68
 80075a6:	f891 607a 	ldrb.w	r6, [r1, #122]	; 0x7a
 80075aa:	402a      	ands	r2, r5
 80075ac:	f042 0260 	orr.w	r2, r2, #96	; 0x60
 80075b0:	619a      	str	r2, [r3, #24]
 80075b2:	6a1c      	ldr	r4, [r3, #32]
 80075b4:	2e01      	cmp	r6, #1
 80075b6:	f044 0401 	orr.w	r4, r4, #1
 80075ba:	621c      	str	r4, [r3, #32]
 80075bc:	ea4f 0757 	mov.w	r7, r7, lsr #1
 80075c0:	d02c      	beq.n	800761c <R3_1_RLDetectionModeDisable+0x98>
 80075c2:	2e02      	cmp	r6, #2
 80075c4:	d04e      	beq.n	8007664 <R3_1_RLDetectionModeDisable+0xe0>
 80075c6:	635f      	str	r7, [r3, #52]	; 0x34
 80075c8:	699c      	ldr	r4, [r3, #24]
 80075ca:	f024 7480 	bic.w	r4, r4, #16777216	; 0x1000000
 80075ce:	f424 44e6 	bic.w	r4, r4, #29440	; 0x7300
 80075d2:	f444 44c0 	orr.w	r4, r4, #24576	; 0x6000
 80075d6:	619c      	str	r4, [r3, #24]
 80075d8:	6a1c      	ldr	r4, [r3, #32]
 80075da:	f044 0410 	orr.w	r4, r4, #16
 80075de:	621c      	str	r4, [r3, #32]
 80075e0:	639f      	str	r7, [r3, #56]	; 0x38
 80075e2:	69dc      	ldr	r4, [r3, #28]
 80075e4:	4025      	ands	r5, r4
 80075e6:	f045 0560 	orr.w	r5, r5, #96	; 0x60
 80075ea:	61dd      	str	r5, [r3, #28]
 80075ec:	6a1c      	ldr	r4, [r3, #32]
 80075ee:	f444 7480 	orr.w	r4, r4, #256	; 0x100
 80075f2:	621c      	str	r4, [r3, #32]
 80075f4:	6809      	ldr	r1, [r1, #0]
 80075f6:	63df      	str	r7, [r3, #60]	; 0x3c
 80075f8:	68cb      	ldr	r3, [r1, #12]
 80075fa:	4c2d      	ldr	r4, [pc, #180]	; (80076b0 <R3_1_RLDetectionModeDisable+0x12c>)
 80075fc:	4a2d      	ldr	r2, [pc, #180]	; (80076b4 <R3_1_RLDetectionModeDisable+0x130>)
 80075fe:	4e2e      	ldr	r6, [pc, #184]	; (80076b8 <R3_1_RLDetectionModeDisable+0x134>)
 8007600:	4d2e      	ldr	r5, [pc, #184]	; (80076bc <R3_1_RLDetectionModeDisable+0x138>)
 8007602:	f423 1380 	bic.w	r3, r3, #1048576	; 0x100000
 8007606:	60cb      	str	r3, [r1, #12]
 8007608:	2300      	movs	r3, #0
 800760a:	6046      	str	r6, [r0, #4]
 800760c:	6145      	str	r5, [r0, #20]
 800760e:	e9c0 2402 	strd	r2, r4, [r0, #8]
 8007612:	f880 3047 	strb.w	r3, [r0, #71]	; 0x47
 8007616:	bcf0      	pop	{r4, r5, r6, r7}
 8007618:	4770      	bx	lr
 800761a:	4770      	bx	lr
 800761c:	6a1c      	ldr	r4, [r3, #32]
 800761e:	f044 0404 	orr.w	r4, r4, #4
 8007622:	621c      	str	r4, [r3, #32]
 8007624:	635f      	str	r7, [r3, #52]	; 0x34
 8007626:	699c      	ldr	r4, [r3, #24]
 8007628:	f024 7480 	bic.w	r4, r4, #16777216	; 0x1000000
 800762c:	f424 44e6 	bic.w	r4, r4, #29440	; 0x7300
 8007630:	f444 44c0 	orr.w	r4, r4, #24576	; 0x6000
 8007634:	619c      	str	r4, [r3, #24]
 8007636:	6a1c      	ldr	r4, [r3, #32]
 8007638:	f044 0410 	orr.w	r4, r4, #16
 800763c:	621c      	str	r4, [r3, #32]
 800763e:	6a1c      	ldr	r4, [r3, #32]
 8007640:	f044 0440 	orr.w	r4, r4, #64	; 0x40
 8007644:	621c      	str	r4, [r3, #32]
 8007646:	639f      	str	r7, [r3, #56]	; 0x38
 8007648:	69dc      	ldr	r4, [r3, #28]
 800764a:	4025      	ands	r5, r4
 800764c:	f045 0560 	orr.w	r5, r5, #96	; 0x60
 8007650:	61dd      	str	r5, [r3, #28]
 8007652:	6a1c      	ldr	r4, [r3, #32]
 8007654:	f444 7480 	orr.w	r4, r4, #256	; 0x100
 8007658:	621c      	str	r4, [r3, #32]
 800765a:	6a1c      	ldr	r4, [r3, #32]
 800765c:	f444 6480 	orr.w	r4, r4, #1024	; 0x400
 8007660:	621c      	str	r4, [r3, #32]
 8007662:	e7c7      	b.n	80075f4 <R3_1_RLDetectionModeDisable+0x70>
 8007664:	6a1c      	ldr	r4, [r3, #32]
 8007666:	f024 0404 	bic.w	r4, r4, #4
 800766a:	621c      	str	r4, [r3, #32]
 800766c:	635f      	str	r7, [r3, #52]	; 0x34
 800766e:	699c      	ldr	r4, [r3, #24]
 8007670:	f024 7480 	bic.w	r4, r4, #16777216	; 0x1000000
 8007674:	f424 44e6 	bic.w	r4, r4, #29440	; 0x7300
 8007678:	f444 44c0 	orr.w	r4, r4, #24576	; 0x6000
 800767c:	619c      	str	r4, [r3, #24]
 800767e:	6a1c      	ldr	r4, [r3, #32]
 8007680:	f044 0410 	orr.w	r4, r4, #16
 8007684:	621c      	str	r4, [r3, #32]
 8007686:	6a1c      	ldr	r4, [r3, #32]
 8007688:	f024 0440 	bic.w	r4, r4, #64	; 0x40
 800768c:	621c      	str	r4, [r3, #32]
 800768e:	639f      	str	r7, [r3, #56]	; 0x38
 8007690:	69dc      	ldr	r4, [r3, #28]
 8007692:	4025      	ands	r5, r4
 8007694:	f045 0560 	orr.w	r5, r5, #96	; 0x60
 8007698:	61dd      	str	r5, [r3, #28]
 800769a:	6a1c      	ldr	r4, [r3, #32]
 800769c:	f444 7480 	orr.w	r4, r4, #256	; 0x100
 80076a0:	621c      	str	r4, [r3, #32]
 80076a2:	6a1c      	ldr	r4, [r3, #32]
 80076a4:	f424 6480 	bic.w	r4, r4, #1024	; 0x400
 80076a8:	621c      	str	r4, [r3, #32]
 80076aa:	e7a3      	b.n	80075f4 <R3_1_RLDetectionModeDisable+0x70>
 80076ac:	fffeff8c 	.word	0xfffeff8c
 80076b0:	08006d01 	.word	0x08006d01
 80076b4:	08006d89 	.word	0x08006d89
 80076b8:	08006a0d 	.word	0x08006a0d
 80076bc:	08006cb1 	.word	0x08006cb1

080076c0 <R3_1_RLDetectionModeSetDuty>:
 80076c0:	4602      	mov	r2, r0
 80076c2:	b410      	push	{r4}
 80076c4:	f8b2 3068 	ldrh.w	r3, [r2, #104]	; 0x68
 80076c8:	6f54      	ldr	r4, [r2, #116]	; 0x74
 80076ca:	2003      	movs	r0, #3
 80076cc:	6864      	ldr	r4, [r4, #4]
 80076ce:	f882 003a 	strb.w	r0, [r2, #58]	; 0x3a
 80076d2:	fb01 f103 	mul.w	r1, r1, r3
 80076d6:	8f10      	ldrh	r0, [r2, #56]	; 0x38
 80076d8:	0c09      	lsrs	r1, r1, #16
 80076da:	8651      	strh	r1, [r2, #50]	; 0x32
 80076dc:	2801      	cmp	r0, #1
 80076de:	6361      	str	r1, [r4, #52]	; 0x34
 80076e0:	6863      	ldr	r3, [r4, #4]
 80076e2:	d007      	beq.n	80076f4 <R3_1_RLDetectionModeSetDuty+0x34>
 80076e4:	f013 0f70 	tst.w	r3, #112	; 0x70
 80076e8:	bf14      	ite	ne
 80076ea:	2001      	movne	r0, #1
 80076ec:	2000      	moveq	r0, #0
 80076ee:	f85d 4b04 	ldr.w	r4, [sp], #4
 80076f2:	4770      	bx	lr
 80076f4:	2300      	movs	r3, #0
 80076f6:	8713      	strh	r3, [r2, #56]	; 0x38
 80076f8:	f85d 4b04 	ldr.w	r4, [sp], #4
 80076fc:	4770      	bx	lr
 80076fe:	bf00      	nop

08007700 <RVBS_Clear>:
 8007700:	8b42      	ldrh	r2, [r0, #26]
 8007702:	8b81      	ldrh	r1, [r0, #28]
 8007704:	8b03      	ldrh	r3, [r0, #24]
 8007706:	440a      	add	r2, r1
 8007708:	0852      	lsrs	r2, r2, #1
 800770a:	b18b      	cbz	r3, 8007730 <RVBS_Clear+0x30>
 800770c:	b410      	push	{r4}
 800770e:	6a04      	ldr	r4, [r0, #32]
 8007710:	2300      	movs	r3, #0
 8007712:	f824 2013 	strh.w	r2, [r4, r3, lsl #1]
 8007716:	3301      	adds	r3, #1
 8007718:	8b01      	ldrh	r1, [r0, #24]
 800771a:	b29b      	uxth	r3, r3
 800771c:	4299      	cmp	r1, r3
 800771e:	d8f8      	bhi.n	8007712 <RVBS_Clear+0x12>
 8007720:	2300      	movs	r3, #0
 8007722:	8082      	strh	r2, [r0, #4]
 8007724:	80c2      	strh	r2, [r0, #6]
 8007726:	f880 3025 	strb.w	r3, [r0, #37]	; 0x25
 800772a:	f85d 4b04 	ldr.w	r4, [sp], #4
 800772e:	4770      	bx	lr
 8007730:	2300      	movs	r3, #0
 8007732:	8082      	strh	r2, [r0, #4]
 8007734:	80c2      	strh	r2, [r0, #6]
 8007736:	f880 3025 	strb.w	r3, [r0, #37]	; 0x25
 800773a:	4770      	bx	lr

0800773c <RVBS_Init>:
 800773c:	b510      	push	{r4, lr}
 800773e:	4604      	mov	r4, r0
 8007740:	300c      	adds	r0, #12
 8007742:	f7fa fcab 	bl	800209c <RCM_RegisterRegConv>
 8007746:	f884 0026 	strb.w	r0, [r4, #38]	; 0x26
 800774a:	4620      	mov	r0, r4
 800774c:	f7ff ffd8 	bl	8007700 <RVBS_Clear>
 8007750:	bd10      	pop	{r4, pc}
 8007752:	bf00      	nop

08007754 <RVBS_CheckFaultState>:
 8007754:	88c3      	ldrh	r3, [r0, #6]
 8007756:	8b42      	ldrh	r2, [r0, #26]
 8007758:	429a      	cmp	r2, r3
 800775a:	d305      	bcc.n	8007768 <RVBS_CheckFaultState+0x14>
 800775c:	8b80      	ldrh	r0, [r0, #28]
 800775e:	4298      	cmp	r0, r3
 8007760:	bf8c      	ite	hi
 8007762:	2004      	movhi	r0, #4
 8007764:	2000      	movls	r0, #0
 8007766:	4770      	bx	lr
 8007768:	2002      	movs	r0, #2
 800776a:	4770      	bx	lr

0800776c <RVBS_CalcAvVbusFilt>:
 800776c:	e92d 47f0 	stmdb	sp!, {r4, r5, r6, r7, r8, r9, sl, lr}
 8007770:	2500      	movs	r5, #0
 8007772:	4606      	mov	r6, r0
 8007774:	462f      	mov	r7, r5
 8007776:	46a8      	mov	r8, r5
 8007778:	462c      	mov	r4, r5
 800777a:	46aa      	mov	sl, r5
 800777c:	f64f 79ff 	movw	r9, #65535	; 0xffff
 8007780:	8b33      	ldrh	r3, [r6, #24]
 8007782:	459a      	cmp	sl, r3
 8007784:	d219      	bcs.n	80077ba <RVBS_CalcAvVbusFilt+0x4e>
 8007786:	f896 0026 	ldrb.w	r0, [r6, #38]	; 0x26
 800778a:	f7fa fd61 	bl	8002250 <RCM_ExecRegularConv>
 800778e:	4548      	cmp	r0, r9
 8007790:	d0f6      	beq.n	8007780 <RVBS_CalcAvVbusFilt+0x14>
 8007792:	4287      	cmp	r7, r0
 8007794:	463a      	mov	r2, r7
 8007796:	bf28      	it	cs
 8007798:	4602      	movcs	r2, r0
 800779a:	4580      	cmp	r8, r0
 800779c:	bf38      	it	cc
 800779e:	4680      	movcc	r8, r0
 80077a0:	2c00      	cmp	r4, #0
 80077a2:	d037      	beq.n	8007814 <RVBS_CalcAvVbusFilt+0xa8>
 80077a4:	b297      	uxth	r7, r2
 80077a6:	fa1f f888 	uxth.w	r8, r8
 80077aa:	3401      	adds	r4, #1
 80077ac:	b2e4      	uxtb	r4, r4
 80077ae:	8b33      	ldrh	r3, [r6, #24]
 80077b0:	fa1f fa84 	uxth.w	sl, r4
 80077b4:	459a      	cmp	sl, r3
 80077b6:	4405      	add	r5, r0
 80077b8:	d3e5      	bcc.n	8007786 <RVBS_CalcAvVbusFilt+0x1a>
 80077ba:	eba5 0508 	sub.w	r5, r5, r8
 80077be:	1bea      	subs	r2, r5, r7
 80077c0:	3b02      	subs	r3, #2
 80077c2:	f64f 71ff 	movw	r1, #65535	; 0xffff
 80077c6:	fbb2 f2f3 	udiv	r2, r2, r3
 80077ca:	b292      	uxth	r2, r2
 80077cc:	428a      	cmp	r2, r1
 80077ce:	d01b      	beq.n	8007808 <RVBS_CalcAvVbusFilt+0x9c>
 80077d0:	6a35      	ldr	r5, [r6, #32]
 80077d2:	f896 3025 	ldrb.w	r3, [r6, #37]	; 0x25
 80077d6:	f825 2013 	strh.w	r2, [r5, r3, lsl #1]
 80077da:	8b34      	ldrh	r4, [r6, #24]
 80077dc:	b1ec      	cbz	r4, 800781a <RVBS_CalcAvVbusFilt+0xae>
 80077de:	2300      	movs	r3, #0
 80077e0:	4619      	mov	r1, r3
 80077e2:	f835 0013 	ldrh.w	r0, [r5, r3, lsl #1]
 80077e6:	3301      	adds	r3, #1
 80077e8:	b2db      	uxtb	r3, r3
 80077ea:	42a3      	cmp	r3, r4
 80077ec:	4401      	add	r1, r0
 80077ee:	d3f8      	bcc.n	80077e2 <RVBS_CalcAvVbusFilt+0x76>
 80077f0:	fbb1 f1f4 	udiv	r1, r1, r4
 80077f4:	f896 3025 	ldrb.w	r3, [r6, #37]	; 0x25
 80077f8:	80f1      	strh	r1, [r6, #6]
 80077fa:	3c01      	subs	r4, #1
 80077fc:	42a3      	cmp	r3, r4
 80077fe:	80b2      	strh	r2, [r6, #4]
 8007800:	da0d      	bge.n	800781e <RVBS_CalcAvVbusFilt+0xb2>
 8007802:	3301      	adds	r3, #1
 8007804:	f886 3025 	strb.w	r3, [r6, #37]	; 0x25
 8007808:	4630      	mov	r0, r6
 800780a:	f7ff ffa3 	bl	8007754 <RVBS_CheckFaultState>
 800780e:	8130      	strh	r0, [r6, #8]
 8007810:	e8bd 87f0 	ldmia.w	sp!, {r4, r5, r6, r7, r8, r9, sl, pc}
 8007814:	4607      	mov	r7, r0
 8007816:	4680      	mov	r8, r0
 8007818:	e7c7      	b.n	80077aa <RVBS_CalcAvVbusFilt+0x3e>
 800781a:	80f4      	strh	r4, [r6, #6]
 800781c:	80b2      	strh	r2, [r6, #4]
 800781e:	2300      	movs	r3, #0
 8007820:	f886 3025 	strb.w	r3, [r6, #37]	; 0x25
 8007824:	4630      	mov	r0, r6
 8007826:	f7ff ff95 	bl	8007754 <RVBS_CheckFaultState>
 800782a:	8130      	strh	r0, [r6, #8]
 800782c:	e8bd 87f0 	ldmia.w	sp!, {r4, r5, r6, r7, r8, r9, sl, pc}

08007830 <REMNG_Init>:
 8007830:	2300      	movs	r3, #0
 8007832:	2201      	movs	r2, #1
 8007834:	6142      	str	r2, [r0, #20]
 8007836:	e9c0 3301 	strd	r3, r3, [r0, #4]
 800783a:	e9c0 3303 	strd	r3, r3, [r0, #12]
 800783e:	4770      	bx	lr

08007840 <REMNG_Calc>:
 8007840:	e9d0 3202 	ldrd	r3, r2, [r0, #8]
 8007844:	2a01      	cmp	r2, #1
 8007846:	6941      	ldr	r1, [r0, #20]
 8007848:	d90a      	bls.n	8007860 <REMNG_Calc+0x20>
 800784a:	b410      	push	{r4}
 800784c:	6904      	ldr	r4, [r0, #16]
 800784e:	3a01      	subs	r2, #1
 8007850:	4423      	add	r3, r4
 8007852:	60c2      	str	r2, [r0, #12]
 8007854:	6083      	str	r3, [r0, #8]
 8007856:	f85d 4b04 	ldr.w	r4, [sp], #4
 800785a:	fb93 f0f1 	sdiv	r0, r3, r1
 800785e:	4770      	bx	lr
 8007860:	d104      	bne.n	800786c <REMNG_Calc+0x2c>
 8007862:	6843      	ldr	r3, [r0, #4]
 8007864:	2200      	movs	r2, #0
 8007866:	fb03 f301 	mul.w	r3, r3, r1
 800786a:	60c2      	str	r2, [r0, #12]
 800786c:	6083      	str	r3, [r0, #8]
 800786e:	fb93 f0f1 	sdiv	r0, r3, r1
 8007872:	4770      	bx	lr

08007874 <REMNG_RampCompleted>:
 8007874:	68c0      	ldr	r0, [r0, #12]
 8007876:	fab0 f080 	clz	r0, r0
 800787a:	0940      	lsrs	r0, r0, #5
 800787c:	4770      	bx	lr
 800787e:	bf00      	nop

08007880 <getScalingFactor>:
 8007880:	2301      	movs	r3, #1
 8007882:	2800      	cmp	r0, #0
 8007884:	bfb8      	it	lt
 8007886:	4240      	neglt	r0, r0
 8007888:	4619      	mov	r1, r3
 800788a:	e002      	b.n	8007892 <getScalingFactor+0x12>
 800788c:	3301      	adds	r3, #1
 800788e:	2b20      	cmp	r3, #32
 8007890:	d009      	beq.n	80078a6 <getScalingFactor+0x26>
 8007892:	f1c3 021f 	rsb	r2, r3, #31
 8007896:	fa01 f202 	lsl.w	r2, r1, r2
 800789a:	4290      	cmp	r0, r2
 800789c:	d3f6      	bcc.n	800788c <getScalingFactor+0xc>
 800789e:	3b01      	subs	r3, #1
 80078a0:	fa01 f003 	lsl.w	r0, r1, r3
 80078a4:	4770      	bx	lr
 80078a6:	f04f 4000 	mov.w	r0, #2147483648	; 0x80000000
 80078aa:	4770      	bx	lr

080078ac <REMNG_ExecRamp>:
 80078ac:	e92d 47f0 	stmdb	sp!, {r4, r5, r6, r7, r8, r9, sl, lr}
 80078b0:	4604      	mov	r4, r0
 80078b2:	460d      	mov	r5, r1
 80078b4:	4690      	mov	r8, r2
 80078b6:	b372      	cbz	r2, 8007916 <REMNG_ExecRamp+0x6a>
 80078b8:	6943      	ldr	r3, [r0, #20]
 80078ba:	6886      	ldr	r6, [r0, #8]
 80078bc:	fb96 f6f3 	sdiv	r6, r6, r3
 80078c0:	1b8f      	subs	r7, r1, r6
 80078c2:	4638      	mov	r0, r7
 80078c4:	f7ff ffdc 	bl	8007880 <getScalingFactor>
 80078c8:	4682      	mov	sl, r0
 80078ca:	4630      	mov	r0, r6
 80078cc:	f7ff ffd8 	bl	8007880 <getScalingFactor>
 80078d0:	4681      	mov	r9, r0
 80078d2:	4628      	mov	r0, r5
 80078d4:	f7ff ffd4 	bl	8007880 <getScalingFactor>
 80078d8:	45ca      	cmp	sl, r9
 80078da:	d318      	bcc.n	800790e <REMNG_ExecRamp+0x62>
 80078dc:	4548      	cmp	r0, r9
 80078de:	bf28      	it	cs
 80078e0:	4648      	movcs	r0, r9
 80078e2:	6823      	ldr	r3, [r4, #0]
 80078e4:	4a12      	ldr	r2, [pc, #72]	; (8007930 <REMNG_ExecRamp+0x84>)
 80078e6:	6160      	str	r0, [r4, #20]
 80078e8:	fb03 f308 	mul.w	r3, r3, r8
 80078ec:	fba2 2303 	umull	r2, r3, r2, r3
 80078f0:	099b      	lsrs	r3, r3, #6
 80078f2:	fb06 f600 	mul.w	r6, r6, r0
 80078f6:	3301      	adds	r3, #1
 80078f8:	fb00 f007 	mul.w	r0, r0, r7
 80078fc:	6065      	str	r5, [r4, #4]
 80078fe:	fb90 f0f3 	sdiv	r0, r0, r3
 8007902:	60a6      	str	r6, [r4, #8]
 8007904:	e9c4 3003 	strd	r3, r0, [r4, #12]
 8007908:	2001      	movs	r0, #1
 800790a:	e8bd 87f0 	ldmia.w	sp!, {r4, r5, r6, r7, r8, r9, sl, pc}
 800790e:	4550      	cmp	r0, sl
 8007910:	bf28      	it	cs
 8007912:	4650      	movcs	r0, sl
 8007914:	e7e5      	b.n	80078e2 <REMNG_ExecRamp+0x36>
 8007916:	4608      	mov	r0, r1
 8007918:	f7ff ffb2 	bl	8007880 <getScalingFactor>
 800791c:	fb05 f500 	mul.w	r5, r5, r0
 8007920:	6160      	str	r0, [r4, #20]
 8007922:	60a5      	str	r5, [r4, #8]
 8007924:	e9c4 8803 	strd	r8, r8, [r4, #12]
 8007928:	2001      	movs	r0, #1
 800792a:	e8bd 87f0 	ldmia.w	sp!, {r4, r5, r6, r7, r8, r9, sl, pc}
 800792e:	bf00      	nop
 8007930:	10624dd3 	.word	0x10624dd3

08007934 <SPD_GetElAngle>:
 8007934:	f9b0 0004 	ldrsh.w	r0, [r0, #4]
 8007938:	4770      	bx	lr
 800793a:	bf00      	nop

0800793c <SPD_GetAvrgMecSpeedUnit>:
 800793c:	f9b0 000c 	ldrsh.w	r0, [r0, #12]
 8007940:	4770      	bx	lr
 8007942:	bf00      	nop

08007944 <SPD_GetInstElSpeedDpp>:
 8007944:	f9b0 0010 	ldrsh.w	r0, [r0, #16]
 8007948:	4770      	bx	lr
 800794a:	bf00      	nop

0800794c <SPD_IsMecSpeedReliable>:
 800794c:	f9b1 1000 	ldrsh.w	r1, [r1]
 8007950:	b430      	push	{r4, r5}
 8007952:	b28a      	uxth	r2, r1
 8007954:	2900      	cmp	r1, #0
 8007956:	bfb8      	it	lt
 8007958:	4252      	neglt	r2, r2
 800795a:	8ac5      	ldrh	r5, [r0, #22]
 800795c:	78c4      	ldrb	r4, [r0, #3]
 800795e:	7803      	ldrb	r3, [r0, #0]
 8007960:	8a81      	ldrh	r1, [r0, #20]
 8007962:	bfb8      	it	lt
 8007964:	b292      	uxthlt	r2, r2
 8007966:	4295      	cmp	r5, r2
 8007968:	d819      	bhi.n	800799e <SPD_IsMecSpeedReliable+0x52>
 800796a:	4291      	cmp	r1, r2
 800796c:	bf2c      	ite	cs
 800796e:	2200      	movcs	r2, #0
 8007970:	2201      	movcc	r2, #1
 8007972:	f9b0 5012 	ldrsh.w	r5, [r0, #18]
 8007976:	b2a9      	uxth	r1, r5
 8007978:	2d00      	cmp	r5, #0
 800797a:	bfb8      	it	lt
 800797c:	4249      	neglt	r1, r1
 800797e:	8b05      	ldrh	r5, [r0, #24]
 8007980:	bfb8      	it	lt
 8007982:	b289      	uxthlt	r1, r1
 8007984:	428d      	cmp	r5, r1
 8007986:	d300      	bcc.n	800798a <SPD_IsMecSpeedReliable+0x3e>
 8007988:	b15a      	cbz	r2, 80079a2 <SPD_IsMecSpeedReliable+0x56>
 800798a:	429c      	cmp	r4, r3
 800798c:	d901      	bls.n	8007992 <SPD_IsMecSpeedReliable+0x46>
 800798e:	3301      	adds	r3, #1
 8007990:	b2db      	uxtb	r3, r3
 8007992:	7003      	strb	r3, [r0, #0]
 8007994:	1b18      	subs	r0, r3, r4
 8007996:	bf18      	it	ne
 8007998:	2001      	movne	r0, #1
 800799a:	bc30      	pop	{r4, r5}
 800799c:	4770      	bx	lr
 800799e:	2201      	movs	r2, #1
 80079a0:	e7e7      	b.n	8007972 <SPD_IsMecSpeedReliable+0x26>
 80079a2:	429c      	cmp	r4, r3
 80079a4:	bf88      	it	hi
 80079a6:	2300      	movhi	r3, #0
 80079a8:	e7f3      	b.n	8007992 <SPD_IsMecSpeedReliable+0x46>
 80079aa:	bf00      	nop

080079ac <SPD_GetS16Speed>:
 80079ac:	f9b0 300c 	ldrsh.w	r3, [r0, #12]
 80079b0:	f9b0 0014 	ldrsh.w	r0, [r0, #20]
 80079b4:	ebc3 33c3 	rsb	r3, r3, r3, lsl #15
 80079b8:	fb93 f0f0 	sdiv	r0, r3, r0
 80079bc:	b200      	sxth	r0, r0
 80079be:	4770      	bx	lr

080079c0 <STC_Init>:
 80079c0:	b430      	push	{r4, r5}
 80079c2:	f9b0 502c 	ldrsh.w	r5, [r0, #44]	; 0x2c
 80079c6:	f9b0 402e 	ldrsh.w	r4, [r0, #46]	; 0x2e
 80079ca:	6101      	str	r1, [r0, #16]
 80079cc:	2300      	movs	r3, #0
 80079ce:	042d      	lsls	r5, r5, #16
 80079d0:	0424      	lsls	r4, r4, #16
 80079d2:	f890 102a 	ldrb.w	r1, [r0, #42]	; 0x2a
 80079d6:	6142      	str	r2, [r0, #20]
 80079d8:	e9c0 5401 	strd	r5, r4, [r0, #4]
 80079dc:	7001      	strb	r1, [r0, #0]
 80079de:	8043      	strh	r3, [r0, #2]
 80079e0:	60c3      	str	r3, [r0, #12]
 80079e2:	6183      	str	r3, [r0, #24]
 80079e4:	bc30      	pop	{r4, r5}
 80079e6:	4770      	bx	lr

080079e8 <STC_SetSpeedSensor>:
 80079e8:	6141      	str	r1, [r0, #20]
 80079ea:	4770      	bx	lr

080079ec <STC_GetSpeedSensor>:
 80079ec:	6940      	ldr	r0, [r0, #20]
 80079ee:	4770      	bx	lr

080079f0 <STC_Clear>:
 80079f0:	7803      	ldrb	r3, [r0, #0]
 80079f2:	2b01      	cmp	r3, #1
 80079f4:	d000      	beq.n	80079f8 <STC_Clear+0x8>
 80079f6:	4770      	bx	lr
 80079f8:	6900      	ldr	r0, [r0, #16]
 80079fa:	2100      	movs	r1, #0
 80079fc:	f7fe bdea 	b.w	80065d4 <PID_SetIntegralTerm>

08007a00 <STC_GetMecSpeedRefUnit>:
 8007a00:	6840      	ldr	r0, [r0, #4]
 8007a02:	2800      	cmp	r0, #0
 8007a04:	bfbc      	itt	lt
 8007a06:	f500 407f 	addlt.w	r0, r0, #65280	; 0xff00
 8007a0a:	30ff      	addlt	r0, #255	; 0xff
 8007a0c:	1400      	asrs	r0, r0, #16
 8007a0e:	4770      	bx	lr

08007a10 <STC_GetTorqueRef>:
 8007a10:	6880      	ldr	r0, [r0, #8]
 8007a12:	2800      	cmp	r0, #0
 8007a14:	bfbc      	itt	lt
 8007a16:	f500 407f 	addlt.w	r0, r0, #65280	; 0xff00
 8007a1a:	30ff      	addlt	r0, #255	; 0xff
 8007a1c:	1400      	asrs	r0, r0, #16
 8007a1e:	4770      	bx	lr

08007a20 <STC_SetControlMode>:
 8007a20:	2300      	movs	r3, #0
 8007a22:	7001      	strb	r1, [r0, #0]
 8007a24:	60c3      	str	r3, [r0, #12]
 8007a26:	4770      	bx	lr

08007a28 <STC_ExecRamp>:
 8007a28:	7803      	ldrb	r3, [r0, #0]
 8007a2a:	b570      	push	{r4, r5, r6, lr}
 8007a2c:	4604      	mov	r4, r0
 8007a2e:	460d      	mov	r5, r1
 8007a30:	4616      	mov	r6, r2
 8007a32:	b313      	cbz	r3, 8007a7a <STC_ExecRamp+0x52>
 8007a34:	6840      	ldr	r0, [r0, #4]
 8007a36:	8be3      	ldrh	r3, [r4, #30]
 8007a38:	2800      	cmp	r0, #0
 8007a3a:	bfbc      	itt	lt
 8007a3c:	f500 407f 	addlt.w	r0, r0, #65280	; 0xff00
 8007a40:	30ff      	addlt	r0, #255	; 0xff
 8007a42:	428b      	cmp	r3, r1
 8007a44:	ea4f 4020 	mov.w	r0, r0, asr #16
 8007a48:	db1c      	blt.n	8007a84 <STC_ExecRamp+0x5c>
 8007a4a:	f9b4 3024 	ldrsh.w	r3, [r4, #36]	; 0x24
 8007a4e:	428b      	cmp	r3, r1
 8007a50:	dc18      	bgt.n	8007a84 <STC_ExecRamp+0x5c>
 8007a52:	8c23      	ldrh	r3, [r4, #32]
 8007a54:	428b      	cmp	r3, r1
 8007a56:	dd03      	ble.n	8007a60 <STC_ExecRamp+0x38>
 8007a58:	f9b4 3022 	ldrsh.w	r3, [r4, #34]	; 0x22
 8007a5c:	428b      	cmp	r3, r1
 8007a5e:	db11      	blt.n	8007a84 <STC_ExecRamp+0x5c>
 8007a60:	b9c6      	cbnz	r6, 8007a94 <STC_ExecRamp+0x6c>
 8007a62:	7823      	ldrb	r3, [r4, #0]
 8007a64:	042d      	lsls	r5, r5, #16
 8007a66:	2b01      	cmp	r3, #1
 8007a68:	f04f 0300 	mov.w	r3, #0
 8007a6c:	bf0c      	ite	eq
 8007a6e:	6065      	streq	r5, [r4, #4]
 8007a70:	60a5      	strne	r5, [r4, #8]
 8007a72:	60e3      	str	r3, [r4, #12]
 8007a74:	61a3      	str	r3, [r4, #24]
 8007a76:	2001      	movs	r0, #1
 8007a78:	bd70      	pop	{r4, r5, r6, pc}
 8007a7a:	f7ff ffc9 	bl	8007a10 <STC_GetTorqueRef>
 8007a7e:	8ce3      	ldrh	r3, [r4, #38]	; 0x26
 8007a80:	42ab      	cmp	r3, r5
 8007a82:	da01      	bge.n	8007a88 <STC_ExecRamp+0x60>
 8007a84:	2000      	movs	r0, #0
 8007a86:	bd70      	pop	{r4, r5, r6, pc}
 8007a88:	f9b4 3028 	ldrsh.w	r3, [r4, #40]	; 0x28
 8007a8c:	42ab      	cmp	r3, r5
 8007a8e:	dcf9      	bgt.n	8007a84 <STC_ExecRamp+0x5c>
 8007a90:	2e00      	cmp	r6, #0
 8007a92:	d0e6      	beq.n	8007a62 <STC_ExecRamp+0x3a>
 8007a94:	8ba3      	ldrh	r3, [r4, #28]
 8007a96:	4a08      	ldr	r2, [pc, #32]	; (8007ab8 <STC_ExecRamp+0x90>)
 8007a98:	8065      	strh	r5, [r4, #2]
 8007a9a:	fb06 f303 	mul.w	r3, r6, r3
 8007a9e:	fba2 2303 	umull	r2, r3, r2, r3
 8007aa2:	099b      	lsrs	r3, r3, #6
 8007aa4:	3301      	adds	r3, #1
 8007aa6:	1a2d      	subs	r5, r5, r0
 8007aa8:	042d      	lsls	r5, r5, #16
 8007aaa:	60e3      	str	r3, [r4, #12]
 8007aac:	fb95 f5f3 	sdiv	r5, r5, r3
 8007ab0:	2001      	movs	r0, #1
 8007ab2:	61a5      	str	r5, [r4, #24]
 8007ab4:	bd70      	pop	{r4, r5, r6, pc}
 8007ab6:	bf00      	nop
 8007ab8:	10624dd3 	.word	0x10624dd3

08007abc <STC_StopRamp>:
 8007abc:	2300      	movs	r3, #0
 8007abe:	60c3      	str	r3, [r0, #12]
 8007ac0:	6183      	str	r3, [r0, #24]
 8007ac2:	4770      	bx	lr

08007ac4 <STC_CalcTorqueReference>:
 8007ac4:	b570      	push	{r4, r5, r6, lr}
 8007ac6:	e9d0 1501 	ldrd	r1, r5, [r0, #4]
 8007aca:	7802      	ldrb	r2, [r0, #0]
 8007acc:	68c3      	ldr	r3, [r0, #12]
 8007ace:	2a00      	cmp	r2, #0
 8007ad0:	bf18      	it	ne
 8007ad2:	460d      	movne	r5, r1
 8007ad4:	2b01      	cmp	r3, #1
 8007ad6:	d910      	bls.n	8007afa <STC_CalcTorqueReference+0x36>
 8007ad8:	6981      	ldr	r1, [r0, #24]
 8007ada:	3b01      	subs	r3, #1
 8007adc:	60c3      	str	r3, [r0, #12]
 8007ade:	440d      	add	r5, r1
 8007ae0:	2d00      	cmp	r5, #0
 8007ae2:	4629      	mov	r1, r5
 8007ae4:	bfbc      	itt	lt
 8007ae6:	f505 417f 	addlt.w	r1, r5, #65280	; 0xff00
 8007aea:	31ff      	addlt	r1, #255	; 0xff
 8007aec:	2a01      	cmp	r2, #1
 8007aee:	ea4f 4621 	mov.w	r6, r1, asr #16
 8007af2:	d009      	beq.n	8007b08 <STC_CalcTorqueReference+0x44>
 8007af4:	6085      	str	r5, [r0, #8]
 8007af6:	b230      	sxth	r0, r6
 8007af8:	bd70      	pop	{r4, r5, r6, pc}
 8007afa:	d1f1      	bne.n	8007ae0 <STC_CalcTorqueReference+0x1c>
 8007afc:	f9b0 5002 	ldrsh.w	r5, [r0, #2]
 8007b00:	2300      	movs	r3, #0
 8007b02:	042d      	lsls	r5, r5, #16
 8007b04:	60c3      	str	r3, [r0, #12]
 8007b06:	e7eb      	b.n	8007ae0 <STC_CalcTorqueReference+0x1c>
 8007b08:	4604      	mov	r4, r0
 8007b0a:	6940      	ldr	r0, [r0, #20]
 8007b0c:	f7ff ff16 	bl	800793c <SPD_GetAvrgMecSpeedUnit>
 8007b10:	1a30      	subs	r0, r6, r0
 8007b12:	b201      	sxth	r1, r0
 8007b14:	6920      	ldr	r0, [r4, #16]
 8007b16:	f7fe fd69 	bl	80065ec <PI_Controller>
 8007b1a:	0403      	lsls	r3, r0, #16
 8007b1c:	e9c4 5301 	strd	r5, r3, [r4, #4]
 8007b20:	bd70      	pop	{r4, r5, r6, pc}
 8007b22:	bf00      	nop

08007b24 <STC_GetMecSpeedRefUnitDefault>:
 8007b24:	f9b0 002c 	ldrsh.w	r0, [r0, #44]	; 0x2c
 8007b28:	4770      	bx	lr
 8007b2a:	bf00      	nop

08007b2c <STC_GetMaxAppPositiveMecSpeedUnit>:
 8007b2c:	8bc0      	ldrh	r0, [r0, #30]
 8007b2e:	4770      	bx	lr

08007b30 <STC_GetMinAppNegativeMecSpeedUnit>:
 8007b30:	f9b0 0024 	ldrsh.w	r0, [r0, #36]	; 0x24
 8007b34:	4770      	bx	lr
 8007b36:	bf00      	nop

08007b38 <STC_GetDefaultIqdref>:
 8007b38:	f8d0 302e 	ldr.w	r3, [r0, #46]	; 0x2e
 8007b3c:	2000      	movs	r0, #0
 8007b3e:	b29a      	uxth	r2, r3
 8007b40:	f362 000f 	bfi	r0, r2, #0, #16
 8007b44:	0c1b      	lsrs	r3, r3, #16
 8007b46:	b082      	sub	sp, #8
 8007b48:	f363 401f 	bfi	r0, r3, #16, #16
 8007b4c:	b002      	add	sp, #8
 8007b4e:	4770      	bx	lr

08007b50 <STC_ForceSpeedReferenceToCurrentSpeed>:
 8007b50:	b510      	push	{r4, lr}
 8007b52:	4604      	mov	r4, r0
 8007b54:	6940      	ldr	r0, [r0, #20]
 8007b56:	f7ff fef1 	bl	800793c <SPD_GetAvrgMecSpeedUnit>
 8007b5a:	0400      	lsls	r0, r0, #16
 8007b5c:	6060      	str	r0, [r4, #4]
 8007b5e:	bd10      	pop	{r4, pc}

08007b60 <STM_Init>:
 8007b60:	2300      	movs	r3, #0
 8007b62:	7003      	strb	r3, [r0, #0]
 8007b64:	f8c0 3002 	str.w	r3, [r0, #2]
 8007b68:	4770      	bx	lr
 8007b6a:	bf00      	nop

08007b6c <STM_FaultProcessing>:
 8007b6c:	8843      	ldrh	r3, [r0, #2]
 8007b6e:	b430      	push	{r4, r5}
 8007b70:	8885      	ldrh	r5, [r0, #4]
 8007b72:	4604      	mov	r4, r0
 8007b74:	7800      	ldrb	r0, [r0, #0]
 8007b76:	430b      	orrs	r3, r1
 8007b78:	ea23 0202 	bic.w	r2, r3, r2
 8007b7c:	4329      	orrs	r1, r5
 8007b7e:	280a      	cmp	r0, #10
 8007b80:	80a1      	strh	r1, [r4, #4]
 8007b82:	8062      	strh	r2, [r4, #2]
 8007b84:	d006      	beq.n	8007b94 <STM_FaultProcessing+0x28>
 8007b86:	b90a      	cbnz	r2, 8007b8c <STM_FaultProcessing+0x20>
 8007b88:	bc30      	pop	{r4, r5}
 8007b8a:	4770      	bx	lr
 8007b8c:	200a      	movs	r0, #10
 8007b8e:	7020      	strb	r0, [r4, #0]
 8007b90:	bc30      	pop	{r4, r5}
 8007b92:	4770      	bx	lr
 8007b94:	2a00      	cmp	r2, #0
 8007b96:	d1f7      	bne.n	8007b88 <STM_FaultProcessing+0x1c>
 8007b98:	200b      	movs	r0, #11
 8007b9a:	7020      	strb	r0, [r4, #0]
 8007b9c:	bc30      	pop	{r4, r5}
 8007b9e:	4770      	bx	lr

08007ba0 <STM_NextState>:
 8007ba0:	b508      	push	{r3, lr}
 8007ba2:	7803      	ldrb	r3, [r0, #0]
 8007ba4:	2b14      	cmp	r3, #20
 8007ba6:	d819      	bhi.n	8007bdc <STM_NextState+0x3c>
 8007ba8:	e8df f003 	tbb	[pc, r3]
 8007bac:	240d1257 	.word	0x240d1257
 8007bb0:	3c0d352e 	.word	0x3c0d352e
 8007bb4:	1818423f 	.word	0x1818423f
 8007bb8:	4a650b47 	.word	0x4a650b47
 8007bbc:	53505e4d 	.word	0x53505e4d
 8007bc0:	39          	.byte	0x39
 8007bc1:	00          	.byte	0x00
 8007bc2:	290e      	cmp	r1, #14
 8007bc4:	d001      	beq.n	8007bca <STM_NextState+0x2a>
 8007bc6:	2907      	cmp	r1, #7
 8007bc8:	d108      	bne.n	8007bdc <STM_NextState+0x3c>
 8007bca:	7001      	strb	r1, [r0, #0]
 8007bcc:	2001      	movs	r0, #1
 8007bce:	bd08      	pop	{r3, pc}
 8007bd0:	2907      	cmp	r1, #7
 8007bd2:	d0fa      	beq.n	8007bca <STM_NextState+0x2a>
 8007bd4:	f1a1 030d 	sub.w	r3, r1, #13
 8007bd8:	2b01      	cmp	r3, #1
 8007bda:	d9f6      	bls.n	8007bca <STM_NextState+0x2a>
 8007bdc:	f001 03fd 	and.w	r3, r1, #253	; 0xfd
 8007be0:	2b01      	cmp	r3, #1
 8007be2:	d00f      	beq.n	8007c04 <STM_NextState+0x64>
 8007be4:	2907      	cmp	r1, #7
 8007be6:	d00d      	beq.n	8007c04 <STM_NextState+0x64>
 8007be8:	2200      	movs	r2, #0
 8007bea:	2180      	movs	r1, #128	; 0x80
 8007bec:	f7ff ffbe 	bl	8007b6c <STM_FaultProcessing>
 8007bf0:	2000      	movs	r0, #0
 8007bf2:	bd08      	pop	{r3, pc}
 8007bf4:	2911      	cmp	r1, #17
 8007bf6:	d8f7      	bhi.n	8007be8 <STM_NextState+0x48>
 8007bf8:	4b21      	ldr	r3, [pc, #132]	; (8007c80 <STM_NextState+0xe0>)
 8007bfa:	40cb      	lsrs	r3, r1
 8007bfc:	07da      	lsls	r2, r3, #31
 8007bfe:	d4e4      	bmi.n	8007bca <STM_NextState+0x2a>
 8007c00:	2903      	cmp	r1, #3
 8007c02:	d1f1      	bne.n	8007be8 <STM_NextState+0x48>
 8007c04:	2000      	movs	r0, #0
 8007c06:	bd08      	pop	{r3, pc}
 8007c08:	2913      	cmp	r1, #19
 8007c0a:	d0de      	beq.n	8007bca <STM_NextState+0x2a>
 8007c0c:	f001 03fd 	and.w	r3, r1, #253	; 0xfd
 8007c10:	2b05      	cmp	r3, #5
 8007c12:	d1e5      	bne.n	8007be0 <STM_NextState+0x40>
 8007c14:	e7d9      	b.n	8007bca <STM_NextState+0x2a>
 8007c16:	1f8b      	subs	r3, r1, #6
 8007c18:	2b01      	cmp	r3, #1
 8007c1a:	d8df      	bhi.n	8007bdc <STM_NextState+0x3c>
 8007c1c:	e7d5      	b.n	8007bca <STM_NextState+0x2a>
 8007c1e:	2912      	cmp	r1, #18
 8007c20:	d1d1      	bne.n	8007bc6 <STM_NextState+0x26>
 8007c22:	e7d2      	b.n	8007bca <STM_NextState+0x2a>
 8007c24:	2908      	cmp	r1, #8
 8007c26:	d1d9      	bne.n	8007bdc <STM_NextState+0x3c>
 8007c28:	e7cf      	b.n	8007bca <STM_NextState+0x2a>
 8007c2a:	2909      	cmp	r1, #9
 8007c2c:	d1d6      	bne.n	8007bdc <STM_NextState+0x3c>
 8007c2e:	e7cc      	b.n	8007bca <STM_NextState+0x2a>
 8007c30:	2900      	cmp	r1, #0
 8007c32:	d0ca      	beq.n	8007bca <STM_NextState+0x2a>
 8007c34:	290c      	cmp	r1, #12
 8007c36:	d1d1      	bne.n	8007bdc <STM_NextState+0x3c>
 8007c38:	e7c7      	b.n	8007bca <STM_NextState+0x2a>
 8007c3a:	2900      	cmp	r1, #0
 8007c3c:	d1ce      	bne.n	8007bdc <STM_NextState+0x3c>
 8007c3e:	e7c4      	b.n	8007bca <STM_NextState+0x2a>
 8007c40:	2902      	cmp	r1, #2
 8007c42:	d1c0      	bne.n	8007bc6 <STM_NextState+0x26>
 8007c44:	e7c1      	b.n	8007bca <STM_NextState+0x2a>
 8007c46:	2911      	cmp	r1, #17
 8007c48:	d1bd      	bne.n	8007bc6 <STM_NextState+0x26>
 8007c4a:	e7be      	b.n	8007bca <STM_NextState+0x2a>
 8007c4c:	2904      	cmp	r1, #4
 8007c4e:	d1ba      	bne.n	8007bc6 <STM_NextState+0x26>
 8007c50:	e7bb      	b.n	8007bca <STM_NextState+0x2a>
 8007c52:	1f0b      	subs	r3, r1, #4
 8007c54:	2b01      	cmp	r3, #1
 8007c56:	d8b6      	bhi.n	8007bc6 <STM_NextState+0x26>
 8007c58:	e7b7      	b.n	8007bca <STM_NextState+0x2a>
 8007c5a:	f001 03fd 	and.w	r3, r1, #253	; 0xfd
 8007c5e:	2b01      	cmp	r3, #1
 8007c60:	d0b3      	beq.n	8007bca <STM_NextState+0x2a>
 8007c62:	290c      	cmp	r1, #12
 8007c64:	d1be      	bne.n	8007be4 <STM_NextState+0x44>
 8007c66:	e7b0      	b.n	8007bca <STM_NextState+0x2a>
 8007c68:	2914      	cmp	r1, #20
 8007c6a:	d8b7      	bhi.n	8007bdc <STM_NextState+0x3c>
 8007c6c:	4b05      	ldr	r3, [pc, #20]	; (8007c84 <STM_NextState+0xe4>)
 8007c6e:	40cb      	lsrs	r3, r1
 8007c70:	07db      	lsls	r3, r3, #31
 8007c72:	d4aa      	bmi.n	8007bca <STM_NextState+0x2a>
 8007c74:	e7b2      	b.n	8007bdc <STM_NextState+0x3c>
 8007c76:	f001 03f7 	and.w	r3, r1, #247	; 0xf7
 8007c7a:	2b07      	cmp	r3, #7
 8007c7c:	d1ae      	bne.n	8007bdc <STM_NextState+0x3c>
 8007c7e:	e7a4      	b.n	8007bca <STM_NextState+0x2a>
 8007c80:	00030092 	.word	0x00030092
 8007c84:	00140080 	.word	0x00140080

08007c88 <STM_GetState>:
 8007c88:	7800      	ldrb	r0, [r0, #0]
 8007c8a:	4770      	bx	lr

08007c8c <STM_FaultAcknowledged>:
 8007c8c:	7803      	ldrb	r3, [r0, #0]
 8007c8e:	2b0b      	cmp	r3, #11
 8007c90:	d001      	beq.n	8007c96 <STM_FaultAcknowledged+0xa>
 8007c92:	2000      	movs	r0, #0
 8007c94:	4770      	bx	lr
 8007c96:	2209      	movs	r2, #9
 8007c98:	2300      	movs	r3, #0
 8007c9a:	7002      	strb	r2, [r0, #0]
 8007c9c:	8083      	strh	r3, [r0, #4]
 8007c9e:	2001      	movs	r0, #1
 8007ca0:	4770      	bx	lr
 8007ca2:	bf00      	nop

08007ca4 <STM_GetFaultState>:
 8007ca4:	8883      	ldrh	r3, [r0, #4]
 8007ca6:	8840      	ldrh	r0, [r0, #2]
 8007ca8:	ea43 4000 	orr.w	r0, r3, r0, lsl #16
 8007cac:	4770      	bx	lr
 8007cae:	bf00      	nop

08007cb0 <UFCP_Init>:
 8007cb0:	f7fe bbca 	b.w	8006448 <FCP_Init>

08007cb4 <UFCP_TX_IRQ_Handler>:
 8007cb4:	f890 2097 	ldrb.w	r2, [r0, #151]	; 0x97
 8007cb8:	b192      	cbz	r2, 8007ce0 <UFCP_TX_IRQ_Handler+0x2c>
 8007cba:	f890 1098 	ldrb.w	r1, [r0, #152]	; 0x98
 8007cbe:	f8d0 2120 	ldr.w	r2, [r0, #288]	; 0x120
 8007cc2:	4603      	mov	r3, r0
 8007cc4:	b199      	cbz	r1, 8007cee <UFCP_TX_IRQ_Handler+0x3a>
 8007cc6:	2901      	cmp	r1, #1
 8007cc8:	d00b      	beq.n	8007ce2 <UFCP_TX_IRQ_Handler+0x2e>
 8007cca:	7d40      	ldrb	r0, [r0, #21]
 8007ccc:	3001      	adds	r0, #1
 8007cce:	4281      	cmp	r1, r0
 8007cd0:	dc0f      	bgt.n	8007cf2 <UFCP_TX_IRQ_Handler+0x3e>
 8007cd2:	1858      	adds	r0, r3, r1
 8007cd4:	3101      	adds	r1, #1
 8007cd6:	7d00      	ldrb	r0, [r0, #20]
 8007cd8:	8510      	strh	r0, [r2, #40]	; 0x28
 8007cda:	f883 1098 	strb.w	r1, [r3, #152]	; 0x98
 8007cde:	4770      	bx	lr
 8007ce0:	4770      	bx	lr
 8007ce2:	7d40      	ldrb	r0, [r0, #21]
 8007ce4:	8510      	strh	r0, [r2, #40]	; 0x28
 8007ce6:	3101      	adds	r1, #1
 8007ce8:	f883 1098 	strb.w	r1, [r3, #152]	; 0x98
 8007cec:	4770      	bx	lr
 8007cee:	7d00      	ldrb	r0, [r0, #20]
 8007cf0:	e7f8      	b.n	8007ce4 <UFCP_TX_IRQ_Handler+0x30>
 8007cf2:	b430      	push	{r4, r5}
 8007cf4:	f893 1096 	ldrb.w	r1, [r3, #150]	; 0x96
 8007cf8:	8511      	strh	r1, [r2, #40]	; 0x28
 8007cfa:	6811      	ldr	r1, [r2, #0]
 8007cfc:	e9d3 0400 	ldrd	r0, r4, [r3]
 8007d00:	2500      	movs	r5, #0
 8007d02:	f021 0180 	bic.w	r1, r1, #128	; 0x80
 8007d06:	6011      	str	r1, [r2, #0]
 8007d08:	f883 5097 	strb.w	r5, [r3, #151]	; 0x97
 8007d0c:	4623      	mov	r3, r4
 8007d0e:	bc30      	pop	{r4, r5}
 8007d10:	4718      	bx	r3
 8007d12:	bf00      	nop

08007d14 <UFCP_Receive>:
 8007d14:	f890 311c 	ldrb.w	r3, [r0, #284]	; 0x11c
 8007d18:	b10b      	cbz	r3, 8007d1e <UFCP_Receive+0xa>
 8007d1a:	2001      	movs	r0, #1
 8007d1c:	4770      	bx	lr
 8007d1e:	f8d0 2120 	ldr.w	r2, [r0, #288]	; 0x120
 8007d22:	f880 311d 	strb.w	r3, [r0, #285]	; 0x11d
 8007d26:	6813      	ldr	r3, [r2, #0]
 8007d28:	2101      	movs	r1, #1
 8007d2a:	f043 0320 	orr.w	r3, r3, #32
 8007d2e:	f880 111c 	strb.w	r1, [r0, #284]	; 0x11c
 8007d32:	2002      	movs	r0, #2
 8007d34:	6013      	str	r3, [r2, #0]
 8007d36:	4770      	bx	lr

08007d38 <UFCP_Send>:
 8007d38:	e92d 41f0 	stmdb	sp!, {r4, r5, r6, r7, r8, lr}
 8007d3c:	4604      	mov	r4, r0
 8007d3e:	f890 0097 	ldrb.w	r0, [r0, #151]	; 0x97
 8007d42:	b110      	cbz	r0, 8007d4a <UFCP_Send+0x12>
 8007d44:	2001      	movs	r0, #1
 8007d46:	e8bd 81f0 	ldmia.w	sp!, {r4, r5, r6, r7, r8, pc}
 8007d4a:	1e58      	subs	r0, r3, #1
 8007d4c:	7521      	strb	r1, [r4, #20]
 8007d4e:	7563      	strb	r3, [r4, #21]
 8007d50:	b2c1      	uxtb	r1, r0
 8007d52:	f104 0716 	add.w	r7, r4, #22
 8007d56:	2b00      	cmp	r3, #0
 8007d58:	d05d      	beq.n	8007e16 <UFCP_Send+0xde>
 8007d5a:	1d10      	adds	r0, r2, #4
 8007d5c:	f104 051a 	add.w	r5, r4, #26
 8007d60:	4295      	cmp	r5, r2
 8007d62:	bf88      	it	hi
 8007d64:	42b8      	cmphi	r0, r7
 8007d66:	d86b      	bhi.n	8007e40 <UFCP_Send+0x108>
 8007d68:	2b0b      	cmp	r3, #11
 8007d6a:	d969      	bls.n	8007e40 <UFCP_Send+0x108>
 8007d6c:	4250      	negs	r0, r2
 8007d6e:	f000 0003 	and.w	r0, r0, #3
 8007d72:	1cc5      	adds	r5, r0, #3
 8007d74:	42a9      	cmp	r1, r5
 8007d76:	d339      	bcc.n	8007dec <UFCP_Send+0xb4>
 8007d78:	2800      	cmp	r0, #0
 8007d7a:	d06c      	beq.n	8007e56 <UFCP_Send+0x11e>
 8007d7c:	7811      	ldrb	r1, [r2, #0]
 8007d7e:	75a1      	strb	r1, [r4, #22]
 8007d80:	2801      	cmp	r0, #1
 8007d82:	f1a3 0102 	sub.w	r1, r3, #2
 8007d86:	b2c9      	uxtb	r1, r1
 8007d88:	f102 0c01 	add.w	ip, r2, #1
 8007d8c:	f104 0717 	add.w	r7, r4, #23
 8007d90:	d012      	beq.n	8007db8 <UFCP_Send+0x80>
 8007d92:	7851      	ldrb	r1, [r2, #1]
 8007d94:	75e1      	strb	r1, [r4, #23]
 8007d96:	2803      	cmp	r0, #3
 8007d98:	f1a3 0103 	sub.w	r1, r3, #3
 8007d9c:	b2c9      	uxtb	r1, r1
 8007d9e:	f102 0c02 	add.w	ip, r2, #2
 8007da2:	f104 0718 	add.w	r7, r4, #24
 8007da6:	d107      	bne.n	8007db8 <UFCP_Send+0x80>
 8007da8:	7891      	ldrb	r1, [r2, #2]
 8007daa:	7621      	strb	r1, [r4, #24]
 8007dac:	1f19      	subs	r1, r3, #4
 8007dae:	b2c9      	uxtb	r1, r1
 8007db0:	f102 0c03 	add.w	ip, r2, #3
 8007db4:	f104 0719 	add.w	r7, r4, #25
 8007db8:	1a1b      	subs	r3, r3, r0
 8007dba:	b2dd      	uxtb	r5, r3
 8007dbc:	f100 0316 	add.w	r3, r0, #22
 8007dc0:	4402      	add	r2, r0
 8007dc2:	ea4f 0895 	mov.w	r8, r5, lsr #2
 8007dc6:	18e0      	adds	r0, r4, r3
 8007dc8:	2300      	movs	r3, #0
 8007dca:	3301      	adds	r3, #1
 8007dcc:	b2de      	uxtb	r6, r3
 8007dce:	f852 eb04 	ldr.w	lr, [r2], #4
 8007dd2:	f840 eb04 	str.w	lr, [r0], #4
 8007dd6:	45b0      	cmp	r8, r6
 8007dd8:	d8f7      	bhi.n	8007dca <UFCP_Send+0x92>
 8007dda:	f005 03fc 	and.w	r3, r5, #252	; 0xfc
 8007dde:	1ac9      	subs	r1, r1, r3
 8007de0:	429d      	cmp	r5, r3
 8007de2:	b2c9      	uxtb	r1, r1
 8007de4:	eb0c 0203 	add.w	r2, ip, r3
 8007de8:	441f      	add	r7, r3
 8007dea:	d014      	beq.n	8007e16 <UFCP_Send+0xde>
 8007dec:	7813      	ldrb	r3, [r2, #0]
 8007dee:	703b      	strb	r3, [r7, #0]
 8007df0:	b189      	cbz	r1, 8007e16 <UFCP_Send+0xde>
 8007df2:	7853      	ldrb	r3, [r2, #1]
 8007df4:	707b      	strb	r3, [r7, #1]
 8007df6:	2901      	cmp	r1, #1
 8007df8:	d00d      	beq.n	8007e16 <UFCP_Send+0xde>
 8007dfa:	7893      	ldrb	r3, [r2, #2]
 8007dfc:	70bb      	strb	r3, [r7, #2]
 8007dfe:	2902      	cmp	r1, #2
 8007e00:	d009      	beq.n	8007e16 <UFCP_Send+0xde>
 8007e02:	78d3      	ldrb	r3, [r2, #3]
 8007e04:	70fb      	strb	r3, [r7, #3]
 8007e06:	2903      	cmp	r1, #3
 8007e08:	d005      	beq.n	8007e16 <UFCP_Send+0xde>
 8007e0a:	7913      	ldrb	r3, [r2, #4]
 8007e0c:	713b      	strb	r3, [r7, #4]
 8007e0e:	2904      	cmp	r1, #4
 8007e10:	d001      	beq.n	8007e16 <UFCP_Send+0xde>
 8007e12:	7953      	ldrb	r3, [r2, #5]
 8007e14:	717b      	strb	r3, [r7, #5]
 8007e16:	f104 0014 	add.w	r0, r4, #20
 8007e1a:	f7fe fb2b 	bl	8006474 <FCP_CalcCRC>
 8007e1e:	f8d4 2120 	ldr.w	r2, [r4, #288]	; 0x120
 8007e22:	f884 0096 	strb.w	r0, [r4, #150]	; 0x96
 8007e26:	2300      	movs	r3, #0
 8007e28:	f884 3098 	strb.w	r3, [r4, #152]	; 0x98
 8007e2c:	6813      	ldr	r3, [r2, #0]
 8007e2e:	2101      	movs	r1, #1
 8007e30:	f043 0380 	orr.w	r3, r3, #128	; 0x80
 8007e34:	f884 1097 	strb.w	r1, [r4, #151]	; 0x97
 8007e38:	2002      	movs	r0, #2
 8007e3a:	6013      	str	r3, [r2, #0]
 8007e3c:	e8bd 81f0 	ldmia.w	sp!, {r4, r5, r6, r7, r8, pc}
 8007e40:	3101      	adds	r1, #1
 8007e42:	4411      	add	r1, r2
 8007e44:	f104 0315 	add.w	r3, r4, #21
 8007e48:	f812 0b01 	ldrb.w	r0, [r2], #1
 8007e4c:	f803 0f01 	strb.w	r0, [r3, #1]!
 8007e50:	428a      	cmp	r2, r1
 8007e52:	d1f9      	bne.n	8007e48 <UFCP_Send+0x110>
 8007e54:	e7df      	b.n	8007e16 <UFCP_Send+0xde>
 8007e56:	4694      	mov	ip, r2
 8007e58:	e7ae      	b.n	8007db8 <UFCP_Send+0x80>
 8007e5a:	bf00      	nop

08007e5c <UFCP_RX_IRQ_Handler>:
 8007e5c:	f890 311c 	ldrb.w	r3, [r0, #284]	; 0x11c
 8007e60:	b1b3      	cbz	r3, 8007e90 <UFCP_RX_IRQ_Handler+0x34>
 8007e62:	b530      	push	{r4, r5, lr}
 8007e64:	f890 311d 	ldrb.w	r3, [r0, #285]	; 0x11d
 8007e68:	4604      	mov	r4, r0
 8007e6a:	b083      	sub	sp, #12
 8007e6c:	b2c8      	uxtb	r0, r1
 8007e6e:	b1e3      	cbz	r3, 8007eaa <UFCP_RX_IRQ_Handler+0x4e>
 8007e70:	2b01      	cmp	r3, #1
 8007e72:	d00f      	beq.n	8007e94 <UFCP_RX_IRQ_Handler+0x38>
 8007e74:	f894 109a 	ldrb.w	r1, [r4, #154]	; 0x9a
 8007e78:	3101      	adds	r1, #1
 8007e7a:	428b      	cmp	r3, r1
 8007e7c:	dc1f      	bgt.n	8007ebe <UFCP_RX_IRQ_Handler+0x62>
 8007e7e:	18e1      	adds	r1, r4, r3
 8007e80:	3301      	adds	r3, #1
 8007e82:	f881 0099 	strb.w	r0, [r1, #153]	; 0x99
 8007e86:	4823      	ldr	r0, [pc, #140]	; (8007f14 <UFCP_RX_IRQ_Handler+0xb8>)
 8007e88:	f884 311d 	strb.w	r3, [r4, #285]	; 0x11d
 8007e8c:	b003      	add	sp, #12
 8007e8e:	bd30      	pop	{r4, r5, pc}
 8007e90:	4820      	ldr	r0, [pc, #128]	; (8007f14 <UFCP_RX_IRQ_Handler+0xb8>)
 8007e92:	4770      	bx	lr
 8007e94:	060b      	lsls	r3, r1, #24
 8007e96:	f884 009a 	strb.w	r0, [r4, #154]	; 0x9a
 8007e9a:	481e      	ldr	r0, [pc, #120]	; (8007f14 <UFCP_RX_IRQ_Handler+0xb8>)
 8007e9c:	bf54      	ite	pl
 8007e9e:	2302      	movpl	r3, #2
 8007ea0:	2300      	movmi	r3, #0
 8007ea2:	f884 311d 	strb.w	r3, [r4, #285]	; 0x11d
 8007ea6:	b003      	add	sp, #12
 8007ea8:	bd30      	pop	{r4, r5, pc}
 8007eaa:	8a21      	ldrh	r1, [r4, #16]
 8007eac:	f884 0099 	strb.w	r0, [r4, #153]	; 0x99
 8007eb0:	4819      	ldr	r0, [pc, #100]	; (8007f18 <UFCP_RX_IRQ_Handler+0xbc>)
 8007eb2:	8261      	strh	r1, [r4, #18]
 8007eb4:	2301      	movs	r3, #1
 8007eb6:	f884 311d 	strb.w	r3, [r4, #285]	; 0x11d
 8007eba:	b003      	add	sp, #12
 8007ebc:	bd30      	pop	{r4, r5, pc}
 8007ebe:	f8d4 1120 	ldr.w	r1, [r4, #288]	; 0x120
 8007ec2:	f884 011b 	strb.w	r0, [r4, #283]	; 0x11b
 8007ec6:	680b      	ldr	r3, [r1, #0]
 8007ec8:	2200      	movs	r2, #0
 8007eca:	f023 0320 	bic.w	r3, r3, #32
 8007ece:	8262      	strh	r2, [r4, #18]
 8007ed0:	f104 0099 	add.w	r0, r4, #153	; 0x99
 8007ed4:	600b      	str	r3, [r1, #0]
 8007ed6:	f884 211c 	strb.w	r2, [r4, #284]	; 0x11c
 8007eda:	f7fe facb 	bl	8006474 <FCP_CalcCRC>
 8007ede:	f894 311b 	ldrb.w	r3, [r4, #283]	; 0x11b
 8007ee2:	4283      	cmp	r3, r0
 8007ee4:	d10a      	bne.n	8007efc <UFCP_RX_IRQ_Handler+0xa0>
 8007ee6:	6820      	ldr	r0, [r4, #0]
 8007ee8:	68a5      	ldr	r5, [r4, #8]
 8007eea:	f894 309a 	ldrb.w	r3, [r4, #154]	; 0x9a
 8007eee:	f894 1099 	ldrb.w	r1, [r4, #153]	; 0x99
 8007ef2:	f104 029b 	add.w	r2, r4, #155	; 0x9b
 8007ef6:	47a8      	blx	r5
 8007ef8:	4808      	ldr	r0, [pc, #32]	; (8007f1c <UFCP_RX_IRQ_Handler+0xc0>)
 8007efa:	e7c7      	b.n	8007e8c <UFCP_RX_IRQ_Handler+0x30>
 8007efc:	aa02      	add	r2, sp, #8
 8007efe:	230a      	movs	r3, #10
 8007f00:	f802 3d01 	strb.w	r3, [r2, #-1]!
 8007f04:	4620      	mov	r0, r4
 8007f06:	2301      	movs	r3, #1
 8007f08:	21ff      	movs	r1, #255	; 0xff
 8007f0a:	f7ff ff15 	bl	8007d38 <UFCP_Send>
 8007f0e:	4803      	ldr	r0, [pc, #12]	; (8007f1c <UFCP_RX_IRQ_Handler+0xc0>)
 8007f10:	e7bc      	b.n	8007e8c <UFCP_RX_IRQ_Handler+0x30>
 8007f12:	bf00      	nop
 8007f14:	08008c60 	.word	0x08008c60
 8007f18:	08008c62 	.word	0x08008c62
 8007f1c:	08008c64 	.word	0x08008c64

08007f20 <UFCP_OVR_IRQ_Handler>:
 8007f20:	b500      	push	{lr}
 8007f22:	b083      	sub	sp, #12
 8007f24:	aa02      	add	r2, sp, #8
 8007f26:	2308      	movs	r3, #8
 8007f28:	f802 3d01 	strb.w	r3, [r2, #-1]!
 8007f2c:	21ff      	movs	r1, #255	; 0xff
 8007f2e:	2301      	movs	r3, #1
 8007f30:	f7ff ff02 	bl	8007d38 <UFCP_Send>
 8007f34:	b003      	add	sp, #12
 8007f36:	f85d fb04 	ldr.w	pc, [sp], #4
 8007f3a:	bf00      	nop

08007f3c <UFCP_AbortReceive>:
 8007f3c:	2300      	movs	r3, #0
 8007f3e:	f880 311c 	strb.w	r3, [r0, #284]	; 0x11c
 8007f42:	4770      	bx	lr

08007f44 <VSS_Clear>:
 8007f44:	2300      	movs	r3, #0
 8007f46:	8ec2      	ldrh	r2, [r0, #54]	; 0x36
 8007f48:	85c2      	strh	r2, [r0, #46]	; 0x2e
 8007f4a:	7003      	strb	r3, [r0, #0]
 8007f4c:	6043      	str	r3, [r0, #4]
 8007f4e:	60c3      	str	r3, [r0, #12]
 8007f50:	8243      	strh	r3, [r0, #18]
 8007f52:	e9c0 3308 	strd	r3, r3, [r0, #32]
 8007f56:	8503      	strh	r3, [r0, #40]	; 0x28
 8007f58:	8603      	strh	r3, [r0, #48]	; 0x30
 8007f5a:	f880 302c 	strb.w	r3, [r0, #44]	; 0x2c
 8007f5e:	f880 302d 	strb.w	r3, [r0, #45]	; 0x2d
 8007f62:	f880 3032 	strb.w	r3, [r0, #50]	; 0x32
 8007f66:	f880 3033 	strb.w	r3, [r0, #51]	; 0x33
 8007f6a:	4770      	bx	lr

08007f6c <VSS_Init>:
 8007f6c:	b508      	push	{r3, lr}
 8007f6e:	f7ff ffe9 	bl	8007f44 <VSS_Clear>
 8007f72:	bd08      	pop	{r3, pc}

08007f74 <VSS_CalcElAngle>:
 8007f74:	f890 2033 	ldrb.w	r2, [r0, #51]	; 0x33
 8007f78:	4603      	mov	r3, r0
 8007f7a:	bb7a      	cbnz	r2, 8007fdc <VSS_CalcElAngle+0x68>
 8007f7c:	b4f0      	push	{r4, r5, r6, r7}
 8007f7e:	8e02      	ldrh	r2, [r0, #48]	; 0x30
 8007f80:	f9b0 500e 	ldrsh.w	r5, [r0, #14]
 8007f84:	88c7      	ldrh	r7, [r0, #6]
 8007f86:	f890 602c 	ldrb.w	r6, [r0, #44]	; 0x2c
 8007f8a:	7844      	ldrb	r4, [r0, #1]
 8007f8c:	fb95 f4f4 	sdiv	r4, r5, r4
 8007f90:	442a      	add	r2, r5
 8007f92:	b292      	uxth	r2, r2
 8007f94:	b210      	sxth	r0, r2
 8007f96:	443c      	add	r4, r7
 8007f98:	8618      	strh	r0, [r3, #48]	; 0x30
 8007f9a:	80dc      	strh	r4, [r3, #6]
 8007f9c:	b1de      	cbz	r6, 8007fd6 <VSS_CalcElAngle+0x62>
 8007f9e:	f9b3 402e 	ldrsh.w	r4, [r3, #46]	; 0x2e
 8007fa2:	b1fc      	cbz	r4, 8007fe4 <VSS_CalcElAngle+0x70>
 8007fa4:	3c01      	subs	r4, #1
 8007fa6:	b224      	sxth	r4, r4
 8007fa8:	85dc      	strh	r4, [r3, #46]	; 0x2e
 8007faa:	2d00      	cmp	r5, #0
 8007fac:	8809      	ldrh	r1, [r1, #0]
 8007fae:	db29      	blt.n	8008004 <VSS_CalcElAngle+0x90>
 8007fb0:	1a8a      	subs	r2, r1, r2
 8007fb2:	b212      	sxth	r2, r2
 8007fb4:	2601      	movs	r6, #1
 8007fb6:	fb02 f404 	mul.w	r4, r2, r4
 8007fba:	f9b3 5036 	ldrsh.w	r5, [r3, #54]	; 0x36
 8007fbe:	fb94 f4f5 	sdiv	r4, r4, r5
 8007fc2:	2a00      	cmp	r2, #0
 8007fc4:	fb14 f406 	smulbb	r4, r4, r6
 8007fc8:	b2a4      	uxth	r4, r4
 8007fca:	db14      	blt.n	8007ff6 <VSS_CalcElAngle+0x82>
 8007fcc:	1b0c      	subs	r4, r1, r4
 8007fce:	2201      	movs	r2, #1
 8007fd0:	b220      	sxth	r0, r4
 8007fd2:	f883 2032 	strb.w	r2, [r3, #50]	; 0x32
 8007fd6:	8098      	strh	r0, [r3, #4]
 8007fd8:	bcf0      	pop	{r4, r5, r6, r7}
 8007fda:	4770      	bx	lr
 8007fdc:	f9b1 0000 	ldrsh.w	r0, [r1]
 8007fe0:	8098      	strh	r0, [r3, #4]
 8007fe2:	4770      	bx	lr
 8007fe4:	f9b1 0000 	ldrsh.w	r0, [r1]
 8007fe8:	701c      	strb	r4, [r3, #0]
 8007fea:	2201      	movs	r2, #1
 8007fec:	f883 202d 	strb.w	r2, [r3, #45]	; 0x2d
 8007ff0:	8098      	strh	r0, [r3, #4]
 8007ff2:	bcf0      	pop	{r4, r5, r6, r7}
 8007ff4:	4770      	bx	lr
 8007ff6:	f893 2032 	ldrb.w	r2, [r3, #50]	; 0x32
 8007ffa:	2a00      	cmp	r2, #0
 8007ffc:	d0eb      	beq.n	8007fd6 <VSS_CalcElAngle+0x62>
 8007ffe:	440c      	add	r4, r1
 8008000:	b220      	sxth	r0, r4
 8008002:	e7e8      	b.n	8007fd6 <VSS_CalcElAngle+0x62>
 8008004:	1a52      	subs	r2, r2, r1
 8008006:	b212      	sxth	r2, r2
 8008008:	f64f 76ff 	movw	r6, #65535	; 0xffff
 800800c:	e7d3      	b.n	8007fb6 <VSS_CalcElAngle+0x42>
 800800e:	bf00      	nop

08008010 <VSS_CalcAvrgMecSpeedUnit>:
 8008010:	8d03      	ldrh	r3, [r0, #40]	; 0x28
 8008012:	2b01      	cmp	r3, #1
 8008014:	b470      	push	{r4, r5, r6}
 8008016:	d927      	bls.n	8008068 <VSS_CalcAvrgMecSpeedUnit+0x58>
 8008018:	e9d0 2308 	ldrd	r2, r3, [r0, #32]
 800801c:	4413      	add	r3, r2
 800801e:	6243      	str	r3, [r0, #36]	; 0x24
 8008020:	2b00      	cmp	r3, #0
 8008022:	bfbc      	itt	lt
 8008024:	f503 437f 	addlt.w	r3, r3, #65280	; 0xff00
 8008028:	33ff      	addlt	r3, #255	; 0xff
 800802a:	8b42      	ldrh	r2, [r0, #26]
 800802c:	7846      	ldrb	r6, [r0, #1]
 800802e:	69c5      	ldr	r5, [r0, #28]
 8008030:	141c      	asrs	r4, r3, #16
 8008032:	fb04 f202 	mul.w	r2, r4, r2
 8008036:	eb02 0282 	add.w	r2, r2, r2, lsl #2
 800803a:	0053      	lsls	r3, r2, #1
 800803c:	fb05 f506 	mul.w	r5, r5, r6
 8008040:	fb93 f3f5 	sdiv	r3, r3, r5
 8008044:	b21b      	sxth	r3, r3
 8008046:	81c4      	strh	r4, [r0, #14]
 8008048:	800b      	strh	r3, [r1, #0]
 800804a:	8d02      	ldrh	r2, [r0, #40]	; 0x28
 800804c:	8183      	strh	r3, [r0, #12]
 800804e:	1e53      	subs	r3, r2, #1
 8008050:	8503      	strh	r3, [r0, #40]	; 0x28
 8008052:	f890 302d 	ldrb.w	r3, [r0, #45]	; 0x2d
 8008056:	b923      	cbnz	r3, 8008062 <VSS_CalcAvrgMecSpeedUnit+0x52>
 8008058:	78c2      	ldrb	r2, [r0, #3]
 800805a:	7002      	strb	r2, [r0, #0]
 800805c:	bc70      	pop	{r4, r5, r6}
 800805e:	4618      	mov	r0, r3
 8008060:	4770      	bx	lr
 8008062:	bc70      	pop	{r4, r5, r6}
 8008064:	f7ff bc72 	b.w	800794c <SPD_IsMecSpeedReliable>
 8008068:	d003      	beq.n	8008072 <VSS_CalcAvrgMecSpeedUnit+0x62>
 800806a:	f9b0 300c 	ldrsh.w	r3, [r0, #12]
 800806e:	800b      	strh	r3, [r1, #0]
 8008070:	e7ef      	b.n	8008052 <VSS_CalcAvrgMecSpeedUnit+0x42>
 8008072:	f9b0 202a 	ldrsh.w	r2, [r0, #42]	; 0x2a
 8008076:	800a      	strh	r2, [r1, #0]
 8008078:	8b43      	ldrh	r3, [r0, #26]
 800807a:	8182      	strh	r2, [r0, #12]
 800807c:	f9b1 5000 	ldrsh.w	r5, [r1]
 8008080:	69c2      	ldr	r2, [r0, #28]
 8008082:	7844      	ldrb	r4, [r0, #1]
 8008084:	eb03 0383 	add.w	r3, r3, r3, lsl #2
 8008088:	fb02 f205 	mul.w	r2, r2, r5
 800808c:	005b      	lsls	r3, r3, #1
 800808e:	fb92 f3f3 	sdiv	r3, r2, r3
 8008092:	2200      	movs	r2, #0
 8008094:	fb14 f303 	smulbb	r3, r4, r3
 8008098:	81c3      	strh	r3, [r0, #14]
 800809a:	8502      	strh	r2, [r0, #40]	; 0x28
 800809c:	e7d9      	b.n	8008052 <VSS_CalcAvrgMecSpeedUnit+0x42>
 800809e:	bf00      	nop

080080a0 <VSS_SetMecAngle>:
 80080a0:	8601      	strh	r1, [r0, #48]	; 0x30
 80080a2:	8081      	strh	r1, [r0, #4]
 80080a4:	7843      	ldrb	r3, [r0, #1]
 80080a6:	fb91 f1f3 	sdiv	r1, r1, r3
 80080aa:	80c1      	strh	r1, [r0, #6]
 80080ac:	4770      	bx	lr
 80080ae:	bf00      	nop

080080b0 <VSS_SetMecAcceleration>:
 80080b0:	f890 302c 	ldrb.w	r3, [r0, #44]	; 0x2c
 80080b4:	bb73      	cbnz	r3, 8008114 <VSS_SetMecAcceleration+0x64>
 80080b6:	b470      	push	{r4, r5, r6}
 80080b8:	8b45      	ldrh	r5, [r0, #26]
 80080ba:	69c3      	ldr	r3, [r0, #28]
 80080bc:	7844      	ldrb	r4, [r0, #1]
 80080be:	eb05 0585 	add.w	r5, r5, r5, lsl #2
 80080c2:	006d      	lsls	r5, r5, #1
 80080c4:	fb03 f301 	mul.w	r3, r3, r1
 80080c8:	fb93 f3f5 	sdiv	r3, r3, r5
 80080cc:	b1d2      	cbz	r2, 8008104 <VSS_SetMecAcceleration+0x54>
 80080ce:	8e86      	ldrh	r6, [r0, #52]	; 0x34
 80080d0:	4d11      	ldr	r5, [pc, #68]	; (8008118 <VSS_SetMecAcceleration+0x68>)
 80080d2:	8541      	strh	r1, [r0, #42]	; 0x2a
 80080d4:	fb02 f206 	mul.w	r2, r2, r6
 80080d8:	fba5 1202 	umull	r1, r2, r5, r2
 80080dc:	f3c2 128f 	ubfx	r2, r2, #6, #16
 80080e0:	f9b0 100e 	ldrsh.w	r1, [r0, #14]
 80080e4:	fb91 f5f4 	sdiv	r5, r1, r4
 80080e8:	3201      	adds	r2, #1
 80080ea:	1b5b      	subs	r3, r3, r5
 80080ec:	b292      	uxth	r2, r2
 80080ee:	041b      	lsls	r3, r3, #16
 80080f0:	0409      	lsls	r1, r1, #16
 80080f2:	fb93 f3f2 	sdiv	r3, r3, r2
 80080f6:	fb04 f303 	mul.w	r3, r4, r3
 80080fa:	8502      	strh	r2, [r0, #40]	; 0x28
 80080fc:	e9c0 3108 	strd	r3, r1, [r0, #32]
 8008100:	bc70      	pop	{r4, r5, r6}
 8008102:	4770      	bx	lr
 8008104:	fb13 f304 	smulbb	r3, r3, r4
 8008108:	81c3      	strh	r3, [r0, #14]
 800810a:	8181      	strh	r1, [r0, #12]
 800810c:	8502      	strh	r2, [r0, #40]	; 0x28
 800810e:	8541      	strh	r1, [r0, #42]	; 0x2a
 8008110:	bc70      	pop	{r4, r5, r6}
 8008112:	4770      	bx	lr
 8008114:	4770      	bx	lr
 8008116:	bf00      	nop
 8008118:	10624dd3 	.word	0x10624dd3

0800811c <VSS_SetStartTransition>:
 800811c:	b151      	cbz	r1, 8008134 <VSS_SetStartTransition+0x18>
 800811e:	f9b0 3036 	ldrsh.w	r3, [r0, #54]	; 0x36
 8008122:	2201      	movs	r2, #1
 8008124:	f880 202c 	strb.w	r2, [r0, #44]	; 0x2c
 8008128:	b923      	cbnz	r3, 8008134 <VSS_SetStartTransition+0x18>
 800812a:	f880 202d 	strb.w	r2, [r0, #45]	; 0x2d
 800812e:	7003      	strb	r3, [r0, #0]
 8008130:	4618      	mov	r0, r3
 8008132:	4770      	bx	lr
 8008134:	2001      	movs	r0, #1
 8008136:	4770      	bx	lr

08008138 <VSS_TransitionEnded>:
 8008138:	f890 002d 	ldrb.w	r0, [r0, #45]	; 0x2d
 800813c:	4770      	bx	lr
 800813e:	bf00      	nop

08008140 <RUC_Init>:
 8008140:	b430      	push	{r4, r5}
 8008142:	6681      	str	r1, [r0, #104]	; 0x68
 8008144:	2100      	movs	r1, #0
 8008146:	9c02      	ldr	r4, [sp, #8]
 8008148:	f880 1054 	strb.w	r1, [r0, #84]	; 0x54
 800814c:	f880 1055 	strb.w	r1, [r0, #85]	; 0x55
 8008150:	f110 010c 	adds.w	r1, r0, #12
 8008154:	e9c0 231b 	strd	r2, r3, [r0, #108]	; 0x6c
 8008158:	6744      	str	r4, [r0, #116]	; 0x74
 800815a:	d023      	beq.n	80081a4 <RUC_Init+0x64>
 800815c:	6943      	ldr	r3, [r0, #20]
 800815e:	b323      	cbz	r3, 80081aa <RUC_Init+0x6a>
 8008160:	689b      	ldr	r3, [r3, #8]
 8008162:	b323      	cbz	r3, 80081ae <RUC_Init+0x6e>
 8008164:	689b      	ldr	r3, [r3, #8]
 8008166:	b323      	cbz	r3, 80081b2 <RUC_Init+0x72>
 8008168:	689b      	ldr	r3, [r3, #8]
 800816a:	b1c3      	cbz	r3, 800819e <RUC_Init+0x5e>
 800816c:	689b      	ldr	r3, [r3, #8]
 800816e:	2105      	movs	r1, #5
 8008170:	b1b3      	cbz	r3, 80081a0 <RUC_Init+0x60>
 8008172:	2204      	movs	r2, #4
 8008174:	2105      	movs	r1, #5
 8008176:	8805      	ldrh	r5, [r0, #0]
 8008178:	4c0f      	ldr	r4, [pc, #60]	; (80081b8 <RUC_Init+0x78>)
 800817a:	2364      	movs	r3, #100	; 0x64
 800817c:	fb03 f305 	mul.w	r3, r3, r5
 8008180:	eb02 0242 	add.w	r2, r2, r2, lsl #1
 8008184:	fba4 4303 	umull	r4, r3, r4, r3
 8008188:	eb00 0282 	add.w	r2, r0, r2, lsl #2
 800818c:	2400      	movs	r4, #0
 800818e:	099b      	lsrs	r3, r3, #6
 8008190:	6154      	str	r4, [r2, #20]
 8008192:	f880 1048 	strb.w	r1, [r0, #72]	; 0x48
 8008196:	f880 3056 	strb.w	r3, [r0, #86]	; 0x56
 800819a:	bc30      	pop	{r4, r5}
 800819c:	4770      	bx	lr
 800819e:	2104      	movs	r1, #4
 80081a0:	1e4a      	subs	r2, r1, #1
 80081a2:	e7e8      	b.n	8008176 <RUC_Init+0x36>
 80081a4:	f04f 32ff 	mov.w	r2, #4294967295
 80081a8:	e7e5      	b.n	8008176 <RUC_Init+0x36>
 80081aa:	2101      	movs	r1, #1
 80081ac:	e7f8      	b.n	80081a0 <RUC_Init+0x60>
 80081ae:	2102      	movs	r1, #2
 80081b0:	e7f6      	b.n	80081a0 <RUC_Init+0x60>
 80081b2:	2103      	movs	r1, #3
 80081b4:	e7f4      	b.n	80081a0 <RUC_Init+0x60>
 80081b6:	bf00      	nop
 80081b8:	10624dd3 	.word	0x10624dd3

080081bc <RUC_Clear>:
 80081bc:	e92d 41f0 	stmdb	sp!, {r4, r5, r6, r7, r8, lr}
 80081c0:	4604      	mov	r4, r0
 80081c2:	6ec7      	ldr	r7, [r0, #108]	; 0x6c
 80081c4:	f8d4 8068 	ldr.w	r8, [r4, #104]	; 0x68
 80081c8:	80e1      	strh	r1, [r4, #6]
 80081ca:	2500      	movs	r5, #0
 80081cc:	4638      	mov	r0, r7
 80081ce:	f884 5055 	strb.w	r5, [r4, #85]	; 0x55
 80081d2:	f884 5058 	strb.w	r5, [r4, #88]	; 0x58
 80081d6:	f884 5053 	strb.w	r5, [r4, #83]	; 0x53
 80081da:	f884 5054 	strb.w	r5, [r4, #84]	; 0x54
 80081de:	460e      	mov	r6, r1
 80081e0:	f7ff feb0 	bl	8007f44 <VSS_Clear>
 80081e4:	4629      	mov	r1, r5
 80081e6:	4640      	mov	r0, r8
 80081e8:	f7ff fc1a 	bl	8007a20 <STC_SetControlMode>
 80081ec:	8861      	ldrh	r1, [r4, #2]
 80081ee:	b2b6      	uxth	r6, r6
 80081f0:	fb11 f106 	smulbb	r1, r1, r6
 80081f4:	b209      	sxth	r1, r1
 80081f6:	4638      	mov	r0, r7
 80081f8:	f7ff ff52 	bl	80080a0 <VSS_SetMecAngle>
 80081fc:	462a      	mov	r2, r5
 80081fe:	4629      	mov	r1, r5
 8008200:	4640      	mov	r0, r8
 8008202:	f7ff fc11 	bl	8007a28 <STC_ExecRamp>
 8008206:	8a21      	ldrh	r1, [r4, #16]
 8008208:	89a2      	ldrh	r2, [r4, #12]
 800820a:	fb11 f106 	smulbb	r1, r1, r6
 800820e:	b209      	sxth	r1, r1
 8008210:	4640      	mov	r0, r8
 8008212:	f7ff fc09 	bl	8007a28 <STC_ExecRamp>
 8008216:	89e1      	ldrh	r1, [r4, #14]
 8008218:	89a2      	ldrh	r2, [r4, #12]
 800821a:	fb11 f106 	smulbb	r1, r1, r6
 800821e:	4638      	mov	r0, r7
 8008220:	b209      	sxth	r1, r1
 8008222:	f7ff ff45 	bl	80080b0 <VSS_SetMecAcceleration>
 8008226:	89a0      	ldrh	r0, [r4, #12]
 8008228:	8823      	ldrh	r3, [r4, #0]
 800822a:	4907      	ldr	r1, [pc, #28]	; (8008248 <RUC_Clear+0x8c>)
 800822c:	6962      	ldr	r2, [r4, #20]
 800822e:	f884 5057 	strb.w	r5, [r4, #87]	; 0x57
 8008232:	fb03 f300 	mul.w	r3, r3, r0
 8008236:	fba1 1303 	umull	r1, r3, r1, r3
 800823a:	099b      	lsrs	r3, r3, #6
 800823c:	3301      	adds	r3, #1
 800823e:	80a3      	strh	r3, [r4, #4]
 8008240:	60a2      	str	r2, [r4, #8]
 8008242:	e8bd 81f0 	ldmia.w	sp!, {r4, r5, r6, r7, r8, pc}
 8008246:	bf00      	nop
 8008248:	10624dd3 	.word	0x10624dd3

0800824c <RUC_Exec>:
 800824c:	b538      	push	{r3, r4, r5, lr}
 800824e:	8883      	ldrh	r3, [r0, #4]
 8008250:	bb53      	cbnz	r3, 80082a8 <RUC_Exec+0x5c>
 8008252:	6883      	ldr	r3, [r0, #8]
 8008254:	2b00      	cmp	r3, #0
 8008256:	d02e      	beq.n	80082b6 <RUC_Exec+0x6a>
 8008258:	88c5      	ldrh	r5, [r0, #6]
 800825a:	8899      	ldrh	r1, [r3, #4]
 800825c:	881a      	ldrh	r2, [r3, #0]
 800825e:	4604      	mov	r4, r0
 8008260:	fb11 f105 	smulbb	r1, r1, r5
 8008264:	b209      	sxth	r1, r1
 8008266:	6e80      	ldr	r0, [r0, #104]	; 0x68
 8008268:	f7ff fbde 	bl	8007a28 <STC_ExecRamp>
 800826c:	68a3      	ldr	r3, [r4, #8]
 800826e:	88e5      	ldrh	r5, [r4, #6]
 8008270:	8859      	ldrh	r1, [r3, #2]
 8008272:	881a      	ldrh	r2, [r3, #0]
 8008274:	6ee0      	ldr	r0, [r4, #108]	; 0x6c
 8008276:	fb11 f105 	smulbb	r1, r1, r5
 800827a:	b209      	sxth	r1, r1
 800827c:	f7ff ff18 	bl	80080b0 <VSS_SetMecAcceleration>
 8008280:	68a2      	ldr	r2, [r4, #8]
 8008282:	8823      	ldrh	r3, [r4, #0]
 8008284:	8810      	ldrh	r0, [r2, #0]
 8008286:	490d      	ldr	r1, [pc, #52]	; (80082bc <RUC_Exec+0x70>)
 8008288:	6892      	ldr	r2, [r2, #8]
 800828a:	60a2      	str	r2, [r4, #8]
 800828c:	fb03 f300 	mul.w	r3, r3, r0
 8008290:	fba1 2303 	umull	r2, r3, r1, r3
 8008294:	f894 2058 	ldrb.w	r2, [r4, #88]	; 0x58
 8008298:	099b      	lsrs	r3, r3, #6
 800829a:	3301      	adds	r3, #1
 800829c:	3201      	adds	r2, #1
 800829e:	80a3      	strh	r3, [r4, #4]
 80082a0:	f884 2058 	strb.w	r2, [r4, #88]	; 0x58
 80082a4:	2001      	movs	r0, #1
 80082a6:	bd38      	pop	{r3, r4, r5, pc}
 80082a8:	3b01      	subs	r3, #1
 80082aa:	b29b      	uxth	r3, r3
 80082ac:	8083      	strh	r3, [r0, #4]
 80082ae:	2b00      	cmp	r3, #0
 80082b0:	d0cf      	beq.n	8008252 <RUC_Exec+0x6>
 80082b2:	2001      	movs	r0, #1
 80082b4:	e7f7      	b.n	80082a6 <RUC_Exec+0x5a>
 80082b6:	4618      	mov	r0, r3
 80082b8:	bd38      	pop	{r3, r4, r5, pc}
 80082ba:	bf00      	nop
 80082bc:	10624dd3 	.word	0x10624dd3

080082c0 <RUC_FirstAccelerationStageReached>:
 80082c0:	f890 2058 	ldrb.w	r2, [r0, #88]	; 0x58
 80082c4:	f890 0049 	ldrb.w	r0, [r0, #73]	; 0x49
 80082c8:	4282      	cmp	r2, r0
 80082ca:	bf34      	ite	cc
 80082cc:	2000      	movcc	r0, #0
 80082ce:	2001      	movcs	r0, #1
 80082d0:	4770      	bx	lr
 80082d2:	bf00      	nop

080082d4 <RUC_SetPhaseDurationms>:
 80082d4:	eb01 0141 	add.w	r1, r1, r1, lsl #1
 80082d8:	eb00 0181 	add.w	r1, r0, r1, lsl #2
 80082dc:	818a      	strh	r2, [r1, #12]
 80082de:	4770      	bx	lr

080082e0 <RUC_SetPhaseFinalMecSpeedUnit>:
 80082e0:	eb01 0141 	add.w	r1, r1, r1, lsl #1
 80082e4:	eb00 0181 	add.w	r1, r0, r1, lsl #2
 80082e8:	81ca      	strh	r2, [r1, #14]
 80082ea:	4770      	bx	lr

080082ec <RUC_SetPhaseFinalTorque>:
 80082ec:	eb01 0141 	add.w	r1, r1, r1, lsl #1
 80082f0:	eb00 0181 	add.w	r1, r0, r1, lsl #2
 80082f4:	820a      	strh	r2, [r1, #16]
 80082f6:	4770      	bx	lr

080082f8 <RUC_GetPhaseDurationms>:
 80082f8:	eb01 0141 	add.w	r1, r1, r1, lsl #1
 80082fc:	eb00 0181 	add.w	r1, r0, r1, lsl #2
 8008300:	8988      	ldrh	r0, [r1, #12]
 8008302:	4770      	bx	lr

08008304 <RUC_GetPhaseFinalMecSpeedUnit>:
 8008304:	eb01 0141 	add.w	r1, r1, r1, lsl #1
 8008308:	eb00 0181 	add.w	r1, r0, r1, lsl #2
 800830c:	f9b1 000e 	ldrsh.w	r0, [r1, #14]
 8008310:	4770      	bx	lr
 8008312:	bf00      	nop

08008314 <RUC_GetPhaseFinalTorque>:
 8008314:	eb01 0141 	add.w	r1, r1, r1, lsl #1
 8008318:	eb00 0181 	add.w	r1, r0, r1, lsl #2
 800831c:	f9b1 0010 	ldrsh.w	r0, [r1, #16]
 8008320:	4770      	bx	lr
 8008322:	bf00      	nop

08008324 <RUC_GetNumberOfPhases>:
 8008324:	f890 0048 	ldrb.w	r0, [r0, #72]	; 0x48
 8008328:	4770      	bx	lr
 800832a:	bf00      	nop

0800832c <STO_PLL_CalcElAngle>:
 800832c:	e92d 4ff0 	stmdb	sp!, {r4, r5, r6, r7, r8, r9, sl, fp, lr}
 8008330:	f9b0 302e 	ldrsh.w	r3, [r0, #46]	; 0x2e
 8008334:	f8d0 e068 	ldr.w	lr, [r0, #104]	; 0x68
 8008338:	4604      	mov	r4, r0
 800833a:	03d8      	lsls	r0, r3, #15
 800833c:	1ac2      	subs	r2, r0, r3
 800833e:	4596      	cmp	lr, r2
 8008340:	b089      	sub	sp, #36	; 0x24
 8008342:	f340 80bb 	ble.w	80084bc <STO_PLL_CalcElAngle+0x190>
 8008346:	66a2      	str	r2, [r4, #104]	; 0x68
 8008348:	4696      	mov	lr, r2
 800834a:	f8b4 511e 	ldrh.w	r5, [r4, #286]	; 0x11e
 800834e:	f8d4 c06c 	ldr.w	ip, [r4, #108]	; 0x6c
 8008352:	fa4e f605 	asr.w	r6, lr, r5
 8008356:	9605      	str	r6, [sp, #20]
 8008358:	4562      	cmp	r2, ip
 800835a:	b236      	sxth	r6, r6
 800835c:	9600      	str	r6, [sp, #0]
 800835e:	f280 80bf 	bge.w	80084e0 <STO_PLL_CalcElAngle+0x1b4>
 8008362:	66e2      	str	r2, [r4, #108]	; 0x6c
 8008364:	4694      	mov	ip, r2
 8008366:	f9b4 302c 	ldrsh.w	r3, [r4, #44]	; 0x2c
 800836a:	6e20      	ldr	r0, [r4, #96]	; 0x60
 800836c:	03de      	lsls	r6, r3, #15
 800836e:	fa4c f205 	asr.w	r2, ip, r5
 8008372:	1af5      	subs	r5, r6, r3
 8008374:	9202      	str	r2, [sp, #8]
 8008376:	42a8      	cmp	r0, r5
 8008378:	b212      	sxth	r2, r2
 800837a:	9201      	str	r2, [sp, #4]
 800837c:	f340 80aa 	ble.w	80084d4 <STO_PLL_CalcElAngle+0x1a8>
 8008380:	6625      	str	r5, [r4, #96]	; 0x60
 8008382:	4628      	mov	r0, r5
 8008384:	6e62      	ldr	r2, [r4, #100]	; 0x64
 8008386:	4295      	cmp	r5, r2
 8008388:	f280 809e 	bge.w	80084c8 <STO_PLL_CalcElAngle+0x19c>
 800838c:	6665      	str	r5, [r4, #100]	; 0x64
 800838e:	462a      	mov	r2, r5
 8008390:	f8b4 311c 	ldrh.w	r3, [r4, #284]	; 0x11c
 8008394:	f9b4 a020 	ldrsh.w	sl, [r4, #32]
 8008398:	88cd      	ldrh	r5, [r1, #6]
 800839a:	890e      	ldrh	r6, [r1, #8]
 800839c:	f9b1 8000 	ldrsh.w	r8, [r1]
 80083a0:	888f      	ldrh	r7, [r1, #4]
 80083a2:	f9b1 1002 	ldrsh.w	r1, [r1, #2]
 80083a6:	9104      	str	r1, [sp, #16]
 80083a8:	fa40 f903 	asr.w	r9, r0, r3
 80083ac:	fa42 f303 	asr.w	r3, r2, r3
 80083b0:	fb13 f10a 	smulbb	r1, r3, sl
 80083b4:	f9b4 b022 	ldrsh.w	fp, [r4, #34]	; 0x22
 80083b8:	1a51      	subs	r1, r2, r1
 80083ba:	eba9 0707 	sub.w	r7, r9, r7
 80083be:	fb19 f90a 	smulbb	r9, r9, sl
 80083c2:	fb06 f208 	mul.w	r2, r6, r8
 80083c6:	f9b4 a028 	ldrsh.w	sl, [r4, #40]	; 0x28
 80083ca:	9103      	str	r1, [sp, #12]
 80083cc:	b23f      	sxth	r7, r7
 80083ce:	eba0 0009 	sub.w	r0, r0, r9
 80083d2:	9904      	ldr	r1, [sp, #16]
 80083d4:	f9b4 802a 	ldrsh.w	r8, [r4, #42]	; 0x2a
 80083d8:	f9b4 9026 	ldrsh.w	r9, [r4, #38]	; 0x26
 80083dc:	fb0b 0007 	mla	r0, fp, r7, r0
 80083e0:	1412      	asrs	r2, r2, #16
 80083e2:	fb0a 0202 	mla	r2, sl, r2, r0
 80083e6:	1b5b      	subs	r3, r3, r5
 80083e8:	fb06 f601 	mul.w	r6, r6, r1
 80083ec:	8e65      	ldrh	r5, [r4, #50]	; 0x32
 80083ee:	9801      	ldr	r0, [sp, #4]
 80083f0:	9903      	ldr	r1, [sp, #12]
 80083f2:	b21b      	sxth	r3, r3
 80083f4:	fb0b 1103 	mla	r1, fp, r3, r1
 80083f8:	fa40 fb05 	asr.w	fp, r0, r5
 80083fc:	9800      	ldr	r0, [sp, #0]
 80083fe:	1436      	asrs	r6, r6, #16
 8008400:	fb0a 1106 	mla	r1, sl, r6, r1
 8008404:	fa40 f505 	asr.w	r5, r0, r5
 8008408:	f9b4 600e 	ldrsh.w	r6, [r4, #14]
 800840c:	f9b4 0024 	ldrsh.w	r0, [r4, #36]	; 0x24
 8008410:	f9b4 a124 	ldrsh.w	sl, [r4, #292]	; 0x124
 8008414:	fb0b fb08 	mul.w	fp, fp, r8
 8008418:	fb05 f508 	mul.w	r5, r5, r8
 800841c:	fb09 c303 	mla	r3, r9, r3, ip
 8008420:	fb07 e709 	mla	r7, r7, r9, lr
 8008424:	fb0b 7706 	mla	r7, fp, r6, r7
 8008428:	fb05 3616 	mls	r6, r5, r6, r3
 800842c:	9b00      	ldr	r3, [sp, #0]
 800842e:	fb00 2513 	mls	r5, r0, r3, r2
 8008432:	9a01      	ldr	r2, [sp, #4]
 8008434:	f1ba 0f00 	cmp.w	sl, #0
 8008438:	fb00 1b12 	mls	fp, r0, r2, r1
 800843c:	4698      	mov	r8, r3
 800843e:	db55      	blt.n	80084ec <STO_PLL_CalcElAngle+0x1c0>
 8008440:	f04f 0901 	mov.w	r9, #1
 8008444:	f8a4 3070 	strh.w	r3, [r4, #112]	; 0x70
 8008448:	9b01      	ldr	r3, [sp, #4]
 800844a:	f8a4 3072 	strh.w	r3, [r4, #114]	; 0x72
 800844e:	f9b4 0004 	ldrsh.w	r0, [r4, #4]
 8008452:	f7f8 fd7d 	bl	8000f50 <MCM_Trig_Functions>
 8008456:	9b02      	ldr	r3, [sp, #8]
 8008458:	fb13 f109 	smulbb	r1, r3, r9
 800845c:	4249      	negs	r1, r1
 800845e:	1403      	asrs	r3, r0, #16
 8008460:	fb10 f001 	smulbb	r0, r0, r1
 8008464:	fb08 f103 	mul.w	r1, r8, r3
 8008468:	f340 30cf 	sbfx	r0, r0, #15, #16
 800846c:	f341 31cf 	sbfx	r1, r1, #15, #16
 8008470:	1a41      	subs	r1, r0, r1
 8008472:	f104 0034 	add.w	r0, r4, #52	; 0x34
 8008476:	f7fe f8b9 	bl	80065ec <PI_Controller>
 800847a:	f894 30f4 	ldrb.w	r3, [r4, #244]	; 0xf4
 800847e:	f894 210e 	ldrb.w	r2, [r4, #270]	; 0x10e
 8008482:	8220      	strh	r0, [r4, #16]
 8008484:	3301      	adds	r3, #1
 8008486:	b2db      	uxtb	r3, r3
 8008488:	429a      	cmp	r2, r3
 800848a:	bf0a      	itet	eq
 800848c:	2200      	moveq	r2, #0
 800848e:	461a      	movne	r2, r3
 8008490:	4613      	moveq	r3, r2
 8008492:	eb04 0242 	add.w	r2, r4, r2, lsl #1
 8008496:	f9b2 1074 	ldrsh.w	r1, [r2, #116]	; 0x74
 800849a:	f8a4 110c 	strh.w	r1, [r4, #268]	; 0x10c
 800849e:	f8a2 0074 	strh.w	r0, [r2, #116]	; 0x74
 80084a2:	88a2      	ldrh	r2, [r4, #4]
 80084a4:	f884 30f4 	strb.w	r3, [r4, #244]	; 0xf4
 80084a8:	4410      	add	r0, r2
 80084aa:	b200      	sxth	r0, r0
 80084ac:	6625      	str	r5, [r4, #96]	; 0x60
 80084ae:	e9c4 b719 	strd	fp, r7, [r4, #100]	; 0x64
 80084b2:	66e6      	str	r6, [r4, #108]	; 0x6c
 80084b4:	80a0      	strh	r0, [r4, #4]
 80084b6:	b009      	add	sp, #36	; 0x24
 80084b8:	e8bd 8ff0 	ldmia.w	sp!, {r4, r5, r6, r7, r8, r9, sl, fp, pc}
 80084bc:	1a1d      	subs	r5, r3, r0
 80084be:	45ae      	cmp	lr, r5
 80084c0:	bfdc      	itt	le
 80084c2:	66a5      	strle	r5, [r4, #104]	; 0x68
 80084c4:	46ae      	movle	lr, r5
 80084c6:	e740      	b.n	800834a <STO_PLL_CalcElAngle+0x1e>
 80084c8:	1b9b      	subs	r3, r3, r6
 80084ca:	429a      	cmp	r2, r3
 80084cc:	bfdc      	itt	le
 80084ce:	6663      	strle	r3, [r4, #100]	; 0x64
 80084d0:	461a      	movle	r2, r3
 80084d2:	e75d      	b.n	8008390 <STO_PLL_CalcElAngle+0x64>
 80084d4:	1b9a      	subs	r2, r3, r6
 80084d6:	4290      	cmp	r0, r2
 80084d8:	bfdc      	itt	le
 80084da:	6622      	strle	r2, [r4, #96]	; 0x60
 80084dc:	4610      	movle	r0, r2
 80084de:	e751      	b.n	8008384 <STO_PLL_CalcElAngle+0x58>
 80084e0:	1a1b      	subs	r3, r3, r0
 80084e2:	459c      	cmp	ip, r3
 80084e4:	bfdc      	itt	le
 80084e6:	66e3      	strle	r3, [r4, #108]	; 0x6c
 80084e8:	469c      	movle	ip, r3
 80084ea:	e73c      	b.n	8008366 <STO_PLL_CalcElAngle+0x3a>
 80084ec:	9b05      	ldr	r3, [sp, #20]
 80084ee:	f1c3 0800 	rsb	r8, r3, #0
 80084f2:	fa0f f888 	sxth.w	r8, r8
 80084f6:	f64f 79ff 	movw	r9, #65535	; 0xffff
 80084fa:	9b00      	ldr	r3, [sp, #0]
 80084fc:	e7a2      	b.n	8008444 <STO_PLL_CalcElAngle+0x118>
 80084fe:	bf00      	nop

08008500 <STO_PLL_CalcAvrgMecSpeedUnit>:
 8008500:	b5f0      	push	{r4, r5, r6, r7, lr}
 8008502:	f890 c10e 	ldrb.w	ip, [r0, #270]	; 0x10e
 8008506:	f1bc 0f00 	cmp.w	ip, #0
 800850a:	f000 8095 	beq.w	8008638 <STO_PLL_CalcAvrgMecSpeedUnit+0x138>
 800850e:	f10c 37ff 	add.w	r7, ip, #4294967295
 8008512:	b2fb      	uxtb	r3, r7
 8008514:	f100 0672 	add.w	r6, r0, #114	; 0x72
 8008518:	f100 0774 	add.w	r7, r0, #116	; 0x74
 800851c:	eb07 0743 	add.w	r7, r7, r3, lsl #1
 8008520:	4632      	mov	r2, r6
 8008522:	2300      	movs	r3, #0
 8008524:	f932 5f02 	ldrsh.w	r5, [r2, #2]!
 8008528:	4297      	cmp	r7, r2
 800852a:	442b      	add	r3, r5
 800852c:	d1fa      	bne.n	8008524 <STO_PLL_CalcAvrgMecSpeedUnit+0x24>
 800852e:	fb93 f5fc 	sdiv	r5, r3, ip
 8008532:	2400      	movs	r4, #0
 8008534:	f936 3f02 	ldrsh.w	r3, [r6, #2]!
 8008538:	1b5b      	subs	r3, r3, r5
 800853a:	42b2      	cmp	r2, r6
 800853c:	fb03 4403 	mla	r4, r3, r3, r4
 8008540:	d1f8      	bne.n	8008534 <STO_PLL_CalcAvrgMecSpeedUnit+0x34>
 8008542:	fb94 f4fc 	sdiv	r4, r4, ip
 8008546:	fb05 fc05 	mul.w	ip, r5, r5
 800854a:	f8b0 2110 	ldrh.w	r2, [r0, #272]	; 0x110
 800854e:	8b43      	ldrh	r3, [r0, #26]
 8008550:	7887      	ldrb	r7, [r0, #2]
 8008552:	f890 6104 	ldrb.w	r6, [r0, #260]	; 0x104
 8008556:	fb0c fc02 	mul.w	ip, ip, r2
 800855a:	ea4f 1cec 	mov.w	ip, ip, asr #7
 800855e:	fb05 f303 	mul.w	r3, r5, r3
 8008562:	45a4      	cmp	ip, r4
 8008564:	69c2      	ldr	r2, [r0, #28]
 8008566:	bfd4      	ite	le
 8008568:	2500      	movle	r5, #0
 800856a:	2501      	movgt	r5, #1
 800856c:	fb03 f307 	mul.w	r3, r3, r7
 8008570:	fb93 f3f2 	sdiv	r3, r3, r2
 8008574:	7842      	ldrb	r2, [r0, #1]
 8008576:	fb93 f3f2 	sdiv	r3, r3, r2
 800857a:	b21a      	sxth	r2, r3
 800857c:	800a      	strh	r2, [r1, #0]
 800857e:	f880 50f5 	strb.w	r5, [r0, #245]	; 0xf5
 8008582:	8182      	strh	r2, [r0, #12]
 8008584:	f890 50f8 	ldrb.w	r5, [r0, #248]	; 0xf8
 8008588:	b99e      	cbnz	r6, 80085b2 <STO_PLL_CalcAvrgMecSpeedUnit+0xb2>
 800858a:	b355      	cbz	r5, 80085e2 <STO_PLL_CalcAvrgMecSpeedUnit+0xe2>
 800858c:	45a4      	cmp	ip, r4
 800858e:	dc25      	bgt.n	80085dc <STO_PLL_CalcAvrgMecSpeedUnit+0xdc>
 8008590:	f890 30f7 	ldrb.w	r3, [r0, #247]	; 0xf7
 8008594:	f890 2117 	ldrb.w	r2, [r0, #279]	; 0x117
 8008598:	3301      	adds	r3, #1
 800859a:	b2db      	uxtb	r3, r3
 800859c:	429a      	cmp	r2, r3
 800859e:	f880 30f7 	strb.w	r3, [r0, #247]	; 0xf7
 80085a2:	d81e      	bhi.n	80085e2 <STO_PLL_CalcAvrgMecSpeedUnit+0xe2>
 80085a4:	2300      	movs	r3, #0
 80085a6:	78c2      	ldrb	r2, [r0, #3]
 80085a8:	f880 30f7 	strb.w	r3, [r0, #247]	; 0xf7
 80085ac:	7002      	strb	r2, [r0, #0]
 80085ae:	4618      	mov	r0, r3
 80085b0:	bdf0      	pop	{r4, r5, r6, r7, pc}
 80085b2:	2b00      	cmp	r3, #0
 80085b4:	f8b0 211a 	ldrh.w	r2, [r0, #282]	; 0x11a
 80085b8:	bfb8      	it	lt
 80085ba:	425b      	neglt	r3, r3
 80085bc:	429a      	cmp	r2, r3
 80085be:	dc14      	bgt.n	80085ea <STO_PLL_CalcAvrgMecSpeedUnit+0xea>
 80085c0:	2200      	movs	r2, #0
 80085c2:	4613      	mov	r3, r2
 80085c4:	4616      	mov	r6, r2
 80085c6:	f880 20f9 	strb.w	r2, [r0, #249]	; 0xf9
 80085ca:	f8c0 60fc 	str.w	r6, [r0, #252]	; 0xfc
 80085ce:	f8c0 3100 	str.w	r3, [r0, #256]	; 0x100
 80085d2:	b135      	cbz	r5, 80085e2 <STO_PLL_CalcAvrgMecSpeedUnit+0xe2>
 80085d4:	45a4      	cmp	ip, r4
 80085d6:	dddb      	ble.n	8008590 <STO_PLL_CalcAvrgMecSpeedUnit+0x90>
 80085d8:	2a00      	cmp	r2, #0
 80085da:	d0d9      	beq.n	8008590 <STO_PLL_CalcAvrgMecSpeedUnit+0x90>
 80085dc:	2300      	movs	r3, #0
 80085de:	f880 30f7 	strb.w	r3, [r0, #247]	; 0xf7
 80085e2:	e8bd 40f0 	ldmia.w	sp!, {r4, r5, r6, r7, lr}
 80085e6:	f7ff b9b1 	b.w	800794c <SPD_IsMecSpeedReliable>
 80085ea:	f890 2119 	ldrb.w	r2, [r0, #281]	; 0x119
 80085ee:	f9b0 e014 	ldrsh.w	lr, [r0, #20]
 80085f2:	f9b0 7070 	ldrsh.w	r7, [r0, #112]	; 0x70
 80085f6:	f9b0 6072 	ldrsh.w	r6, [r0, #114]	; 0x72
 80085fa:	ebc3 33c3 	rsb	r3, r3, r3, lsl #15
 80085fe:	fb93 f3fe 	sdiv	r3, r3, lr
 8008602:	fb03 f202 	mul.w	r2, r3, r2
 8008606:	2a00      	cmp	r2, #0
 8008608:	bfb8      	it	lt
 800860a:	323f      	addlt	r2, #63	; 0x3f
 800860c:	1192      	asrs	r2, r2, #6
 800860e:	fb02 f303 	mul.w	r3, r2, r3
 8008612:	fb07 f707 	mul.w	r7, r7, r7
 8008616:	2b00      	cmp	r3, #0
 8008618:	fb06 7606 	mla	r6, r6, r6, r7
 800861c:	461a      	mov	r2, r3
 800861e:	f890 7118 	ldrb.w	r7, [r0, #280]	; 0x118
 8008622:	bfb8      	it	lt
 8008624:	f103 023f 	addlt.w	r2, r3, #63	; 0x3f
 8008628:	1192      	asrs	r2, r2, #6
 800862a:	fb07 3212 	mls	r2, r7, r2, r3
 800862e:	4296      	cmp	r6, r2
 8008630:	bfd4      	ite	le
 8008632:	2200      	movle	r2, #0
 8008634:	2201      	movgt	r2, #1
 8008636:	e7c6      	b.n	80085c6 <STO_PLL_CalcAvrgMecSpeedUnit+0xc6>
 8008638:	4664      	mov	r4, ip
 800863a:	4665      	mov	r5, ip
 800863c:	e785      	b.n	800854a <STO_PLL_CalcAvrgMecSpeedUnit+0x4a>
 800863e:	bf00      	nop

08008640 <STO_PLL_CalcAvrgElSpeedDpp>:
 8008640:	f890 10f4 	ldrb.w	r1, [r0, #244]	; 0xf4
 8008644:	f890 310f 	ldrb.w	r3, [r0, #271]	; 0x10f
 8008648:	b470      	push	{r4, r5, r6}
 800864a:	f890 410e 	ldrb.w	r4, [r0, #270]	; 0x10e
 800864e:	f8d0 5108 	ldr.w	r5, [r0, #264]	; 0x108
 8008652:	eb00 0241 	add.w	r2, r0, r1, lsl #1
 8008656:	b2a6      	uxth	r6, r4
 8008658:	f9b2 2074 	ldrsh.w	r2, [r2, #116]	; 0x74
 800865c:	1af3      	subs	r3, r6, r3
 800865e:	b29b      	uxth	r3, r3
 8008660:	442a      	add	r2, r5
 8008662:	b19b      	cbz	r3, 800868c <STO_PLL_CalcAvrgElSpeedDpp+0x4c>
 8008664:	440b      	add	r3, r1
 8008666:	b29b      	uxth	r3, r3
 8008668:	b219      	sxth	r1, r3
 800866a:	428c      	cmp	r4, r1
 800866c:	bfdc      	itt	le
 800866e:	1b9b      	suble	r3, r3, r6
 8008670:	b219      	sxthle	r1, r3
 8008672:	eb00 0341 	add.w	r3, r0, r1, lsl #1
 8008676:	f9b3 3074 	ldrsh.w	r3, [r3, #116]	; 0x74
 800867a:	1ad3      	subs	r3, r2, r3
 800867c:	f8b0 2120 	ldrh.w	r2, [r0, #288]	; 0x120
 8008680:	f8c0 3108 	str.w	r3, [r0, #264]	; 0x108
 8008684:	4113      	asrs	r3, r2
 8008686:	81c3      	strh	r3, [r0, #14]
 8008688:	bc70      	pop	{r4, r5, r6}
 800868a:	4770      	bx	lr
 800868c:	f9b0 310c 	ldrsh.w	r3, [r0, #268]	; 0x10c
 8008690:	1ad3      	subs	r3, r2, r3
 8008692:	e7f3      	b.n	800867c <STO_PLL_CalcAvrgElSpeedDpp+0x3c>

08008694 <STO_PLL_Clear>:
 8008694:	b510      	push	{r4, lr}
 8008696:	f890 210e 	ldrb.w	r2, [r0, #270]	; 0x10e
 800869a:	2100      	movs	r1, #0
 800869c:	4604      	mov	r4, r0
 800869e:	e9c0 1118 	strd	r1, r1, [r0, #96]	; 0x60
 80086a2:	e9c0 111a 	strd	r1, r1, [r0, #104]	; 0x68
 80086a6:	8081      	strh	r1, [r0, #4]
 80086a8:	81c1      	strh	r1, [r0, #14]
 80086aa:	f8a0 10f6 	strh.w	r1, [r0, #246]	; 0xf6
 80086ae:	f880 10f8 	strb.w	r1, [r0, #248]	; 0xf8
 80086b2:	f880 10f9 	strb.w	r1, [r0, #249]	; 0xf9
 80086b6:	f8c0 10fc 	str.w	r1, [r0, #252]	; 0xfc
 80086ba:	f8c0 1100 	str.w	r1, [r0, #256]	; 0x100
 80086be:	f8c0 1108 	str.w	r1, [r0, #264]	; 0x108
 80086c2:	f880 1122 	strb.w	r1, [r0, #290]	; 0x122
 80086c6:	f880 1123 	strb.w	r1, [r0, #291]	; 0x123
 80086ca:	b132      	cbz	r2, 80086da <STO_PLL_Clear+0x46>
 80086cc:	3a01      	subs	r2, #1
 80086ce:	b2d2      	uxtb	r2, r2
 80086d0:	3201      	adds	r2, #1
 80086d2:	0052      	lsls	r2, r2, #1
 80086d4:	3074      	adds	r0, #116	; 0x74
 80086d6:	f000 f929 	bl	800892c <memset>
 80086da:	2100      	movs	r1, #0
 80086dc:	f884 10f4 	strb.w	r1, [r4, #244]	; 0xf4
 80086e0:	f8a4 110c 	strh.w	r1, [r4, #268]	; 0x10c
 80086e4:	f104 0034 	add.w	r0, r4, #52	; 0x34
 80086e8:	e8bd 4010 	ldmia.w	sp!, {r4, lr}
 80086ec:	f7fd bf72 	b.w	80065d4 <PID_SetIntegralTerm>

080086f0 <STO_PLL_Init>:
 80086f0:	b538      	push	{r3, r4, r5, lr}
 80086f2:	4604      	mov	r4, r0
 80086f4:	f9b0 502e 	ldrsh.w	r5, [r0, #46]	; 0x2e
 80086f8:	4b18      	ldr	r3, [pc, #96]	; (800875c <STO_PLL_Init+0x6c>)
 80086fa:	f890 0116 	ldrb.w	r0, [r0, #278]	; 0x116
 80086fe:	fb93 f3f5 	sdiv	r3, r3, r5
 8008702:	2200      	movs	r2, #0
 8008704:	2101      	movs	r1, #1
 8008706:	b21b      	sxth	r3, r3
 8008708:	f884 00f6 	strb.w	r0, [r4, #246]	; 0xf6
 800870c:	8662      	strh	r2, [r4, #50]	; 0x32
 800870e:	f884 1104 	strb.w	r1, [r4, #260]	; 0x104
 8008712:	b303      	cbz	r3, 8008756 <STO_PLL_Init+0x66>
 8008714:	4608      	mov	r0, r1
 8008716:	e000      	b.n	800871a <STO_PLL_Init+0x2a>
 8008718:	4611      	mov	r1, r2
 800871a:	eb03 73d3 	add.w	r3, r3, r3, lsr #31
 800871e:	1c4a      	adds	r2, r1, #1
 8008720:	105b      	asrs	r3, r3, #1
 8008722:	ea4f 0040 	mov.w	r0, r0, lsl #1
 8008726:	b292      	uxth	r2, r2
 8008728:	d1f6      	bne.n	8008718 <STO_PLL_Init+0x28>
 800872a:	b200      	sxth	r0, r0
 800872c:	fb05 f200 	mul.w	r2, r5, r0
 8008730:	8661      	strh	r1, [r4, #50]	; 0x32
 8008732:	4b0b      	ldr	r3, [pc, #44]	; (8008760 <STO_PLL_Init+0x70>)
 8008734:	8620      	strh	r0, [r4, #48]	; 0x30
 8008736:	fb83 1302 	smull	r1, r3, r3, r2
 800873a:	17d2      	asrs	r2, r2, #31
 800873c:	ebc2 2223 	rsb	r2, r2, r3, asr #8
 8008740:	8562      	strh	r2, [r4, #42]	; 0x2a
 8008742:	4620      	mov	r0, r4
 8008744:	f7ff ffa6 	bl	8008694 <STO_PLL_Clear>
 8008748:	f104 0034 	add.w	r0, r4, #52	; 0x34
 800874c:	f7fd ff2e 	bl	80065ac <PID_HandleInit>
 8008750:	2300      	movs	r3, #0
 8008752:	8263      	strh	r3, [r4, #18]
 8008754:	bd38      	pop	{r3, r4, r5, pc}
 8008756:	462a      	mov	r2, r5
 8008758:	4608      	mov	r0, r1
 800875a:	e7ea      	b.n	8008732 <STO_PLL_Init+0x42>
 800875c:	000fea5e 	.word	0x000fea5e
 8008760:	06488dc5 	.word	0x06488dc5

08008764 <STO_PLL_IsObserverConverged>:
 8008764:	f890 2123 	ldrb.w	r2, [r0, #291]	; 0x123
 8008768:	f8a0 1124 	strh.w	r1, [r0, #292]	; 0x124
 800876c:	4603      	mov	r3, r0
 800876e:	b10a      	cbz	r2, 8008774 <STO_PLL_IsObserverConverged+0x10>
 8008770:	f9b0 100c 	ldrsh.w	r1, [r0, #12]
 8008774:	f893 0122 	ldrb.w	r0, [r3, #290]	; 0x122
 8008778:	2800      	cmp	r0, #0
 800877a:	d143      	bne.n	8008804 <STO_PLL_IsObserverConverged+0xa0>
 800877c:	f9b3 200c 	ldrsh.w	r2, [r3, #12]
 8008780:	b430      	push	{r4, r5}
 8008782:	fb02 f501 	mul.w	r5, r2, r1
 8008786:	2d00      	cmp	r5, #0
 8008788:	460c      	mov	r4, r1
 800878a:	dd34      	ble.n	80087f6 <STO_PLL_IsObserverConverged+0x92>
 800878c:	2a00      	cmp	r2, #0
 800878e:	bfbc      	itt	lt
 8008790:	4252      	neglt	r2, r2
 8008792:	b212      	sxthlt	r2, r2
 8008794:	2900      	cmp	r1, #0
 8008796:	bfbc      	itt	lt
 8008798:	4249      	neglt	r1, r1
 800879a:	b20c      	sxthlt	r4, r1
 800879c:	f893 10f5 	ldrb.w	r1, [r3, #245]	; 0xf5
 80087a0:	b359      	cbz	r1, 80087fa <STO_PLL_IsObserverConverged+0x96>
 80087a2:	f8b3 5114 	ldrh.w	r5, [r3, #276]	; 0x114
 80087a6:	b291      	uxth	r1, r2
 80087a8:	428d      	cmp	r5, r1
 80087aa:	d226      	bcs.n	80087fa <STO_PLL_IsObserverConverged+0x96>
 80087ac:	f893 1113 	ldrb.w	r1, [r3, #275]	; 0x113
 80087b0:	fb04 f101 	mul.w	r1, r4, r1
 80087b4:	2900      	cmp	r1, #0
 80087b6:	bfb8      	it	lt
 80087b8:	310f      	addlt	r1, #15
 80087ba:	f341 110f 	sbfx	r1, r1, #4, #16
 80087be:	428a      	cmp	r2, r1
 80087c0:	db1b      	blt.n	80087fa <STO_PLL_IsObserverConverged+0x96>
 80087c2:	f893 1112 	ldrb.w	r1, [r3, #274]	; 0x112
 80087c6:	fb04 f101 	mul.w	r1, r4, r1
 80087ca:	2900      	cmp	r1, #0
 80087cc:	bfb8      	it	lt
 80087ce:	310f      	addlt	r1, #15
 80087d0:	f341 110f 	sbfx	r1, r1, #4, #16
 80087d4:	428a      	cmp	r2, r1
 80087d6:	dc10      	bgt.n	80087fa <STO_PLL_IsObserverConverged+0x96>
 80087d8:	f893 20f6 	ldrb.w	r2, [r3, #246]	; 0xf6
 80087dc:	f893 1116 	ldrb.w	r1, [r3, #278]	; 0x116
 80087e0:	3201      	adds	r2, #1
 80087e2:	b2d2      	uxtb	r2, r2
 80087e4:	4291      	cmp	r1, r2
 80087e6:	f883 20f6 	strb.w	r2, [r3, #246]	; 0xf6
 80087ea:	d804      	bhi.n	80087f6 <STO_PLL_IsObserverConverged+0x92>
 80087ec:	2001      	movs	r0, #1
 80087ee:	2200      	movs	r2, #0
 80087f0:	f883 00f8 	strb.w	r0, [r3, #248]	; 0xf8
 80087f4:	701a      	strb	r2, [r3, #0]
 80087f6:	bc30      	pop	{r4, r5}
 80087f8:	4770      	bx	lr
 80087fa:	2200      	movs	r2, #0
 80087fc:	f883 20f6 	strb.w	r2, [r3, #246]	; 0xf6
 8008800:	bc30      	pop	{r4, r5}
 8008802:	4770      	bx	lr
 8008804:	2001      	movs	r0, #1
 8008806:	2200      	movs	r2, #0
 8008808:	f883 00f8 	strb.w	r0, [r3, #248]	; 0xf8
 800880c:	701a      	strb	r2, [r3, #0]
 800880e:	4770      	bx	lr

08008810 <STO_PLL_GetEstimatedBemf>:
 8008810:	6f03      	ldr	r3, [r0, #112]	; 0x70
 8008812:	2000      	movs	r0, #0
 8008814:	b29a      	uxth	r2, r3
 8008816:	f362 000f 	bfi	r0, r2, #0, #16
 800881a:	0c1b      	lsrs	r3, r3, #16
 800881c:	b082      	sub	sp, #8
 800881e:	f363 401f 	bfi	r0, r3, #16, #16
 8008822:	b002      	add	sp, #8
 8008824:	4770      	bx	lr
 8008826:	bf00      	nop

08008828 <STO_PLL_GetEstimatedCurrent>:
 8008828:	e9d0 2318 	ldrd	r2, r3, [r0, #96]	; 0x60
 800882c:	b410      	push	{r4}
 800882e:	f8b0 411c 	ldrh.w	r4, [r0, #284]	; 0x11c
 8008832:	4122      	asrs	r2, r4
 8008834:	b292      	uxth	r2, r2
 8008836:	4123      	asrs	r3, r4
 8008838:	2100      	movs	r1, #0
 800883a:	b29b      	uxth	r3, r3
 800883c:	f362 010f 	bfi	r1, r2, #0, #16
 8008840:	f363 411f 	bfi	r1, r3, #16, #16
 8008844:	b083      	sub	sp, #12
 8008846:	4608      	mov	r0, r1
 8008848:	b003      	add	sp, #12
 800884a:	f85d 4b04 	ldr.w	r4, [sp], #4
 800884e:	4770      	bx	lr

08008850 <STO_PLL_GetObserverGains>:
 8008850:	f9b0 3022 	ldrsh.w	r3, [r0, #34]	; 0x22
 8008854:	800b      	strh	r3, [r1, #0]
 8008856:	f9b0 3026 	ldrsh.w	r3, [r0, #38]	; 0x26
 800885a:	8013      	strh	r3, [r2, #0]
 800885c:	4770      	bx	lr
 800885e:	bf00      	nop

08008860 <STO_PLL_SetObserverGains>:
 8008860:	8441      	strh	r1, [r0, #34]	; 0x22
 8008862:	84c2      	strh	r2, [r0, #38]	; 0x26
 8008864:	4770      	bx	lr
 8008866:	bf00      	nop

08008868 <STO_GetPLLGains>:
 8008868:	b570      	push	{r4, r5, r6, lr}
 800886a:	f100 0434 	add.w	r4, r0, #52	; 0x34
 800886e:	4620      	mov	r0, r4
 8008870:	460e      	mov	r6, r1
 8008872:	4615      	mov	r5, r2
 8008874:	f7fd fea6 	bl	80065c4 <PID_GetKP>
 8008878:	8030      	strh	r0, [r6, #0]
 800887a:	4620      	mov	r0, r4
 800887c:	f7fd fea6 	bl	80065cc <PID_GetKI>
 8008880:	8028      	strh	r0, [r5, #0]
 8008882:	bd70      	pop	{r4, r5, r6, pc}

08008884 <STO_SetPLLGains>:
 8008884:	b538      	push	{r3, r4, r5, lr}
 8008886:	f100 0434 	add.w	r4, r0, #52	; 0x34
 800888a:	4615      	mov	r5, r2
 800888c:	4620      	mov	r0, r4
 800888e:	f7fd fe95 	bl	80065bc <PID_SetKP>
 8008892:	4629      	mov	r1, r5
 8008894:	4620      	mov	r0, r4
 8008896:	e8bd 4038 	ldmia.w	sp!, {r3, r4, r5, lr}
 800889a:	f7fd be91 	b.w	80065c0 <PID_SetKI>
 800889e:	bf00      	nop

080088a0 <STO_OTF_ResetPLL>:
 80088a0:	6800      	ldr	r0, [r0, #0]
 80088a2:	2100      	movs	r1, #0
 80088a4:	3034      	adds	r0, #52	; 0x34
 80088a6:	f7fd be95 	b.w	80065d4 <PID_SetIntegralTerm>
 80088aa:	bf00      	nop

080088ac <STO_ResetPLL>:
 80088ac:	3034      	adds	r0, #52	; 0x34
 80088ae:	2100      	movs	r1, #0
 80088b0:	f7fd be90 	b.w	80065d4 <PID_SetIntegralTerm>

080088b4 <STO_PLL_GetEstimatedBemfLevel>:
 80088b4:	f8d0 0100 	ldr.w	r0, [r0, #256]	; 0x100
 80088b8:	4770      	bx	lr
 80088ba:	bf00      	nop

080088bc <STO_PLL_GetObservedBemfLevel>:
 80088bc:	f8d0 00fc 	ldr.w	r0, [r0, #252]	; 0xfc
 80088c0:	4770      	bx	lr
 80088c2:	bf00      	nop

080088c4 <STO_PLL_IsVarianceTight>:
 80088c4:	6803      	ldr	r3, [r0, #0]
 80088c6:	f893 00f5 	ldrb.w	r0, [r3, #245]	; 0xf5
 80088ca:	4770      	bx	lr

080088cc <STO_PLL_ForceConvergency1>:
 80088cc:	6803      	ldr	r3, [r0, #0]
 80088ce:	2201      	movs	r2, #1
 80088d0:	f883 2122 	strb.w	r2, [r3, #290]	; 0x122
 80088d4:	4770      	bx	lr
 80088d6:	bf00      	nop

080088d8 <STO_PLL_ForceConvergency2>:
 80088d8:	6803      	ldr	r3, [r0, #0]
 80088da:	2201      	movs	r2, #1
 80088dc:	f883 2123 	strb.w	r2, [r3, #291]	; 0x123
 80088e0:	4770      	bx	lr
 80088e2:	bf00      	nop

080088e4 <__libc_init_array>:
 80088e4:	b570      	push	{r4, r5, r6, lr}
 80088e6:	4e0d      	ldr	r6, [pc, #52]	; (800891c <__libc_init_array+0x38>)
 80088e8:	4c0d      	ldr	r4, [pc, #52]	; (8008920 <__libc_init_array+0x3c>)
 80088ea:	1ba4      	subs	r4, r4, r6
 80088ec:	10a4      	asrs	r4, r4, #2
 80088ee:	2500      	movs	r5, #0
 80088f0:	42a5      	cmp	r5, r4
 80088f2:	d109      	bne.n	8008908 <__libc_init_array+0x24>
 80088f4:	4e0b      	ldr	r6, [pc, #44]	; (8008924 <__libc_init_array+0x40>)
 80088f6:	4c0c      	ldr	r4, [pc, #48]	; (8008928 <__libc_init_array+0x44>)
 80088f8:	f000 f820 	bl	800893c <_init>
 80088fc:	1ba4      	subs	r4, r4, r6
 80088fe:	10a4      	asrs	r4, r4, #2
 8008900:	2500      	movs	r5, #0
 8008902:	42a5      	cmp	r5, r4
 8008904:	d105      	bne.n	8008912 <__libc_init_array+0x2e>
 8008906:	bd70      	pop	{r4, r5, r6, pc}
 8008908:	f856 3025 	ldr.w	r3, [r6, r5, lsl #2]
 800890c:	4798      	blx	r3
 800890e:	3501      	adds	r5, #1
 8008910:	e7ee      	b.n	80088f0 <__libc_init_array+0xc>
 8008912:	f856 3025 	ldr.w	r3, [r6, r5, lsl #2]
 8008916:	4798      	blx	r3
 8008918:	3501      	adds	r5, #1
 800891a:	e7f2      	b.n	8008902 <__libc_init_array+0x1e>
 800891c:	08008c68 	.word	0x08008c68
 8008920:	08008c68 	.word	0x08008c68
 8008924:	08008c68 	.word	0x08008c68
 8008928:	08008c6c 	.word	0x08008c6c

0800892c <memset>:
 800892c:	4402      	add	r2, r0
 800892e:	4603      	mov	r3, r0
 8008930:	4293      	cmp	r3, r2
 8008932:	d100      	bne.n	8008936 <memset+0xa>
 8008934:	4770      	bx	lr
 8008936:	f803 1b01 	strb.w	r1, [r3], #1
 800893a:	e7f9      	b.n	8008930 <memset+0x4>

0800893c <_init>:
 800893c:	b5f8      	push	{r3, r4, r5, r6, r7, lr}
 800893e:	bf00      	nop
 8008940:	bcf8      	pop	{r3, r4, r5, r6, r7}
 8008942:	bc08      	pop	{r3}
 8008944:	469e      	mov	lr, r3
 8008946:	4770      	bx	lr

08008948 <_fini>:
 8008948:	b5f8      	push	{r3, r4, r5, r6, r7, lr}
 800894a:	bf00      	nop
 800894c:	bcf8      	pop	{r3, r4, r5, r6, r7}
 800894e:	bc08      	pop	{r3}
 8008950:	469e      	mov	lr, r3
 8008952:	4770      	bx	lr
